SF:/Users/samcolak/Source Code/rust/neuron_server/library/neuralnet/src/cnn/classifier.rs
FN:2515,_RNCNvNtNtCs1xmhvdYWKG8_9neuralnet3cnn10classifier19backward_conv_block0B7_
FN:346,_RNvMs7_NtNtCs1xmhvdYWKG8_9neuralnet3cnn10classifierNtB5_22CnnCoalescingScheduler12flush_if_due
FN:427,_RNvMs9_NtNtCs1xmhvdYWKG8_9neuralnet3cnn10classifierNtB5_27CnnCoalescingBatchPredictor14new_with_shape
FN:782,_RNvMsa_NtNtCs1xmhvdYWKG8_9neuralnet3cnn10classifierNtB5_18CnnImageClassifier12class_labels
FN:798,_RNvMsa_NtNtCs1xmhvdYWKG8_9neuralnet3cnn10classifierNtB5_18CnnImageClassifier14head_optimizer
FN:790,_RNvMsa_NtNtCs1xmhvdYWKG8_9neuralnet3cnn10classifierNtB5_18CnnImageClassifier14min_confidence
FN:802,_RNvMsa_NtNtCs1xmhvdYWKG8_9neuralnet3cnn10classifierNtB5_18CnnImageClassifier18head_learning_rate
FN:794,_RNvMsa_NtNtCs1xmhvdYWKG8_9neuralnet3cnn10classifierNtB5_18CnnImageClassifier18set_head_optimizer
FN:868,_RNvMsa_NtNtCs1xmhvdYWKG8_9neuralnet3cnn10classifierNtB5_18CnnImageClassifier19configure_head_adam
FN:806,_RNvMsa_NtNtCs1xmhvdYWKG8_9neuralnet3cnn10classifierNtB5_18CnnImageClassifier21set_head_weight_decay
FN:1955,_RNvMsa_NtNtCs1xmhvdYWKG8_9neuralnet3cnn10classifierNtB5_18CnnImageClassifier26backward_feature_extractor
FN:1184,_RNvMsa_NtNtCs1xmhvdYWKG8_9neuralnet3cnn10classifierNtB5_18CnnImageClassifier27train_image_with_dimensions
FN:1426,_RNvMsa_NtNtCs1xmhvdYWKG8_9neuralnet3cnn10classifierNtB5_18CnnImageClassifier33train_image_batch_with_dimensions
FN:1197,_RNvMsa_NtNtCs1xmhvdYWKG8_9neuralnet3cnn10classifierNtB5_18CnnImageClassifier33train_image_with_dimensions_timed
FN:1052,_RNvMsa_NtNtCs1xmhvdYWKG8_9neuralnet3cnn10classifierNtB5_18CnnImageClassifier36forward_batch_with_cache_from_tensor
FN:1965,_RNvMsa_NtNtCs1xmhvdYWKG8_9neuralnet3cnn10classifierNtB5_18CnnImageClassifier37backward_feature_extractor_with_scale
FN:1526,_RNvMsa_NtNtCs1xmhvdYWKG8_9neuralnet3cnn10classifierNtB5_18CnnImageClassifier39predict_with_confidence_with_dimensions
FN:1437,_RNvMsa_NtNtCs1xmhvdYWKG8_9neuralnet3cnn10classifierNtB5_18CnnImageClassifier39train_image_batch_with_dimensions_timed
FN:561,_RNvMsa_NtNtCs1xmhvdYWKG8_9neuralnet3cnn10classifierNtB5_18CnnImageClassifier42coalescing_batch_predictor_with_dimensions
FN:580,_RNvMsa_NtNtCs1xmhvdYWKG8_9neuralnet3cnn10classifierNtB5_18CnnImageClassifier42start_coalescing_scheduler_with_dimensions
FN:2057,_RNvMsa_NtNtCs1xmhvdYWKG8_9neuralnet3cnn10classifierNtB5_18CnnImageClassifier43backward_feature_extractor_batch_with_scale
FN:1715,_RNvMsa_NtNtCs1xmhvdYWKG8_9neuralnet3cnn10classifierNtB5_18CnnImageClassifier45predict_batch_with_confidence_with_dimensions
FN:2540,_RNvNtNtCs1xmhvdYWKG8_9neuralnet3cnn10classifier13add_bias_grad
FN:2496,_RNvNtNtCs1xmhvdYWKG8_9neuralnet3cnn10classifier19backward_conv_block
FN:2447,_RNvNtNtCs1xmhvdYWKG8_9neuralnet3cnn10classifier26tensor_shape_element_count
FN:2406,_RNvNtNtCs1xmhvdYWKG8_9neuralnet3cnn10classifier34forward_conv_block_with_mlx_mirror
FN:2394,_RNvNtNtCs1xmhvdYWKG8_9neuralnet3cnn10classifier43forward_conv_block_with_mlx_mirror_no_cache
FN:76,_RNvXNtNtCs1xmhvdYWKG8_9neuralnet3cnn10classifierNtB2_23CnnImageClassifierErrorNtNtCse2qo0L34Llq_4core3fmt7Display3fmt
FN:271,_RNvXs5_NtNtCs1xmhvdYWKG8_9neuralnet3cnn10classifierNtB5_27CnnCoalescingPredictOptionsNtNtCse2qo0L34Llq_4core7default7Default7default
FN:1308,_RNCNCNCNvMsa_NtNtCs1xmhvdYWKG8_9neuralnet3cnn10classifierNtBb_18CnnImageClassifier23train_image_batch_timeds0_000Bf_
FN:1580,_RNCNCNCNvMsa_NtNtCs1xmhvdYWKG8_9neuralnet3cnn10classifierNtBb_18CnnImageClassifier36predict_batch_with_confidence_reports0_000Bf_
FN:1306,_RNCNCNvMsa_NtNtCs1xmhvdYWKG8_9neuralnet3cnn10classifierNtB9_18CnnImageClassifier23train_image_batch_timeds0_00Bd_
FN:1578,_RNCNCNvMsa_NtNtCs1xmhvdYWKG8_9neuralnet3cnn10classifierNtB9_18CnnImageClassifier36predict_batch_with_confidence_reports0_00Bd_
FN:39,_RNCNCNvNtNtCs1xmhvdYWKG8_9neuralnet3cnn10classifier28cnn_batch_preprocess_enabled00B9_
FN:307,_RNCNvMs6_NtNtCs1xmhvdYWKG8_9neuralnet3cnn10classifierNtB7_28CnnCoalescedPredictionHandle4wait0Bb_
FN:470,_RNCNvMs9_NtNtCs1xmhvdYWKG8_9neuralnet3cnn10classifierNtB7_27CnnCoalescingBatchPredictor12flush_if_due0Bb_
FN:1781,_RNCNvMsa_NtNtCs1xmhvdYWKG8_9neuralnet3cnn10classifierNtB7_18CnnImageClassifier12save_to_file0Bb_
FN:1788,_RNCNvMsa_NtNtCs1xmhvdYWKG8_9neuralnet3cnn10classifierNtB7_18CnnImageClassifier12save_to_files0_0Bb_
FN:1805,_RNCNvMsa_NtNtCs1xmhvdYWKG8_9neuralnet3cnn10classifierNtB7_18CnnImageClassifier12save_to_files1_0Bb_
FN:1782,_RNCNvMsa_NtNtCs1xmhvdYWKG8_9neuralnet3cnn10classifierNtB7_18CnnImageClassifier12save_to_files_0Bb_
FN:1838,_RNCNvMsa_NtNtCs1xmhvdYWKG8_9neuralnet3cnn10classifierNtB7_18CnnImageClassifier14load_from_file0Bb_
FN:1946,_RNCNvMsa_NtNtCs1xmhvdYWKG8_9neuralnet3cnn10classifierNtB7_18CnnImageClassifier14load_from_files0_0Bb_
FN:1923,_RNCNvMsa_NtNtCs1xmhvdYWKG8_9neuralnet3cnn10classifierNtB7_18CnnImageClassifier14load_from_files_0Bb_
FN:904,_RNCNvMsa_NtNtCs1xmhvdYWKG8_9neuralnet3cnn10classifierNtB7_18CnnImageClassifier21forward_for_inference0Bb_
FN:1303,_RNCNvMsa_NtNtCs1xmhvdYWKG8_9neuralnet3cnn10classifierNtB7_18CnnImageClassifier23train_image_batch_timed0Bb_
FN:1305,_RNCNvMsa_NtNtCs1xmhvdYWKG8_9neuralnet3cnn10classifierNtB7_18CnnImageClassifier23train_image_batch_timeds0_0Bb_
FN:1304,_RNCNvMsa_NtNtCs1xmhvdYWKG8_9neuralnet3cnn10classifierNtB7_18CnnImageClassifier23train_image_batch_timeds_0Bb_
FN:993,_RNCNvMsa_NtNtCs1xmhvdYWKG8_9neuralnet3cnn10classifierNtB7_18CnnImageClassifier32extract_features_with_dimensions0Bb_
FN:1575,_RNCNvMsa_NtNtCs1xmhvdYWKG8_9neuralnet3cnn10classifierNtB7_18CnnImageClassifier36predict_batch_with_confidence_report0Bb_
FN:1577,_RNCNvMsa_NtNtCs1xmhvdYWKG8_9neuralnet3cnn10classifierNtB7_18CnnImageClassifier36predict_batch_with_confidence_reports0_0Bb_
FN:1576,_RNCNvMsa_NtNtCs1xmhvdYWKG8_9neuralnet3cnn10classifierNtB7_18CnnImageClassifier36predict_batch_with_confidence_reports_0Bb_
FN:36,_RNCNvNtNtCs1xmhvdYWKG8_9neuralnet3cnn10classifier28cnn_batch_preprocess_enabled0B7_
FN:306,_RNvMs6_NtNtCs1xmhvdYWKG8_9neuralnet3cnn10classifierNtB5_28CnnCoalescedPredictionHandle4wait
FN:358,_RNvMs7_NtNtCs1xmhvdYWKG8_9neuralnet3cnn10classifierNtB5_22CnnCoalescingScheduler5flush
FN:324,_RNvMs7_NtNtCs1xmhvdYWKG8_9neuralnet3cnn10classifierNtB5_22CnnCoalescingScheduler6submit
FN:368,_RNvMs7_NtNtCs1xmhvdYWKG8_9neuralnet3cnn10classifierNtB5_22CnnCoalescingScheduler8shutdown
FN:519,_RNvMs9_NtNtCs1xmhvdYWKG8_9neuralnet3cnn10classifierNtB5_27CnnCoalescingBatchPredictor10take_ready
FN:523,_RNvMs9_NtNtCs1xmhvdYWKG8_9neuralnet3cnn10classifierNtB5_27CnnCoalescingBatchPredictor11pending_len
FN:462,_RNvMs9_NtNtCs1xmhvdYWKG8_9neuralnet3cnn10classifierNtB5_27CnnCoalescingBatchPredictor12flush_if_due
FN:411,_RNvMs9_NtNtCs1xmhvdYWKG8_9neuralnet3cnn10classifierNtB5_27CnnCoalescingBatchPredictor3new
FN:479,_RNvMs9_NtNtCs1xmhvdYWKG8_9neuralnet3cnn10classifierNtB5_27CnnCoalescingBatchPredictor5flush
FN:527,_RNvMs9_NtNtCs1xmhvdYWKG8_9neuralnet3cnn10classifierNtB5_27CnnCoalescingBatchPredictor6finish
FN:447,_RNvMs9_NtNtCs1xmhvdYWKG8_9neuralnet3cnn10classifierNtB5_27CnnCoalescingBatchPredictor7enqueue
FN:1130,_RNvMsa_NtNtCs1xmhvdYWKG8_9neuralnet3cnn10classifierNtB5_18CnnImageClassifier11train_image
FN:1762,_RNvMsa_NtNtCs1xmhvdYWKG8_9neuralnet3cnn10classifierNtB5_18CnnImageClassifier12save_to_file
FN:628,_RNvMsa_NtNtCs1xmhvdYWKG8_9neuralnet3cnn10classifierNtB5_18CnnImageClassifier13new_two_layer
FN:1816,_RNvMsa_NtNtCs1xmhvdYWKG8_9neuralnet3cnn10classifierNtB5_18CnnImageClassifier14load_from_file
FN:872,_RNvMsa_NtNtCs1xmhvdYWKG8_9neuralnet3cnn10classifierNtB5_18CnnImageClassifier16extract_features
FN:1265,_RNvMsa_NtNtCs1xmhvdYWKG8_9neuralnet3cnn10classifierNtB5_18CnnImageClassifier17train_image_batch
FN:1137,_RNvMsa_NtNtCs1xmhvdYWKG8_9neuralnet3cnn10classifierNtB5_18CnnImageClassifier17train_image_timed
FN:908,_RNvMsa_NtNtCs1xmhvdYWKG8_9neuralnet3cnn10classifierNtB5_18CnnImageClassifier18forward_with_cache
FN:786,_RNvMsa_NtNtCs1xmhvdYWKG8_9neuralnet3cnn10classifierNtB5_18CnnImageClassifier18set_min_confidence
FN:876,_RNvMsa_NtNtCs1xmhvdYWKG8_9neuralnet3cnn10classifierNtB5_18CnnImageClassifier21forward_for_inference
FN:1732,_RNvMsa_NtNtCs1xmhvdYWKG8_9neuralnet3cnn10classifierNtB5_18CnnImageClassifier23classify_feature_vector
FN:1518,_RNvMsa_NtNtCs1xmhvdYWKG8_9neuralnet3cnn10classifierNtB5_18CnnImageClassifier23predict_with_confidence
FN:1276,_RNvMsa_NtNtCs1xmhvdYWKG8_9neuralnet3cnn10classifierNtB5_18CnnImageClassifier23train_image_batch_timed
FN:938,_RNvMsa_NtNtCs1xmhvdYWKG8_9neuralnet3cnn10classifierNtB5_18CnnImageClassifier24forward_with_cache_timed
FN:645,_RNvMsa_NtNtCs1xmhvdYWKG8_9neuralnet3cnn10classifierNtB5_18CnnImageClassifier25new_with_feature_channels
FN:554,_RNvMsa_NtNtCs1xmhvdYWKG8_9neuralnet3cnn10classifierNtB5_18CnnImageClassifier26coalescing_batch_predictor
FN:569,_RNvMsa_NtNtCs1xmhvdYWKG8_9neuralnet3cnn10classifierNtB5_18CnnImageClassifier26start_coalescing_scheduler
FN:1537,_RNvMsa_NtNtCs1xmhvdYWKG8_9neuralnet3cnn10classifierNtB5_18CnnImageClassifier29predict_batch_with_confidence
FN:997,_RNvMsa_NtNtCs1xmhvdYWKG8_9neuralnet3cnn10classifierNtB5_18CnnImageClassifier30forward_with_cache_from_tensor
FN:968,_RNvMsa_NtNtCs1xmhvdYWKG8_9neuralnet3cnn10classifierNtB5_18CnnImageClassifier32extract_features_with_dimensions
FN:1109,_RNvMsa_NtNtCs1xmhvdYWKG8_9neuralnet3cnn10classifierNtB5_18CnnImageClassifier34forward_batch_features_from_tensor
FN:861,_RNvMsa_NtNtCs1xmhvdYWKG8_9neuralnet3cnn10classifierNtB5_18CnnImageClassifier34sync_feature_blocks_backend_mirror
FN:1023,_RNvMsa_NtNtCs1xmhvdYWKG8_9neuralnet3cnn10classifierNtB5_18CnnImageClassifier36forward_with_cache_from_tensor_timed
FN:1545,_RNvMsa_NtNtCs1xmhvdYWKG8_9neuralnet3cnn10classifierNtB5_18CnnImageClassifier36predict_batch_with_confidence_report
FN:592,_RNvMsa_NtNtCs1xmhvdYWKG8_9neuralnet3cnn10classifierNtB5_18CnnImageClassifier3new
FN:607,_RNvMsa_NtNtCs1xmhvdYWKG8_9neuralnet3cnn10classifierNtB5_18CnnImageClassifier41new_with_feature_channels_and_kernel_size
FN:1079,_RNvMsa_NtNtCs1xmhvdYWKG8_9neuralnet3cnn10classifierNtB5_18CnnImageClassifier42forward_batch_with_cache_from_tensor_timed
FN:847,_RNvMsa_NtNtCs1xmhvdYWKG8_9neuralnet3cnn10classifierNtB5_18CnnImageClassifier42forward_feature_stack_no_cache_from_tensor
FN:1976,_RNvMsa_NtNtCs1xmhvdYWKG8_9neuralnet3cnn10classifierNtB5_18CnnImageClassifier43backward_feature_extractor_with_scale_timed
FN:810,_RNvMsa_NtNtCs1xmhvdYWKG8_9neuralnet3cnn10classifierNtB5_18CnnImageClassifier44forward_feature_stack_with_cache_from_tensor
FN:662,_RNvMsa_NtNtCs1xmhvdYWKG8_9neuralnet3cnn10classifierNtB5_18CnnImageClassifier44new_with_feature_channels_and_input_channels
FN:2069,_RNvMsa_NtNtCs1xmhvdYWKG8_9neuralnet3cnn10classifierNtB5_18CnnImageClassifier49backward_feature_extractor_batch_with_scale_timed
FN:827,_RNvMsa_NtNtCs1xmhvdYWKG8_9neuralnet3cnn10classifierNtB5_18CnnImageClassifier50forward_feature_stack_with_cache_from_tensor_timed
FN:1634,_RNvMsa_NtNtCs1xmhvdYWKG8_9neuralnet3cnn10classifierNtB5_18CnnImageClassifier52predict_batch_with_confidence_report_with_dimensions
FN:683,_RNvMsa_NtNtCs1xmhvdYWKG8_9neuralnet3cnn10classifierNtB5_18CnnImageClassifier60new_with_feature_channels_and_input_channels_and_kernel_size
FN:2247,_RNvNtNtCs1xmhvdYWKG8_9neuralnet3cnn10classifier18forward_conv_block
FN:2155,_RNvNtNtCs1xmhvdYWKG8_9neuralnet3cnn10classifier22default_input_channels
FN:2159,_RNvNtNtCs1xmhvdYWKG8_9neuralnet3cnn10classifier23initialize_conv_kernels
FN:2601,_RNvNtNtCs1xmhvdYWKG8_9neuralnet3cnn10classifier23max_pool2d_with_indices
FN:2272,_RNvNtNtCs1xmhvdYWKG8_9neuralnet3cnn10classifier24forward_conv_block_timed
FN:388,_RNvNtNtCs1xmhvdYWKG8_9neuralnet3cnn10classifier26dispatch_ready_predictions
FN:2556,_RNvNtNtCs1xmhvdYWKG8_9neuralnet3cnn10classifier27apply_conv_gradients_single
FN:399,_RNvNtNtCs1xmhvdYWKG8_9neuralnet3cnn10classifier27fail_all_pending_responders
FN:2307,_RNvNtNtCs1xmhvdYWKG8_9neuralnet3cnn10classifier27forward_conv_block_no_cache
FN:35,_RNvNtNtCs1xmhvdYWKG8_9neuralnet3cnn10classifier28cnn_batch_preprocess_enabled
FN:2519,_RNvNtNtCs1xmhvdYWKG8_9neuralnet3cnn10classifier29backward_conv_block_gradients
FN:2232,_RNvNtNtCs1xmhvdYWKG8_9neuralnet3cnn10classifier30forward_feature_block_no_cache
FN:2202,_RNvNtNtCs1xmhvdYWKG8_9neuralnet3cnn10classifier32forward_feature_block_with_cache
FN:2417,_RNvNtNtCs1xmhvdYWKG8_9neuralnet3cnn10classifier33pooled_grad_from_feature_gradient
FN:2678,_RNvNtNtCs1xmhvdYWKG8_9neuralnet3cnn10classifier36infer_square_dimensions_and_channels
FN:2217,_RNvNtNtCs1xmhvdYWKG8_9neuralnet3cnn10classifier38forward_feature_block_with_cache_timed
FN:2455,_RNvNtNtCs1xmhvdYWKG8_9neuralnet3cnn10classifier40pooled_grad_batch_from_feature_gradients
FN:112,_RNvXs0_NtNtCs1xmhvdYWKG8_9neuralnet3cnn10classifierNtB5_23CnnImageClassifierErrorINtNtCse2qo0L34Llq_4core7convert4FromNtNtNtB9_6tensor8adapters18TensorAdapterErrorE4from
FN:118,_RNvXs1_NtNtCs1xmhvdYWKG8_9neuralnet3cnn10classifierNtB5_23CnnImageClassifierErrorINtNtCse2qo0L34Llq_4core7convert4FromNtNtNtB9_6tensor8tensor4d11TensorErrorE4from
FN:124,_RNvXs2_NtNtCs1xmhvdYWKG8_9neuralnet3cnn10classifierNtB5_23CnnImageClassifierErrorINtNtCse2qo0L34Llq_4core7convert4FromNtNtNtB9_8training11linear_head15LinearHeadErrorE4from
FN:171,_RNvXs3_NtNtCs1xmhvdYWKG8_9neuralnet3cnn10classifierNtB5_26CnnImageClassifierSnapshotINtNtCse2qo0L34Llq_4core7convert4FromNtB5_32LegacyCnnImageClassifierSnapshotE4from
FN:212,_RNvXs4_NtNtCs1xmhvdYWKG8_9neuralnet3cnn10classifierNtB5_22CnnBatchPredictOptionsNtNtCse2qo0L34Llq_4core7default7Default7default
FN:378,_RNvXs8_NtNtCs1xmhvdYWKG8_9neuralnet3cnn10classifierNtB5_22CnnCoalescingSchedulerNtNtNtCse2qo0L34Llq_4core3ops4drop4Drop4drop
FN:2995,_RNCNCNvNtNtNtCs1xmhvdYWKG8_9neuralnet3cnn10classifier5testss_57cnn_classifier_batch_prediction_matches_single_predictions_00Bb_
FN:3182,_RNCNCNvNtNtNtCs1xmhvdYWKG8_9neuralnet3cnn10classifier5testss_67cnn_classifier_coalescing_scheduler_matches_single_prediction_orders0_00Bb_
FN:3195,_RNCNCNvNtNtNtCs1xmhvdYWKG8_9neuralnet3cnn10classifier5testss_67cnn_classifier_coalescing_scheduler_matches_single_prediction_orders2_00Bb_
FN:3166,_RNCNCNvNtNtNtCs1xmhvdYWKG8_9neuralnet3cnn10classifier5testss_67cnn_classifier_coalescing_scheduler_matches_single_prediction_orders_00Bb_
FN:2816,_RNCNvNtNtNtCs1xmhvdYWKG8_9neuralnet3cnn10classifier5testss_39cnn_classifier_rejects_non_square_image0B9_
FN:3102,_RNCNvNtNtNtCs1xmhvdYWKG8_9neuralnet3cnn10classifier5testss_52cnn_classifier_coalescing_predictor_flushes_when_due0B9_
FN:3125,_RNCNvNtNtNtCs1xmhvdYWKG8_9neuralnet3cnn10classifier5testss_52cnn_classifier_coalescing_predictor_flushes_when_dues0_0B9_
FN:3129,_RNCNvNtNtNtCs1xmhvdYWKG8_9neuralnet3cnn10classifier5testss_52cnn_classifier_coalescing_predictor_flushes_when_dues1_0B9_
FN:3134,_RNCNvNtNtNtCs1xmhvdYWKG8_9neuralnet3cnn10classifier5testss_52cnn_classifier_coalescing_predictor_flushes_when_dues2_0B9_
FN:3122,_RNCNvNtNtNtCs1xmhvdYWKG8_9neuralnet3cnn10classifier5testss_52cnn_classifier_coalescing_predictor_flushes_when_dues_0B9_
FN:2877,_RNCNvNtNtNtCs1xmhvdYWKG8_9neuralnet3cnn10classifier5testss_53cnn_classifier_supports_non_3x3_kernel_initialization0B9_
FN:2882,_RNCNvNtNtNtCs1xmhvdYWKG8_9neuralnet3cnn10classifier5testss_53cnn_classifier_supports_non_3x3_kernel_initializations_0B9_
FN:2754,_RNCNvNtNtNtCs1xmhvdYWKG8_9neuralnet3cnn10classifier5testss_53cnn_classifier_trains_and_predicts_on_simple_patterns0B9_
FN:2770,_RNCNvNtNtNtCs1xmhvdYWKG8_9neuralnet3cnn10classifier5testss_53cnn_classifier_trains_and_predicts_on_simple_patternss0_0B9_
FN:2767,_RNCNvNtNtNtCs1xmhvdYWKG8_9neuralnet3cnn10classifier5testss_53cnn_classifier_trains_and_predicts_on_simple_patternss_0B9_
FN:2903,_RNCNvNtNtNtCs1xmhvdYWKG8_9neuralnet3cnn10classifier5testss_56cnn_classifier_snapshot_round_trip_preserves_predictions0B9_
FN:2920,_RNCNvNtNtNtCs1xmhvdYWKG8_9neuralnet3cnn10classifier5testss_56cnn_classifier_snapshot_round_trip_preserves_predictionss1_0B9_
FN:2926,_RNCNvNtNtNtCs1xmhvdYWKG8_9neuralnet3cnn10classifier5testss_56cnn_classifier_snapshot_round_trip_preserves_predictionss3_0B9_
FN:2930,_RNCNvNtNtNtCs1xmhvdYWKG8_9neuralnet3cnn10classifier5testss_56cnn_classifier_snapshot_round_trip_preserves_predictionss4_0B9_
FN:2934,_RNCNvNtNtNtCs1xmhvdYWKG8_9neuralnet3cnn10classifier5testss_56cnn_classifier_snapshot_round_trip_preserves_predictionss6_0B9_
FN:2916,_RNCNvNtNtNtCs1xmhvdYWKG8_9neuralnet3cnn10classifier5testss_56cnn_classifier_snapshot_round_trip_preserves_predictionss_0B9_
FN:2978,_RNCNvNtNtNtCs1xmhvdYWKG8_9neuralnet3cnn10classifier5testss_57cnn_classifier_batch_prediction_matches_single_prediction0B9_
FN:3001,_RNCNvNtNtNtCs1xmhvdYWKG8_9neuralnet3cnn10classifier5testss_57cnn_classifier_batch_prediction_matches_single_predictions0_0B9_
FN:2992,_RNCNvNtNtNtCs1xmhvdYWKG8_9neuralnet3cnn10classifier5testss_57cnn_classifier_batch_prediction_matches_single_predictions_0B9_
FN:3052,_RNCNvNtNtNtCs1xmhvdYWKG8_9neuralnet3cnn10classifier5testss_57cnn_classifier_coalescing_predictor_flushes_by_queue_size0B9_
FN:3077,_RNCNvNtNtNtCs1xmhvdYWKG8_9neuralnet3cnn10classifier5testss_57cnn_classifier_coalescing_predictor_flushes_by_queue_sizes0_0B9_
FN:3086,_RNCNvNtNtNtCs1xmhvdYWKG8_9neuralnet3cnn10classifier5testss_57cnn_classifier_coalescing_predictor_flushes_by_queue_sizes1_0B9_
FN:3089,_RNCNvNtNtNtCs1xmhvdYWKG8_9neuralnet3cnn10classifier5testss_57cnn_classifier_coalescing_predictor_flushes_by_queue_sizes2_0B9_
FN:3072,_RNCNvNtNtNtCs1xmhvdYWKG8_9neuralnet3cnn10classifier5testss_57cnn_classifier_coalescing_predictor_flushes_by_queue_sizes_0B9_
FN:3014,_RNCNvNtNtNtCs1xmhvdYWKG8_9neuralnet3cnn10classifier5testss_59cnn_classifier_batch_prediction_report_has_expected_metrics0B9_
FN:3034,_RNCNvNtNtNtCs1xmhvdYWKG8_9neuralnet3cnn10classifier5testss_59cnn_classifier_batch_prediction_report_has_expected_metricss_0B9_
FN:2953,_RNCNvNtNtNtCs1xmhvdYWKG8_9neuralnet3cnn10classifier5testss_61cnn_classifier_inference_path_matches_cached_forward_features0B9_
FN:2961,_RNCNvNtNtNtCs1xmhvdYWKG8_9neuralnet3cnn10classifier5testss_61cnn_classifier_inference_path_matches_cached_forward_featuress0_0B9_
FN:2958,_RNCNvNtNtNtCs1xmhvdYWKG8_9neuralnet3cnn10classifier5testss_61cnn_classifier_inference_path_matches_cached_forward_featuress_0B9_
FN:2786,_RNCNvNtNtNtCs1xmhvdYWKG8_9neuralnet3cnn10classifier5testss_63cnn_classifier_two_layer_trains_and_predicts_on_simple_patterns0B9_
FN:2802,_RNCNvNtNtNtCs1xmhvdYWKG8_9neuralnet3cnn10classifier5testss_63cnn_classifier_two_layer_trains_and_predicts_on_simple_patternss0_0B9_
FN:2799,_RNCNvNtNtNtCs1xmhvdYWKG8_9neuralnet3cnn10classifier5testss_63cnn_classifier_two_layer_trains_and_predicts_on_simple_patternss_0B9_
FN:3214,_RNCNvNtNtNtCs1xmhvdYWKG8_9neuralnet3cnn10classifier5testss_66cnn_classifier_coalescing_scheduler_flush_unblocks_pending_request0B9_
FN:3238,_RNCNvNtNtNtCs1xmhvdYWKG8_9neuralnet3cnn10classifier5testss_66cnn_classifier_coalescing_scheduler_flush_unblocks_pending_requests0_0B9_
FN:3242,_RNCNvNtNtNtCs1xmhvdYWKG8_9neuralnet3cnn10classifier5testss_66cnn_classifier_coalescing_scheduler_flush_unblocks_pending_requests1_0B9_
FN:3247,_RNCNvNtNtNtCs1xmhvdYWKG8_9neuralnet3cnn10classifier5testss_66cnn_classifier_coalescing_scheduler_flush_unblocks_pending_requests2_0B9_
FN:3234,_RNCNvNtNtNtCs1xmhvdYWKG8_9neuralnet3cnn10classifier5testss_66cnn_classifier_coalescing_scheduler_flush_unblocks_pending_requests_0B9_
FN:3149,_RNCNvNtNtNtCs1xmhvdYWKG8_9neuralnet3cnn10classifier5testss_67cnn_classifier_coalescing_scheduler_matches_single_prediction_order0B9_
FN:3179,_RNCNvNtNtNtCs1xmhvdYWKG8_9neuralnet3cnn10classifier5testss_67cnn_classifier_coalescing_scheduler_matches_single_prediction_orders0_0B9_
FN:3188,_RNCNvNtNtNtCs1xmhvdYWKG8_9neuralnet3cnn10classifier5testss_67cnn_classifier_coalescing_scheduler_matches_single_prediction_orders1_0B9_
FN:3192,_RNCNvNtNtNtCs1xmhvdYWKG8_9neuralnet3cnn10classifier5testss_67cnn_classifier_coalescing_scheduler_matches_single_prediction_orders2_0B9_
FN:3203,_RNCNvNtNtNtCs1xmhvdYWKG8_9neuralnet3cnn10classifier5testss_67cnn_classifier_coalescing_scheduler_matches_single_prediction_orders3_0B9_
FN:3163,_RNCNvNtNtNtCs1xmhvdYWKG8_9neuralnet3cnn10classifier5testss_67cnn_classifier_coalescing_scheduler_matches_single_prediction_orders_0B9_
FN:2835,_RNCNvNtNtNtCs1xmhvdYWKG8_9neuralnet3cnn10classifier5testss_76cnn_classifier_supports_rgb_square_images_when_configured_for_three_channels0B9_
FN:2847,_RNCNvNtNtNtCs1xmhvdYWKG8_9neuralnet3cnn10classifier5testss_76cnn_classifier_supports_rgb_square_images_when_configured_for_three_channelss0_0B9_
FN:2857,_RNCNvNtNtNtCs1xmhvdYWKG8_9neuralnet3cnn10classifier5testss_76cnn_classifier_supports_rgb_square_images_when_configured_for_three_channelss1_0B9_
FN:2860,_RNCNvNtNtNtCs1xmhvdYWKG8_9neuralnet3cnn10classifier5testss_76cnn_classifier_supports_rgb_square_images_when_configured_for_three_channelss2_0B9_
FN:2843,_RNCNvNtNtNtCs1xmhvdYWKG8_9neuralnet3cnn10classifier5testss_76cnn_classifier_supports_rgb_square_images_when_configured_for_three_channelss_0B9_
FN:2708,_RNvNtNtNtCs1xmhvdYWKG8_9neuralnet3cnn10classifier5tests19classifier_test_dir
FN:2718,_RNvNtNtNtCs1xmhvdYWKG8_9neuralnet3cnn10classifier5tests26vertical_stripes_image_8x8
FN:2714,_RNvNtNtNtCs1xmhvdYWKG8_9neuralnet3cnn10classifier5tests27cleanup_classifier_test_dir
FN:2732,_RNvNtNtNtCs1xmhvdYWKG8_9neuralnet3cnn10classifier5tests28horizontal_stripes_image_8x8
FN:2809,_RNvNtNtNtCs1xmhvdYWKG8_9neuralnet3cnn10classifier5testss_39cnn_classifier_rejects_non_square_image
FN:3095,_RNvNtNtNtCs1xmhvdYWKG8_9neuralnet3cnn10classifier5testss_52cnn_classifier_coalescing_predictor_flushes_when_due
FN:2867,_RNvNtNtNtCs1xmhvdYWKG8_9neuralnet3cnn10classifier5testss_53cnn_classifier_supports_non_3x3_kernel_initialization
FN:2747,_RNvNtNtNtCs1xmhvdYWKG8_9neuralnet3cnn10classifier5testss_53cnn_classifier_trains_and_predicts_on_simple_patterns
FN:2888,_RNvNtNtNtCs1xmhvdYWKG8_9neuralnet3cnn10classifier5testss_56cnn_classifier_snapshot_round_trip_preserves_predictions
FN:2971,_RNvNtNtNtCs1xmhvdYWKG8_9neuralnet3cnn10classifier5testss_57cnn_classifier_batch_prediction_matches_single_prediction
FN:3045,_RNvNtNtNtCs1xmhvdYWKG8_9neuralnet3cnn10classifier5testss_57cnn_classifier_coalescing_predictor_flushes_by_queue_size
FN:3007,_RNvNtNtNtCs1xmhvdYWKG8_9neuralnet3cnn10classifier5testss_59cnn_classifier_batch_prediction_report_has_expected_metrics
FN:2944,_RNvNtNtNtCs1xmhvdYWKG8_9neuralnet3cnn10classifier5testss_61cnn_classifier_inference_path_matches_cached_forward_features
FN:2777,_RNvNtNtNtCs1xmhvdYWKG8_9neuralnet3cnn10classifier5testss_63cnn_classifier_two_layer_trains_and_predicts_on_simple_patterns
FN:3207,_RNvNtNtNtCs1xmhvdYWKG8_9neuralnet3cnn10classifier5testss_66cnn_classifier_coalescing_scheduler_flush_unblocks_pending_request
FN:3142,_RNvNtNtNtCs1xmhvdYWKG8_9neuralnet3cnn10classifier5testss_67cnn_classifier_coalescing_scheduler_matches_single_prediction_order
FN:2826,_RNvNtNtNtCs1xmhvdYWKG8_9neuralnet3cnn10classifier5testss_76cnn_classifier_supports_rgb_square_images_when_configured_for_three_channels
FNDA:0,_RNCNvNtNtCs1xmhvdYWKG8_9neuralnet3cnn10classifier19backward_conv_block0B7_
FNDA:0,_RNvMs7_NtNtCs1xmhvdYWKG8_9neuralnet3cnn10classifierNtB5_22CnnCoalescingScheduler12flush_if_due
FNDA:0,_RNvMs9_NtNtCs1xmhvdYWKG8_9neuralnet3cnn10classifierNtB5_27CnnCoalescingBatchPredictor14new_with_shape
FNDA:0,_RNvMsa_NtNtCs1xmhvdYWKG8_9neuralnet3cnn10classifierNtB5_18CnnImageClassifier12class_labels
FNDA:0,_RNvMsa_NtNtCs1xmhvdYWKG8_9neuralnet3cnn10classifierNtB5_18CnnImageClassifier14head_optimizer
FNDA:0,_RNvMsa_NtNtCs1xmhvdYWKG8_9neuralnet3cnn10classifierNtB5_18CnnImageClassifier14min_confidence
FNDA:0,_RNvMsa_NtNtCs1xmhvdYWKG8_9neuralnet3cnn10classifierNtB5_18CnnImageClassifier18head_learning_rate
FNDA:0,_RNvMsa_NtNtCs1xmhvdYWKG8_9neuralnet3cnn10classifierNtB5_18CnnImageClassifier18set_head_optimizer
FNDA:0,_RNvMsa_NtNtCs1xmhvdYWKG8_9neuralnet3cnn10classifierNtB5_18CnnImageClassifier19configure_head_adam
FNDA:0,_RNvMsa_NtNtCs1xmhvdYWKG8_9neuralnet3cnn10classifierNtB5_18CnnImageClassifier21set_head_weight_decay
FNDA:0,_RNvMsa_NtNtCs1xmhvdYWKG8_9neuralnet3cnn10classifierNtB5_18CnnImageClassifier26backward_feature_extractor
FNDA:0,_RNvMsa_NtNtCs1xmhvdYWKG8_9neuralnet3cnn10classifierNtB5_18CnnImageClassifier27train_image_with_dimensions
FNDA:0,_RNvMsa_NtNtCs1xmhvdYWKG8_9neuralnet3cnn10classifierNtB5_18CnnImageClassifier33train_image_batch_with_dimensions
FNDA:0,_RNvMsa_NtNtCs1xmhvdYWKG8_9neuralnet3cnn10classifierNtB5_18CnnImageClassifier33train_image_with_dimensions_timed
FNDA:0,_RNvMsa_NtNtCs1xmhvdYWKG8_9neuralnet3cnn10classifierNtB5_18CnnImageClassifier36forward_batch_with_cache_from_tensor
FNDA:0,_RNvMsa_NtNtCs1xmhvdYWKG8_9neuralnet3cnn10classifierNtB5_18CnnImageClassifier37backward_feature_extractor_with_scale
FNDA:0,_RNvMsa_NtNtCs1xmhvdYWKG8_9neuralnet3cnn10classifierNtB5_18CnnImageClassifier39predict_with_confidence_with_dimensions
FNDA:0,_RNvMsa_NtNtCs1xmhvdYWKG8_9neuralnet3cnn10classifierNtB5_18CnnImageClassifier39train_image_batch_with_dimensions_timed
FNDA:0,_RNvMsa_NtNtCs1xmhvdYWKG8_9neuralnet3cnn10classifierNtB5_18CnnImageClassifier42coalescing_batch_predictor_with_dimensions
FNDA:0,_RNvMsa_NtNtCs1xmhvdYWKG8_9neuralnet3cnn10classifierNtB5_18CnnImageClassifier42start_coalescing_scheduler_with_dimensions
FNDA:0,_RNvMsa_NtNtCs1xmhvdYWKG8_9neuralnet3cnn10classifierNtB5_18CnnImageClassifier43backward_feature_extractor_batch_with_scale
FNDA:0,_RNvMsa_NtNtCs1xmhvdYWKG8_9neuralnet3cnn10classifierNtB5_18CnnImageClassifier45predict_batch_with_confidence_with_dimensions
FNDA:0,_RNvNtNtCs1xmhvdYWKG8_9neuralnet3cnn10classifier13add_bias_grad
FNDA:0,_RNvNtNtCs1xmhvdYWKG8_9neuralnet3cnn10classifier19backward_conv_block
FNDA:0,_RNvNtNtCs1xmhvdYWKG8_9neuralnet3cnn10classifier26tensor_shape_element_count
FNDA:0,_RNvNtNtCs1xmhvdYWKG8_9neuralnet3cnn10classifier34forward_conv_block_with_mlx_mirror
FNDA:0,_RNvNtNtCs1xmhvdYWKG8_9neuralnet3cnn10classifier43forward_conv_block_with_mlx_mirror_no_cache
FNDA:0,_RNvXNtNtCs1xmhvdYWKG8_9neuralnet3cnn10classifierNtB2_23CnnImageClassifierErrorNtNtCse2qo0L34Llq_4core3fmt7Display3fmt
FNDA:0,_RNvXs5_NtNtCs1xmhvdYWKG8_9neuralnet3cnn10classifierNtB5_27CnnCoalescingPredictOptionsNtNtCse2qo0L34Llq_4core7default7Default7default
FNDA:124,_RNCNCNCNvMsa_NtNtCs1xmhvdYWKG8_9neuralnet3cnn10classifierNtBb_18CnnImageClassifier23train_image_batch_timeds0_000Bf_
FNDA:17,_RNCNCNCNvMsa_NtNtCs1xmhvdYWKG8_9neuralnet3cnn10classifierNtBb_18CnnImageClassifier36predict_batch_with_confidence_reports0_000Bf_
FNDA:124,_RNCNCNvMsa_NtNtCs1xmhvdYWKG8_9neuralnet3cnn10classifierNtB9_18CnnImageClassifier23train_image_batch_timeds0_00Bd_
FNDA:17,_RNCNCNvMsa_NtNtCs1xmhvdYWKG8_9neuralnet3cnn10classifierNtB9_18CnnImageClassifier36predict_batch_with_confidence_reports0_00Bd_
FNDA:0,_RNCNCNvNtNtCs1xmhvdYWKG8_9neuralnet3cnn10classifier28cnn_batch_preprocess_enabled00B9_
FNDA:0,_RNCNvMs6_NtNtCs1xmhvdYWKG8_9neuralnet3cnn10classifierNtB7_28CnnCoalescedPredictionHandle4wait0Bb_
FNDA:1,_RNCNvMs9_NtNtCs1xmhvdYWKG8_9neuralnet3cnn10classifierNtB7_27CnnCoalescingBatchPredictor12flush_if_due0Bb_
FNDA:2,_RNCNvMsa_NtNtCs1xmhvdYWKG8_9neuralnet3cnn10classifierNtB7_18CnnImageClassifier12save_to_file0Bb_
FNDA:0,_RNCNvMsa_NtNtCs1xmhvdYWKG8_9neuralnet3cnn10classifierNtB7_18CnnImageClassifier12save_to_files0_0Bb_
FNDA:1,_RNCNvMsa_NtNtCs1xmhvdYWKG8_9neuralnet3cnn10classifierNtB7_18CnnImageClassifier12save_to_files1_0Bb_
FNDA:2,_RNCNvMsa_NtNtCs1xmhvdYWKG8_9neuralnet3cnn10classifierNtB7_18CnnImageClassifier12save_to_files_0Bb_
FNDA:0,_RNCNvMsa_NtNtCs1xmhvdYWKG8_9neuralnet3cnn10classifierNtB7_18CnnImageClassifier14load_from_file0Bb_
FNDA:2,_RNCNvMsa_NtNtCs1xmhvdYWKG8_9neuralnet3cnn10classifierNtB7_18CnnImageClassifier14load_from_files0_0Bb_
FNDA:1,_RNCNvMsa_NtNtCs1xmhvdYWKG8_9neuralnet3cnn10classifierNtB7_18CnnImageClassifier14load_from_files_0Bb_
FNDA:25,_RNCNvMsa_NtNtCs1xmhvdYWKG8_9neuralnet3cnn10classifierNtB7_18CnnImageClassifier21forward_for_inference0Bb_
FNDA:62,_RNCNvMsa_NtNtCs1xmhvdYWKG8_9neuralnet3cnn10classifierNtB7_18CnnImageClassifier23train_image_batch_timed0Bb_
FNDA:62,_RNCNvMsa_NtNtCs1xmhvdYWKG8_9neuralnet3cnn10classifierNtB7_18CnnImageClassifier23train_image_batch_timeds0_0Bb_
FNDA:62,_RNCNvMsa_NtNtCs1xmhvdYWKG8_9neuralnet3cnn10classifierNtB7_18CnnImageClassifier23train_image_batch_timeds_0Bb_
FNDA:0,_RNCNvMsa_NtNtCs1xmhvdYWKG8_9neuralnet3cnn10classifierNtB7_18CnnImageClassifier32extract_features_with_dimensions0Bb_
FNDA:7,_RNCNvMsa_NtNtCs1xmhvdYWKG8_9neuralnet3cnn10classifierNtB7_18CnnImageClassifier36predict_batch_with_confidence_report0Bb_
FNDA:7,_RNCNvMsa_NtNtCs1xmhvdYWKG8_9neuralnet3cnn10classifierNtB7_18CnnImageClassifier36predict_batch_with_confidence_reports0_0Bb_
FNDA:7,_RNCNvMsa_NtNtCs1xmhvdYWKG8_9neuralnet3cnn10classifierNtB7_18CnnImageClassifier36predict_batch_with_confidence_reports_0Bb_
FNDA:1,_RNCNvNtNtCs1xmhvdYWKG8_9neuralnet3cnn10classifier28cnn_batch_preprocess_enabled0B7_
FNDA:5,_RNvMs6_NtNtCs1xmhvdYWKG8_9neuralnet3cnn10classifierNtB5_28CnnCoalescedPredictionHandle4wait
FNDA:4,_RNvMs7_NtNtCs1xmhvdYWKG8_9neuralnet3cnn10classifierNtB5_22CnnCoalescingScheduler5flush
FNDA:5,_RNvMs7_NtNtCs1xmhvdYWKG8_9neuralnet3cnn10classifierNtB5_22CnnCoalescingScheduler6submit
FNDA:2,_RNvMs7_NtNtCs1xmhvdYWKG8_9neuralnet3cnn10classifierNtB5_22CnnCoalescingScheduler8shutdown
FNDA:10,_RNvMs9_NtNtCs1xmhvdYWKG8_9neuralnet3cnn10classifierNtB5_27CnnCoalescingBatchPredictor10take_ready
FNDA:2,_RNvMs9_NtNtCs1xmhvdYWKG8_9neuralnet3cnn10classifierNtB5_27CnnCoalescingBatchPredictor11pending_len
FNDA:1,_RNvMs9_NtNtCs1xmhvdYWKG8_9neuralnet3cnn10classifierNtB5_27CnnCoalescingBatchPredictor12flush_if_due
FNDA:4,_RNvMs9_NtNtCs1xmhvdYWKG8_9neuralnet3cnn10classifierNtB5_27CnnCoalescingBatchPredictor3new
FNDA:7,_RNvMs9_NtNtCs1xmhvdYWKG8_9neuralnet3cnn10classifierNtB5_27CnnCoalescingBatchPredictor5flush
FNDA:1,_RNvMs9_NtNtCs1xmhvdYWKG8_9neuralnet3cnn10classifierNtB5_27CnnCoalescingBatchPredictor6finish
FNDA:9,_RNvMs9_NtNtCs1xmhvdYWKG8_9neuralnet3cnn10classifierNtB5_27CnnCoalescingBatchPredictor7enqueue
FNDA:851,_RNvMsa_NtNtCs1xmhvdYWKG8_9neuralnet3cnn10classifierNtB5_18CnnImageClassifier11train_image
FNDA:1,_RNvMsa_NtNtCs1xmhvdYWKG8_9neuralnet3cnn10classifierNtB5_18CnnImageClassifier12save_to_file
FNDA:3,_RNvMsa_NtNtCs1xmhvdYWKG8_9neuralnet3cnn10classifierNtB5_18CnnImageClassifier13new_two_layer
FNDA:1,_RNvMsa_NtNtCs1xmhvdYWKG8_9neuralnet3cnn10classifierNtB5_18CnnImageClassifier14load_from_file
FNDA:26,_RNvMsa_NtNtCs1xmhvdYWKG8_9neuralnet3cnn10classifierNtB5_18CnnImageClassifier16extract_features
FNDA:62,_RNvMsa_NtNtCs1xmhvdYWKG8_9neuralnet3cnn10classifierNtB5_18CnnImageClassifier17train_image_batch
FNDA:851,_RNvMsa_NtNtCs1xmhvdYWKG8_9neuralnet3cnn10classifierNtB5_18CnnImageClassifier17train_image_timed
FNDA:1,_RNvMsa_NtNtCs1xmhvdYWKG8_9neuralnet3cnn10classifierNtB5_18CnnImageClassifier18forward_with_cache
FNDA:12,_RNvMsa_NtNtCs1xmhvdYWKG8_9neuralnet3cnn10classifierNtB5_18CnnImageClassifier18set_min_confidence
FNDA:27,_RNvMsa_NtNtCs1xmhvdYWKG8_9neuralnet3cnn10classifierNtB5_18CnnImageClassifier21forward_for_inference
FNDA:40,_RNvMsa_NtNtCs1xmhvdYWKG8_9neuralnet3cnn10classifierNtB5_18CnnImageClassifier23classify_feature_vector
FNDA:24,_RNvMsa_NtNtCs1xmhvdYWKG8_9neuralnet3cnn10classifierNtB5_18CnnImageClassifier23predict_with_confidence
FNDA:62,_RNvMsa_NtNtCs1xmhvdYWKG8_9neuralnet3cnn10classifierNtB5_18CnnImageClassifier23train_image_batch_timed
FNDA:851,_RNvMsa_NtNtCs1xmhvdYWKG8_9neuralnet3cnn10classifierNtB5_18CnnImageClassifier24forward_with_cache_timed
FNDA:15,_RNvMsa_NtNtCs1xmhvdYWKG8_9neuralnet3cnn10classifierNtB5_18CnnImageClassifier25new_with_feature_channels
FNDA:2,_RNvMsa_NtNtCs1xmhvdYWKG8_9neuralnet3cnn10classifierNtB5_18CnnImageClassifier26coalescing_batch_predictor
FNDA:2,_RNvMsa_NtNtCs1xmhvdYWKG8_9neuralnet3cnn10classifierNtB5_18CnnImageClassifier26start_coalescing_scheduler
FNDA:1,_RNvMsa_NtNtCs1xmhvdYWKG8_9neuralnet3cnn10classifierNtB5_18CnnImageClassifier29predict_batch_with_confidence
FNDA:1,_RNvMsa_NtNtCs1xmhvdYWKG8_9neuralnet3cnn10classifierNtB5_18CnnImageClassifier30forward_with_cache_from_tensor
FNDA:0,_RNvMsa_NtNtCs1xmhvdYWKG8_9neuralnet3cnn10classifierNtB5_18CnnImageClassifier32extract_features_with_dimensions
FNDA:7,_RNvMsa_NtNtCs1xmhvdYWKG8_9neuralnet3cnn10classifierNtB5_18CnnImageClassifier34forward_batch_features_from_tensor
FNDA:913,_RNvMsa_NtNtCs1xmhvdYWKG8_9neuralnet3cnn10classifierNtB5_18CnnImageClassifier34sync_feature_blocks_backend_mirror
FNDA:851,_RNvMsa_NtNtCs1xmhvdYWKG8_9neuralnet3cnn10classifierNtB5_18CnnImageClassifier36forward_with_cache_from_tensor_timed
FNDA:6,_RNvMsa_NtNtCs1xmhvdYWKG8_9neuralnet3cnn10classifierNtB5_18CnnImageClassifier36predict_batch_with_confidence_report
FNDA:12,_RNvMsa_NtNtCs1xmhvdYWKG8_9neuralnet3cnn10classifierNtB5_18CnnImageClassifier3new
FNDA:1,_RNvMsa_NtNtCs1xmhvdYWKG8_9neuralnet3cnn10classifierNtB5_18CnnImageClassifier41new_with_feature_channels_and_kernel_size
FNDA:62,_RNvMsa_NtNtCs1xmhvdYWKG8_9neuralnet3cnn10classifierNtB5_18CnnImageClassifier42forward_batch_with_cache_from_tensor_timed
FNDA:32,_RNvMsa_NtNtCs1xmhvdYWKG8_9neuralnet3cnn10classifierNtB5_18CnnImageClassifier42forward_feature_stack_no_cache_from_tensor
FNDA:851,_RNvMsa_NtNtCs1xmhvdYWKG8_9neuralnet3cnn10classifierNtB5_18CnnImageClassifier43backward_feature_extractor_with_scale_timed
FNDA:1,_RNvMsa_NtNtCs1xmhvdYWKG8_9neuralnet3cnn10classifierNtB5_18CnnImageClassifier44forward_feature_stack_with_cache_from_tensor
FNDA:16,_RNvMsa_NtNtCs1xmhvdYWKG8_9neuralnet3cnn10classifierNtB5_18CnnImageClassifier44new_with_feature_channels_and_input_channels
FNDA:62,_RNvMsa_NtNtCs1xmhvdYWKG8_9neuralnet3cnn10classifierNtB5_18CnnImageClassifier49backward_feature_extractor_batch_with_scale_timed
FNDA:913,_RNvMsa_NtNtCs1xmhvdYWKG8_9neuralnet3cnn10classifierNtB5_18CnnImageClassifier50forward_feature_stack_with_cache_from_tensor_timed
FNDA:0,_RNvMsa_NtNtCs1xmhvdYWKG8_9neuralnet3cnn10classifierNtB5_18CnnImageClassifier52predict_batch_with_confidence_report_with_dimensions
FNDA:17,_RNvMsa_NtNtCs1xmhvdYWKG8_9neuralnet3cnn10classifierNtB5_18CnnImageClassifier60new_with_feature_channels_and_input_channels_and_kernel_size
FNDA:2,_RNvNtNtCs1xmhvdYWKG8_9neuralnet3cnn10classifier18forward_conv_block
FNDA:0,_RNvNtNtCs1xmhvdYWKG8_9neuralnet3cnn10classifier22default_input_channels
FNDA:20,_RNvNtNtCs1xmhvdYWKG8_9neuralnet3cnn10classifier23initialize_conv_kernels
FNDA:1194,_RNvNtNtCs1xmhvdYWKG8_9neuralnet3cnn10classifier23max_pool2d_with_indices
FNDA:1153,_RNvNtNtCs1xmhvdYWKG8_9neuralnet3cnn10classifier24forward_conv_block_timed
FNDA:9,_RNvNtNtCs1xmhvdYWKG8_9neuralnet3cnn10classifier26dispatch_ready_predictions
FNDA:1091,_RNvNtNtCs1xmhvdYWKG8_9neuralnet3cnn10classifier27apply_conv_gradients_single
FNDA:0,_RNvNtNtCs1xmhvdYWKG8_9neuralnet3cnn10classifier27fail_all_pending_responders
FNDA:39,_RNvNtNtCs1xmhvdYWKG8_9neuralnet3cnn10classifier27forward_conv_block_no_cache
FNDA:63,_RNvNtNtCs1xmhvdYWKG8_9neuralnet3cnn10classifier28cnn_batch_preprocess_enabled
FNDA:1153,_RNvNtNtCs1xmhvdYWKG8_9neuralnet3cnn10classifier29backward_conv_block_gradients
FNDA:39,_RNvNtNtCs1xmhvdYWKG8_9neuralnet3cnn10classifier30forward_feature_block_no_cache
FNDA:2,_RNvNtNtCs1xmhvdYWKG8_9neuralnet3cnn10classifier32forward_feature_block_with_cache
FNDA:851,_RNvNtNtCs1xmhvdYWKG8_9neuralnet3cnn10classifier33pooled_grad_from_feature_gradient
FNDA:1089,_RNvNtNtCs1xmhvdYWKG8_9neuralnet3cnn10classifier36infer_square_dimensions_and_channels
FNDA:1153,_RNvNtNtCs1xmhvdYWKG8_9neuralnet3cnn10classifier38forward_feature_block_with_cache_timed
FNDA:62,_RNvNtNtCs1xmhvdYWKG8_9neuralnet3cnn10classifier40pooled_grad_batch_from_feature_gradients
FNDA:0,_RNvXs0_NtNtCs1xmhvdYWKG8_9neuralnet3cnn10classifierNtB5_23CnnImageClassifierErrorINtNtCse2qo0L34Llq_4core7convert4FromNtNtNtB9_6tensor8adapters18TensorAdapterErrorE4from
FNDA:0,_RNvXs1_NtNtCs1xmhvdYWKG8_9neuralnet3cnn10classifierNtB5_23CnnImageClassifierErrorINtNtCse2qo0L34Llq_4core7convert4FromNtNtNtB9_6tensor8tensor4d11TensorErrorE4from
FNDA:0,_RNvXs2_NtNtCs1xmhvdYWKG8_9neuralnet3cnn10classifierNtB5_23CnnImageClassifierErrorINtNtCse2qo0L34Llq_4core7convert4FromNtNtNtB9_8training11linear_head15LinearHeadErrorE4from
FNDA:0,_RNvXs3_NtNtCs1xmhvdYWKG8_9neuralnet3cnn10classifierNtB5_26CnnImageClassifierSnapshotINtNtCse2qo0L34Llq_4core7convert4FromNtB5_32LegacyCnnImageClassifierSnapshotE4from
FNDA:1,_RNvXs4_NtNtCs1xmhvdYWKG8_9neuralnet3cnn10classifierNtB5_22CnnBatchPredictOptionsNtNtCse2qo0L34Llq_4core7default7Default7default
FNDA:2,_RNvXs8_NtNtCs1xmhvdYWKG8_9neuralnet3cnn10classifierNtB5_22CnnCoalescingSchedulerNtNtNtCse2qo0L34Llq_4core3ops4drop4Drop4drop
FNDA:0,_RNCNCNvNtNtNtCs1xmhvdYWKG8_9neuralnet3cnn10classifier5testss_57cnn_classifier_batch_prediction_matches_single_predictions_00Bb_
FNDA:0,_RNCNCNvNtNtNtCs1xmhvdYWKG8_9neuralnet3cnn10classifier5testss_67cnn_classifier_coalescing_scheduler_matches_single_prediction_orders0_00Bb_
FNDA:0,_RNCNCNvNtNtNtCs1xmhvdYWKG8_9neuralnet3cnn10classifier5testss_67cnn_classifier_coalescing_scheduler_matches_single_prediction_orders2_00Bb_
FNDA:0,_RNCNCNvNtNtNtCs1xmhvdYWKG8_9neuralnet3cnn10classifier5testss_67cnn_classifier_coalescing_scheduler_matches_single_prediction_orders_00Bb_
FNDA:0,_RNCNvNtNtNtCs1xmhvdYWKG8_9neuralnet3cnn10classifier5testss_39cnn_classifier_rejects_non_square_image0B9_
FNDA:0,_RNCNvNtNtNtCs1xmhvdYWKG8_9neuralnet3cnn10classifier5testss_52cnn_classifier_coalescing_predictor_flushes_when_due0B9_
FNDA:0,_RNCNvNtNtNtCs1xmhvdYWKG8_9neuralnet3cnn10classifier5testss_52cnn_classifier_coalescing_predictor_flushes_when_dues0_0B9_
FNDA:0,_RNCNvNtNtNtCs1xmhvdYWKG8_9neuralnet3cnn10classifier5testss_52cnn_classifier_coalescing_predictor_flushes_when_dues1_0B9_
FNDA:0,_RNCNvNtNtNtCs1xmhvdYWKG8_9neuralnet3cnn10classifier5testss_52cnn_classifier_coalescing_predictor_flushes_when_dues2_0B9_
FNDA:0,_RNCNvNtNtNtCs1xmhvdYWKG8_9neuralnet3cnn10classifier5testss_52cnn_classifier_coalescing_predictor_flushes_when_dues_0B9_
FNDA:0,_RNCNvNtNtNtCs1xmhvdYWKG8_9neuralnet3cnn10classifier5testss_53cnn_classifier_supports_non_3x3_kernel_initialization0B9_
FNDA:0,_RNCNvNtNtNtCs1xmhvdYWKG8_9neuralnet3cnn10classifier5testss_53cnn_classifier_supports_non_3x3_kernel_initializations_0B9_
FNDA:0,_RNCNvNtNtNtCs1xmhvdYWKG8_9neuralnet3cnn10classifier5testss_53cnn_classifier_trains_and_predicts_on_simple_patterns0B9_
FNDA:0,_RNCNvNtNtNtCs1xmhvdYWKG8_9neuralnet3cnn10classifier5testss_53cnn_classifier_trains_and_predicts_on_simple_patternss0_0B9_
FNDA:0,_RNCNvNtNtNtCs1xmhvdYWKG8_9neuralnet3cnn10classifier5testss_53cnn_classifier_trains_and_predicts_on_simple_patternss_0B9_
FNDA:0,_RNCNvNtNtNtCs1xmhvdYWKG8_9neuralnet3cnn10classifier5testss_56cnn_classifier_snapshot_round_trip_preserves_predictions0B9_
FNDA:0,_RNCNvNtNtNtCs1xmhvdYWKG8_9neuralnet3cnn10classifier5testss_56cnn_classifier_snapshot_round_trip_preserves_predictionss1_0B9_
FNDA:0,_RNCNvNtNtNtCs1xmhvdYWKG8_9neuralnet3cnn10classifier5testss_56cnn_classifier_snapshot_round_trip_preserves_predictionss3_0B9_
FNDA:0,_RNCNvNtNtNtCs1xmhvdYWKG8_9neuralnet3cnn10classifier5testss_56cnn_classifier_snapshot_round_trip_preserves_predictionss4_0B9_
FNDA:0,_RNCNvNtNtNtCs1xmhvdYWKG8_9neuralnet3cnn10classifier5testss_56cnn_classifier_snapshot_round_trip_preserves_predictionss6_0B9_
FNDA:0,_RNCNvNtNtNtCs1xmhvdYWKG8_9neuralnet3cnn10classifier5testss_56cnn_classifier_snapshot_round_trip_preserves_predictionss_0B9_
FNDA:0,_RNCNvNtNtNtCs1xmhvdYWKG8_9neuralnet3cnn10classifier5testss_57cnn_classifier_batch_prediction_matches_single_prediction0B9_
FNDA:0,_RNCNvNtNtNtCs1xmhvdYWKG8_9neuralnet3cnn10classifier5testss_57cnn_classifier_batch_prediction_matches_single_predictions0_0B9_
FNDA:4,_RNCNvNtNtNtCs1xmhvdYWKG8_9neuralnet3cnn10classifier5testss_57cnn_classifier_batch_prediction_matches_single_predictions_0B9_
FNDA:0,_RNCNvNtNtNtCs1xmhvdYWKG8_9neuralnet3cnn10classifier5testss_57cnn_classifier_coalescing_predictor_flushes_by_queue_size0B9_
FNDA:0,_RNCNvNtNtNtCs1xmhvdYWKG8_9neuralnet3cnn10classifier5testss_57cnn_classifier_coalescing_predictor_flushes_by_queue_sizes0_0B9_
FNDA:0,_RNCNvNtNtNtCs1xmhvdYWKG8_9neuralnet3cnn10classifier5testss_57cnn_classifier_coalescing_predictor_flushes_by_queue_sizes1_0B9_
FNDA:0,_RNCNvNtNtNtCs1xmhvdYWKG8_9neuralnet3cnn10classifier5testss_57cnn_classifier_coalescing_predictor_flushes_by_queue_sizes2_0B9_
FNDA:0,_RNCNvNtNtNtCs1xmhvdYWKG8_9neuralnet3cnn10classifier5testss_57cnn_classifier_coalescing_predictor_flushes_by_queue_sizes_0B9_
FNDA:0,_RNCNvNtNtNtCs1xmhvdYWKG8_9neuralnet3cnn10classifier5testss_59cnn_classifier_batch_prediction_report_has_expected_metrics0B9_
FNDA:0,_RNCNvNtNtNtCs1xmhvdYWKG8_9neuralnet3cnn10classifier5testss_59cnn_classifier_batch_prediction_report_has_expected_metricss_0B9_
FNDA:0,_RNCNvNtNtNtCs1xmhvdYWKG8_9neuralnet3cnn10classifier5testss_61cnn_classifier_inference_path_matches_cached_forward_features0B9_
FNDA:0,_RNCNvNtNtNtCs1xmhvdYWKG8_9neuralnet3cnn10classifier5testss_61cnn_classifier_inference_path_matches_cached_forward_featuress0_0B9_
FNDA:0,_RNCNvNtNtNtCs1xmhvdYWKG8_9neuralnet3cnn10classifier5testss_61cnn_classifier_inference_path_matches_cached_forward_featuress_0B9_
FNDA:0,_RNCNvNtNtNtCs1xmhvdYWKG8_9neuralnet3cnn10classifier5testss_63cnn_classifier_two_layer_trains_and_predicts_on_simple_patterns0B9_
FNDA:0,_RNCNvNtNtNtCs1xmhvdYWKG8_9neuralnet3cnn10classifier5testss_63cnn_classifier_two_layer_trains_and_predicts_on_simple_patternss0_0B9_
FNDA:0,_RNCNvNtNtNtCs1xmhvdYWKG8_9neuralnet3cnn10classifier5testss_63cnn_classifier_two_layer_trains_and_predicts_on_simple_patternss_0B9_
FNDA:0,_RNCNvNtNtNtCs1xmhvdYWKG8_9neuralnet3cnn10classifier5testss_66cnn_classifier_coalescing_scheduler_flush_unblocks_pending_request0B9_
FNDA:0,_RNCNvNtNtNtCs1xmhvdYWKG8_9neuralnet3cnn10classifier5testss_66cnn_classifier_coalescing_scheduler_flush_unblocks_pending_requests0_0B9_
FNDA:0,_RNCNvNtNtNtCs1xmhvdYWKG8_9neuralnet3cnn10classifier5testss_66cnn_classifier_coalescing_scheduler_flush_unblocks_pending_requests1_0B9_
FNDA:0,_RNCNvNtNtNtCs1xmhvdYWKG8_9neuralnet3cnn10classifier5testss_66cnn_classifier_coalescing_scheduler_flush_unblocks_pending_requests2_0B9_
FNDA:0,_RNCNvNtNtNtCs1xmhvdYWKG8_9neuralnet3cnn10classifier5testss_66cnn_classifier_coalescing_scheduler_flush_unblocks_pending_requests_0B9_
FNDA:0,_RNCNvNtNtNtCs1xmhvdYWKG8_9neuralnet3cnn10classifier5testss_67cnn_classifier_coalescing_scheduler_matches_single_prediction_order0B9_
FNDA:4,_RNCNvNtNtNtCs1xmhvdYWKG8_9neuralnet3cnn10classifier5testss_67cnn_classifier_coalescing_scheduler_matches_single_prediction_orders0_0B9_
FNDA:0,_RNCNvNtNtNtCs1xmhvdYWKG8_9neuralnet3cnn10classifier5testss_67cnn_classifier_coalescing_scheduler_matches_single_prediction_orders1_0B9_
FNDA:4,_RNCNvNtNtNtCs1xmhvdYWKG8_9neuralnet3cnn10classifier5testss_67cnn_classifier_coalescing_scheduler_matches_single_prediction_orders2_0B9_
FNDA:0,_RNCNvNtNtNtCs1xmhvdYWKG8_9neuralnet3cnn10classifier5testss_67cnn_classifier_coalescing_scheduler_matches_single_prediction_orders3_0B9_
FNDA:4,_RNCNvNtNtNtCs1xmhvdYWKG8_9neuralnet3cnn10classifier5testss_67cnn_classifier_coalescing_scheduler_matches_single_prediction_orders_0B9_
FNDA:0,_RNCNvNtNtNtCs1xmhvdYWKG8_9neuralnet3cnn10classifier5testss_76cnn_classifier_supports_rgb_square_images_when_configured_for_three_channels0B9_
FNDA:64,_RNCNvNtNtNtCs1xmhvdYWKG8_9neuralnet3cnn10classifier5testss_76cnn_classifier_supports_rgb_square_images_when_configured_for_three_channelss0_0B9_
FNDA:0,_RNCNvNtNtNtCs1xmhvdYWKG8_9neuralnet3cnn10classifier5testss_76cnn_classifier_supports_rgb_square_images_when_configured_for_three_channelss1_0B9_
FNDA:0,_RNCNvNtNtNtCs1xmhvdYWKG8_9neuralnet3cnn10classifier5testss_76cnn_classifier_supports_rgb_square_images_when_configured_for_three_channelss2_0B9_
FNDA:64,_RNCNvNtNtNtCs1xmhvdYWKG8_9neuralnet3cnn10classifier5testss_76cnn_classifier_supports_rgb_square_images_when_configured_for_three_channelss_0B9_
FNDA:3,_RNvNtNtNtCs1xmhvdYWKG8_9neuralnet3cnn10classifier5tests19classifier_test_dir
FNDA:12,_RNvNtNtNtCs1xmhvdYWKG8_9neuralnet3cnn10classifier5tests26vertical_stripes_image_8x8
FNDA:2,_RNvNtNtNtCs1xmhvdYWKG8_9neuralnet3cnn10classifier5tests27cleanup_classifier_test_dir
FNDA:10,_RNvNtNtNtCs1xmhvdYWKG8_9neuralnet3cnn10classifier5tests28horizontal_stripes_image_8x8
FNDA:1,_RNvNtNtNtCs1xmhvdYWKG8_9neuralnet3cnn10classifier5testss_39cnn_classifier_rejects_non_square_image
FNDA:1,_RNvNtNtNtCs1xmhvdYWKG8_9neuralnet3cnn10classifier5testss_52cnn_classifier_coalescing_predictor_flushes_when_due
FNDA:1,_RNvNtNtNtCs1xmhvdYWKG8_9neuralnet3cnn10classifier5testss_53cnn_classifier_supports_non_3x3_kernel_initialization
FNDA:1,_RNvNtNtNtCs1xmhvdYWKG8_9neuralnet3cnn10classifier5testss_53cnn_classifier_trains_and_predicts_on_simple_patterns
FNDA:1,_RNvNtNtNtCs1xmhvdYWKG8_9neuralnet3cnn10classifier5testss_56cnn_classifier_snapshot_round_trip_preserves_predictions
FNDA:1,_RNvNtNtNtCs1xmhvdYWKG8_9neuralnet3cnn10classifier5testss_57cnn_classifier_batch_prediction_matches_single_prediction
FNDA:1,_RNvNtNtNtCs1xmhvdYWKG8_9neuralnet3cnn10classifier5testss_57cnn_classifier_coalescing_predictor_flushes_by_queue_size
FNDA:1,_RNvNtNtNtCs1xmhvdYWKG8_9neuralnet3cnn10classifier5testss_59cnn_classifier_batch_prediction_report_has_expected_metrics
FNDA:1,_RNvNtNtNtCs1xmhvdYWKG8_9neuralnet3cnn10classifier5testss_61cnn_classifier_inference_path_matches_cached_forward_features
FNDA:1,_RNvNtNtNtCs1xmhvdYWKG8_9neuralnet3cnn10classifier5testss_63cnn_classifier_two_layer_trains_and_predicts_on_simple_patterns
FNDA:1,_RNvNtNtNtCs1xmhvdYWKG8_9neuralnet3cnn10classifier5testss_66cnn_classifier_coalescing_scheduler_flush_unblocks_pending_request
FNDA:1,_RNvNtNtNtCs1xmhvdYWKG8_9neuralnet3cnn10classifier5testss_67cnn_classifier_coalescing_scheduler_matches_single_prediction_order
FNDA:1,_RNvNtNtNtCs1xmhvdYWKG8_9neuralnet3cnn10classifier5testss_76cnn_classifier_supports_rgb_square_images_when_configured_for_three_channels
FNF:191
FNH:102
DA:35,63
DA:36,63
DA:37,1
DA:38,1
DA:39,1
DA:40,0
DA:41,0
DA:42,0
DA:43,0
DA:44,0
DA:45,0
DA:46,0
DA:47,1
DA:48,1
DA:49,63
DA:76,0
DA:77,0
DA:78,0
DA:79,0
DA:81,0
DA:82,0
DA:86,0
DA:87,0
DA:91,0
DA:92,0
DA:93,0
DA:97,0
DA:98,0
DA:102,0
DA:103,0
DA:104,0
DA:106,0
DA:112,0
DA:113,0
DA:114,0
DA:118,0
DA:119,0
DA:120,0
DA:124,0
DA:125,0
DA:126,0
DA:171,0
DA:172,0
DA:173,0
DA:174,0
DA:175,0
DA:176,0
DA:177,0
DA:178,0
DA:179,0
DA:180,0
DA:181,0
DA:182,0
DA:183,0
DA:184,0
DA:212,1
DA:213,1
DA:214,1
DA:215,1
DA:216,1
DA:217,1
DA:271,0
DA:272,0
DA:273,0
DA:274,0
DA:275,0
DA:276,0
DA:277,0
DA:278,0
DA:306,5
DA:307,5
DA:308,0
DA:309,0
DA:310,0
DA:311,0
DA:312,5
DA:324,5
DA:325,5
DA:326,5
DA:327,5
DA:328,5
DA:329,0
DA:330,0
DA:331,0
DA:332,5
DA:334,5
DA:335,5
DA:337,5
DA:338,0
DA:339,0
DA:340,5
DA:342,5
DA:343,5
DA:344,5
DA:346,0
DA:347,0
DA:348,0
DA:349,0
DA:351,0
DA:352,0
DA:353,0
DA:354,0
DA:355,0
DA:356,0
DA:358,4
DA:359,4
DA:360,0
DA:361,4
DA:363,4
DA:364,4
DA:365,4
DA:366,4
DA:368,2
DA:369,2
DA:370,2
DA:371,2
DA:372,2
DA:378,2
DA:379,2
DA:380,0
DA:381,0
DA:382,0
DA:383,2
DA:384,2
DA:388,9
DA:389,9
DA:390,9
DA:391,9
DA:392,9
DA:393,5
DA:394,5
DA:395,5
DA:397,9
DA:399,0
DA:400,0
DA:401,0
DA:402,0
DA:403,0
DA:404,0
DA:405,0
DA:406,0
DA:407,0
DA:411,4
DA:412,4
DA:413,4
DA:414,4
DA:415,4
DA:416,4
DA:417,4
DA:418,4
DA:419,4
DA:420,4
DA:421,4
DA:422,4
DA:423,4
DA:424,4
DA:425,4
DA:427,0
DA:428,0
DA:429,0
DA:430,0
DA:431,0
DA:432,0
DA:433,0
DA:434,0
DA:435,0
DA:436,0
DA:437,0
DA:438,0
DA:439,0
DA:440,0
DA:441,0
DA:442,0
DA:443,0
DA:444,0
DA:445,0
DA:447,9
DA:448,9
DA:449,4
DA:450,5
DA:452,9
DA:454,9
DA:455,9
DA:456,1
DA:457,8
DA:459,9
DA:460,9
DA:462,1
DA:464,1
DA:465,0
DA:466,1
DA:468,1
DA:469,1
DA:470,1
DA:472,1
DA:473,1
DA:474,0
DA:476,0
DA:477,1
DA:479,7
DA:481,7
DA:482,3
DA:483,4
DA:485,4
DA:486,0
DA:487,0
DA:488,0
DA:489,0
DA:490,0
DA:491,0
DA:492,0
DA:493,0
DA:494,0
DA:495,0
DA:497,4
DA:498,4
DA:499,4
DA:500,4
DA:501,4
DA:502,4
DA:503,0
DA:506,4
DA:507,4
DA:508,4
DA:509,4
DA:510,4
DA:511,4
DA:513,4
DA:514,4
DA:515,4
DA:517,7
DA:519,10
DA:520,10
DA:521,10
DA:523,2
DA:524,2
DA:525,2
DA:527,1
DA:529,1
DA:531,1
DA:532,1
DA:534,0
DA:537,1
DA:538,1
DA:539,1
DA:540,1
DA:541,1
DA:542,1
DA:543,1
DA:544,1
DA:545,1
DA:546,1
DA:548,1
DA:554,2
DA:555,2
DA:556,2
DA:557,2
DA:558,2
DA:559,2
DA:561,0
DA:562,0
DA:563,0
DA:564,0
DA:565,0
DA:566,0
DA:567,0
DA:569,2
DA:570,2
DA:571,2
DA:572,2
DA:573,2
DA:574,2
DA:575,2
DA:576,2
DA:577,2
DA:578,2
DA:580,0
DA:581,0
DA:582,0
DA:583,0
DA:584,0
DA:585,0
DA:586,0
DA:587,0
DA:588,0
DA:589,0
DA:590,0
DA:592,12
DA:593,12
DA:594,12
DA:595,12
DA:596,12
DA:597,12
DA:598,12
DA:599,12
DA:600,12
DA:601,12
DA:602,12
DA:603,12
DA:605,12
DA:607,1
DA:608,1
DA:609,1
DA:610,1
DA:611,1
DA:612,1
DA:613,1
DA:614,1
DA:615,1
DA:616,1
DA:617,1
DA:618,1
DA:619,1
DA:621,1
DA:622,1
DA:623,1
DA:624,1
DA:626,1
DA:628,3
DA:629,3
DA:630,3
DA:631,3
DA:632,3
DA:633,3
DA:634,3
DA:635,3
DA:636,3
DA:637,3
DA:638,3
DA:639,3
DA:640,3
DA:641,3
DA:643,3
DA:645,15
DA:646,15
DA:647,15
DA:648,15
DA:649,15
DA:650,15
DA:651,15
DA:652,15
DA:653,15
DA:654,15
DA:655,15
DA:657,15
DA:658,15
DA:660,15
DA:662,16
DA:663,16
DA:664,16
DA:665,16
DA:666,16
DA:667,16
DA:668,16
DA:669,16
DA:670,16
DA:671,16
DA:672,16
DA:673,16
DA:674,16
DA:675,16
DA:678,16
DA:680,16
DA:683,17
DA:684,17
DA:685,17
DA:686,17
DA:687,17
DA:688,17
DA:689,17
DA:690,17
DA:691,17
DA:692,17
DA:694,17
DA:695,0
DA:696,0
DA:697,0
DA:698,17
DA:700,17
DA:701,0
DA:702,0
DA:703,0
DA:704,17
DA:706,17
DA:707,0
DA:708,0
DA:709,0
DA:710,17
DA:712,17
DA:713,0
DA:714,0
DA:715,0
DA:716,17
DA:718,17
DA:719,0
DA:720,0
DA:721,0
DA:722,17
DA:724,17
DA:725,17
DA:727,34
DA:729,34
DA:730,34
DA:731,0
DA:732,34
DA:733,34
DA:734,0
DA:735,34
DA:737,34
DA:738,34
DA:739,34
DA:743,17
DA:744,0
DA:745,0
DA:746,0
DA:747,17
DA:749,17
DA:750,17
DA:751,20
DA:752,20
DA:753,20
DA:754,20
DA:755,20
DA:756,20
DA:757,20
DA:758,0
DA:759,20
DA:760,20
DA:761,20
DA:764,17
DA:766,17
DA:768,17
DA:769,17
DA:770,17
DA:771,17
DA:772,17
DA:773,17
DA:774,17
DA:775,17
DA:776,17
DA:777,17
DA:778,17
DA:780,17
DA:782,0
DA:783,0
DA:784,0
DA:786,12
DA:787,12
DA:788,12
DA:790,0
DA:791,0
DA:792,0
DA:794,0
DA:795,0
DA:796,0
DA:798,0
DA:799,0
DA:800,0
DA:802,0
DA:803,0
DA:804,0
DA:806,0
DA:807,0
DA:808,0
DA:810,1
DA:811,1
DA:812,1
DA:813,1
DA:815,1
DA:816,1
DA:818,2
DA:819,2
DA:820,2
DA:821,2
DA:824,1
DA:825,1
DA:827,913
DA:828,913
DA:829,913
DA:830,913
DA:832,913
DA:833,913
DA:834,913
DA:836,1153
DA:837,1153
DA:838,1153
DA:839,1153
DA:840,1153
DA:841,1153
DA:844,913
DA:845,913
DA:847,32
DA:848,32
DA:849,32
DA:850,32
DA:852,32
DA:854,39
DA:855,39
DA:858,32
DA:859,32
DA:861,913
DA:862,1153
DA:863,1153
DA:864,1153
DA:865,913
DA:868,0
DA:869,0
DA:870,0
DA:872,26
DA:873,26
DA:874,26
DA:876,27
DA:877,27
DA:878,27
DA:879,27
DA:880,27
DA:881,27
DA:882,27
DA:883,27
DA:884,2
DA:886,25
DA:887,0
DA:888,0
DA:889,0
DA:890,0
DA:891,25
DA:893,25
DA:894,25
DA:895,25
DA:896,25
DA:897,25
DA:898,25
DA:899,25
DA:901,0
DA:902,25
DA:903,25
DA:904,25
DA:905,25
DA:906,27
DA:908,1
DA:909,1
DA:910,1
DA:911,1
DA:912,1
DA:913,1
DA:914,1
DA:915,1
DA:916,0
DA:918,1
DA:919,0
DA:920,0
DA:921,0
DA:922,0
DA:923,1
DA:925,1
DA:926,1
DA:927,1
DA:928,1
DA:929,1
DA:930,1
DA:931,1
DA:933,0
DA:935,1
DA:936,1
DA:938,851
DA:939,851
DA:940,851
DA:941,851
DA:942,851
DA:943,851
DA:944,851
DA:945,851
DA:946,0
DA:948,851
DA:949,0
DA:950,0
DA:951,0
DA:952,0
DA:953,851
DA:955,851
DA:956,851
DA:957,851
DA:958,851
DA:959,851
DA:960,851
DA:961,851
DA:963,0
DA:965,851
DA:966,851
DA:968,0
DA:969,0
DA:970,0
DA:971,0
DA:972,0
DA:973,0
DA:974,0
DA:975,0
DA:976,0
DA:977,0
DA:978,0
DA:979,0
DA:980,0
DA:982,0
DA:983,0
DA:984,0
DA:985,0
DA:986,0
DA:987,0
DA:988,0
DA:990,0
DA:991,0
DA:992,0
DA:993,0
DA:994,0
DA:995,0
DA:997,1
DA:998,1
DA:999,1
DA:1000,1
DA:1002,1
DA:1003,1
DA:1004,1
DA:1005,1
DA:1006,1
DA:1008,0
DA:1009,0
DA:1010,0
DA:1011,1
DA:1013,1
DA:1014,1
DA:1015,1
DA:1017,1
DA:1018,1
DA:1019,1
DA:1020,1
DA:1021,1
DA:1023,851
DA:1024,851
DA:1025,851
DA:1026,851
DA:1028,851
DA:1029,851
DA:1030,851
DA:1031,851
DA:1032,851
DA:1034,0
DA:1035,0
DA:1036,0
DA:1037,851
DA:1039,851
DA:1040,851
DA:1041,851
DA:1042,851
DA:1043,851
DA:1045,851
DA:1046,851
DA:1047,851
DA:1048,851
DA:1049,851
DA:1050,851
DA:1052,0
DA:1053,0
DA:1054,0
DA:1055,0
DA:1056,0
DA:1057,0
DA:1058,0
DA:1059,0
DA:1060,0
DA:1062,0
DA:1063,0
DA:1064,0
DA:1065,0
DA:1067,0
DA:1069,0
DA:1070,0
DA:1072,0
DA:1073,0
DA:1074,0
DA:1075,0
DA:1077,0
DA:1079,62
DA:1080,62
DA:1081,62
DA:1082,62
DA:1083,62
DA:1084,62
DA:1085,62
DA:1086,62
DA:1087,62
DA:1089,0
DA:1090,0
DA:1091,0
DA:1092,62
DA:1094,62
DA:1096,62
DA:1097,62
DA:1098,62
DA:1099,62
DA:1101,62
DA:1102,62
DA:1103,62
DA:1104,62
DA:1105,62
DA:1107,62
DA:1109,7
DA:1110,7
DA:1111,7
DA:1112,7
DA:1113,7
DA:1114,7
DA:1115,7
DA:1116,7
DA:1117,7
DA:1119,0
DA:1120,0
DA:1121,0
DA:1122,7
DA:1124,7
DA:1126,7
DA:1127,7
DA:1128,7
DA:1130,851
DA:1131,851
DA:1132,851
DA:1133,851
DA:1135,851
DA:1137,851
DA:1138,851
DA:1139,851
DA:1140,851
DA:1141,851
DA:1142,851
DA:1143,851
DA:1144,851
DA:1145,851
DA:1146,0
DA:1149,851
DA:1150,851
DA:1151,851
DA:1153,851
DA:1154,851
DA:1155,851
DA:1156,851
DA:1157,851
DA:1159,851
DA:1160,851
DA:1161,851
DA:1162,851
DA:1164,0
DA:1165,851
DA:1167,851
DA:1169,851
DA:1170,851
DA:1171,851
DA:1172,851
DA:1173,851
DA:1174,851
DA:1175,851
DA:1176,851
DA:1177,851
DA:1178,851
DA:1179,851
DA:1180,851
DA:1182,851
DA:1184,0
DA:1185,0
DA:1186,0
DA:1187,0
DA:1188,0
DA:1189,0
DA:1190,0
DA:1191,0
DA:1192,0
DA:1193,0
DA:1194,0
DA:1195,0
DA:1197,0
DA:1198,0
DA:1199,0
DA:1200,0
DA:1201,0
DA:1202,0
DA:1203,0
DA:1204,0
DA:1205,0
DA:1206,0
DA:1207,0
DA:1208,0
DA:1209,0
DA:1212,0
DA:1213,0
DA:1214,0
DA:1215,0
DA:1216,0
DA:1217,0
DA:1219,0
DA:1220,0
DA:1221,0
DA:1222,0
DA:1223,0
DA:1224,0
DA:1225,0
DA:1226,0
DA:1228,0
DA:1229,0
DA:1231,0
DA:1232,0
DA:1233,0
DA:1235,0
DA:1236,0
DA:1237,0
DA:1238,0
DA:1239,0
DA:1241,0
DA:1242,0
DA:1243,0
DA:1244,0
DA:1246,0
DA:1247,0
DA:1249,0
DA:1251,0
DA:1252,0
DA:1253,0
DA:1254,0
DA:1255,0
DA:1256,0
DA:1257,0
DA:1258,0
DA:1259,0
DA:1260,0
DA:1261,0
DA:1262,0
DA:1263,0
DA:1265,62
DA:1266,62
DA:1267,62
DA:1268,62
DA:1269,62
DA:1270,62
DA:1271,62
DA:1272,62
DA:1274,62
DA:1276,62
DA:1277,62
DA:1278,62
DA:1279,62
DA:1280,62
DA:1281,62
DA:1283,62
DA:1284,0
DA:1285,0
DA:1286,0
DA:1287,62
DA:1289,62
DA:1290,62
DA:1291,62
DA:1292,0
DA:1295,62
DA:1296,62
DA:1297,62
DA:1298,62
DA:1299,62
DA:1301,62
DA:1302,62
DA:1303,62
DA:1304,62
DA:1305,62
DA:1306,124
DA:1307,124
DA:1308,124
DA:1309,124
DA:1310,62
DA:1311,62
DA:1313,0
DA:1315,62
DA:1317,62
DA:1318,62
DA:1319,62
DA:1320,62
DA:1321,62
DA:1322,62
DA:1323,62
DA:1324,62
DA:1325,62
DA:1326,62
DA:1327,62
DA:1328,62
DA:1330,0
DA:1331,62
DA:1333,62
DA:1334,62
DA:1335,62
DA:1336,62
DA:1337,62
DA:1338,62
DA:1340,0
DA:1341,0
DA:1342,0
DA:1343,0
DA:1344,0
DA:1345,0
DA:1346,0
DA:1350,0
DA:1351,0
DA:1352,0
DA:1353,0
DA:1354,0
DA:1355,0
DA:1356,0
DA:1359,62
DA:1361,62
DA:1362,62
DA:1363,62
DA:1364,62
DA:1365,62
DA:1366,62
DA:1368,62
DA:1370,62
DA:1371,62
DA:1372,62
DA:1374,62
DA:1375,62
DA:1376,62
DA:1377,62
DA:1378,62
DA:1379,62
DA:1381,0
DA:1382,62
DA:1383,62
DA:1384,62
DA:1385,62
DA:1386,62
DA:1387,62
DA:1388,62
DA:1389,62
DA:1391,0
DA:1392,0
DA:1393,0
DA:1394,0
DA:1395,0
DA:1396,0
DA:1397,0
DA:1398,0
DA:1399,0
DA:1400,0
DA:1401,0
DA:1402,0
DA:1403,0
DA:1404,0
DA:1407,62
DA:1409,62
DA:1411,62
DA:1412,62
DA:1413,62
DA:1414,62
DA:1415,62
DA:1416,62
DA:1417,62
DA:1418,62
DA:1419,62
DA:1420,62
DA:1421,62
DA:1422,62
DA:1424,62
DA:1426,0
DA:1427,0
DA:1428,0
DA:1429,0
DA:1430,0
DA:1431,0
DA:1432,0
DA:1433,0
DA:1434,0
DA:1435,0
DA:1437,0
DA:1438,0
DA:1439,0
DA:1440,0
DA:1441,0
DA:1442,0
DA:1443,0
DA:1445,0
DA:1446,0
DA:1447,0
DA:1448,0
DA:1449,0
DA:1451,0
DA:1452,0
DA:1453,0
DA:1454,0
DA:1457,0
DA:1458,0
DA:1459,0
DA:1460,0
DA:1461,0
DA:1462,0
DA:1464,0
DA:1465,0
DA:1466,0
DA:1467,0
DA:1468,0
DA:1469,0
DA:1470,0
DA:1471,0
DA:1473,0
DA:1474,0
DA:1476,0
DA:1477,0
DA:1478,0
DA:1480,0
DA:1481,0
DA:1482,0
DA:1483,0
DA:1484,0
DA:1485,0
DA:1487,0
DA:1489,0
DA:1490,0
DA:1491,0
DA:1493,0
DA:1494,0
DA:1495,0
DA:1496,0
DA:1497,0
DA:1499,0
DA:1500,0
DA:1502,0
DA:1504,0
DA:1505,0
DA:1506,0
DA:1507,0
DA:1508,0
DA:1509,0
DA:1510,0
DA:1511,0
DA:1512,0
DA:1513,0
DA:1514,0
DA:1515,0
DA:1516,0
DA:1518,24
DA:1519,24
DA:1520,24
DA:1521,24
DA:1522,24
DA:1523,23
DA:1524,24
DA:1526,0
DA:1527,0
DA:1528,0
DA:1529,0
DA:1530,0
DA:1531,0
DA:1532,0
DA:1533,0
DA:1534,0
DA:1535,0
DA:1537,1
DA:1538,1
DA:1539,1
DA:1540,1
DA:1541,1
DA:1542,1
DA:1543,1
DA:1545,6
DA:1546,6
DA:1547,6
DA:1548,6
DA:1549,6
DA:1550,6
DA:1551,0
DA:1552,0
DA:1553,0
DA:1554,0
DA:1555,0
DA:1556,0
DA:1557,0
DA:1558,0
DA:1559,0
DA:1560,0
DA:1561,6
DA:1563,6
DA:1564,6
DA:1565,6
DA:1566,6
DA:1567,6
DA:1568,6
DA:1570,7
DA:1571,7
DA:1573,7
DA:1574,7
DA:1575,7
DA:1576,7
DA:1577,7
DA:1578,17
DA:1579,17
DA:1580,17
DA:1581,17
DA:1582,7
DA:1583,7
DA:1585,0
DA:1587,7
DA:1589,7
DA:1590,7
DA:1592,7
DA:1593,7
DA:1594,7
DA:1595,7
DA:1596,7
DA:1597,7
DA:1598,7
DA:1599,7
DA:1601,0
DA:1602,7
DA:1604,7
DA:1605,7
DA:1606,17
DA:1607,17
DA:1609,7
DA:1610,7
DA:1611,0
DA:1613,0
DA:1614,0
DA:1615,0
DA:1616,0
DA:1617,0
DA:1621,6
DA:1622,6
DA:1623,6
DA:1624,6
DA:1625,6
DA:1626,6
DA:1627,6
DA:1628,6
DA:1629,6
DA:1630,6
DA:1631,6
DA:1632,6
DA:1634,0
DA:1635,0
DA:1636,0
DA:1637,0
DA:1638,0
DA:1639,0
DA:1640,0
DA:1641,0
DA:1642,0
DA:1643,0
DA:1644,0
DA:1645,0
DA:1646,0
DA:1647,0
DA:1648,0
DA:1649,0
DA:1650,0
DA:1651,0
DA:1652,0
DA:1653,0
DA:1655,0
DA:1656,0
DA:1657,0
DA:1658,0
DA:1659,0
DA:1660,0
DA:1662,0
DA:1663,0
DA:1664,0
DA:1665,0
DA:1666,0
DA:1667,0
DA:1669,0
DA:1670,0
DA:1672,0
DA:1673,0
DA:1674,0
DA:1675,0
DA:1676,0
DA:1677,0
DA:1678,0
DA:1679,0
DA:1680,0
DA:1682,0
DA:1683,0
DA:1685,0
DA:1686,0
DA:1687,0
DA:1688,0
DA:1690,0
DA:1691,0
DA:1692,0
DA:1694,0
DA:1695,0
DA:1696,0
DA:1697,0
DA:1698,0
DA:1702,0
DA:1703,0
DA:1704,0
DA:1705,0
DA:1706,0
DA:1707,0
DA:1708,0
DA:1709,0
DA:1710,0
DA:1711,0
DA:1712,0
DA:1713,0
DA:1715,0
DA:1716,0
DA:1717,0
DA:1718,0
DA:1719,0
DA:1720,0
DA:1721,0
DA:1722,0
DA:1723,0
DA:1724,0
DA:1725,0
DA:1726,0
DA:1727,0
DA:1728,0
DA:1729,0
DA:1730,0
DA:1732,40
DA:1733,40
DA:1734,40
DA:1735,40
DA:1736,40
DA:1738,40
DA:1739,40
DA:1740,80
DA:1741,80
DA:1742,60
DA:1743,60
DA:1744,60
DA:1747,40
DA:1748,1
DA:1749,39
DA:1751,39
DA:1752,39
DA:1753,39
DA:1754,39
DA:1755,39
DA:1756,39
DA:1757,39
DA:1759,39
DA:1760,40
DA:1762,1
DA:1764,1
DA:1765,2
DA:1766,2
DA:1767,2
DA:1769,1
DA:1770,1
DA:1772,1
DA:1773,0
DA:1775,1
DA:1776,1
DA:1777,1
DA:1778,1
DA:1779,1
DA:1780,1
DA:1781,2
DA:1782,2
DA:1783,1
DA:1784,1
DA:1785,1
DA:1788,1
DA:1789,0
DA:1790,0
DA:1791,0
DA:1793,0
DA:1796,0
DA:1798,1
DA:1799,1
DA:1800,1
DA:1802,1
DA:1804,1
DA:1805,1
DA:1806,1
DA:1809,1
DA:1810,1
DA:1812,1
DA:1814,1
DA:1816,1
DA:1818,1
DA:1820,1
DA:1821,1
DA:1823,0
DA:1824,0
DA:1825,0
DA:1826,0
DA:1827,0
DA:1828,0
DA:1829,0
DA:1830,1
DA:1832,1
DA:1834,1
DA:1835,1
DA:1837,0
DA:1838,0
DA:1839,0
DA:1840,0
DA:1841,0
DA:1843,0
DA:1846,0
DA:1847,0
DA:1851,1
DA:1852,0
DA:1853,0
DA:1854,0
DA:1855,0
DA:1856,0
DA:1857,0
DA:1858,0
DA:1859,1
DA:1861,1
DA:1862,0
DA:1863,0
DA:1864,0
DA:1865,0
DA:1866,0
DA:1867,0
DA:1868,0
DA:1869,1
DA:1871,1
DA:1872,0
DA:1873,0
DA:1874,0
DA:1875,0
DA:1876,0
DA:1877,0
DA:1878,0
DA:1879,1
DA:1881,1
DA:1882,0
DA:1883,0
DA:1884,0
DA:1885,0
DA:1886,0
DA:1887,0
DA:1888,0
DA:1889,1
DA:1891,2
DA:1892,1
DA:1893,1
DA:1894,1
DA:1895,1
DA:1897,2
DA:1898,0
DA:1899,0
DA:1900,0
DA:1901,0
DA:1902,0
DA:1903,0
DA:1904,0
DA:1905,0
DA:1906,2
DA:1909,1
DA:1910,0
DA:1911,0
DA:1912,0
DA:1913,0
DA:1914,0
DA:1915,0
DA:1916,0
DA:1917,1
DA:1919,1
DA:1920,1
DA:1921,1
DA:1922,1
DA:1923,1
DA:1924,1
DA:1926,1
DA:1927,0
DA:1928,0
DA:1929,0
DA:1930,0
DA:1931,0
DA:1932,0
DA:1933,0
DA:1934,1
DA:1937,1
DA:1938,1
DA:1939,1
DA:1940,1
DA:1941,1
DA:1942,1
DA:1943,1
DA:1944,1
DA:1945,1
DA:1946,2
DA:1947,1
DA:1948,1
DA:1949,1
DA:1950,1
DA:1953,1
DA:1955,0
DA:1956,0
DA:1957,0
DA:1958,0
DA:1959,0
DA:1960,0
DA:1961,0
DA:1962,0
DA:1963,0
DA:1965,0
DA:1966,0
DA:1967,0
DA:1968,0
DA:1969,0
DA:1970,0
DA:1971,0
DA:1972,0
DA:1973,0
DA:1974,0
DA:1976,851
DA:1977,851
DA:1978,851
DA:1979,851
DA:1980,851
DA:1981,851
DA:1983,851
DA:1984,0
DA:1985,0
DA:1986,0
DA:1987,851
DA:1989,851
DA:1991,851
DA:1992,851
DA:1993,851
DA:1994,851
DA:1995,851
DA:1996,0
DA:1997,851
DA:1999,1091
DA:2000,1091
DA:2001,1091
DA:2002,1091
DA:2003,1091
DA:2004,0
DA:2005,1091
DA:2006,1091
DA:2007,1091
DA:2008,1091
DA:2009,1091
DA:2010,0
DA:2011,1091
DA:2012,1091
DA:2013,1091
DA:2014,1091
DA:2015,1091
DA:2016,1091
DA:2017,1091
DA:2018,0
DA:2019,1091
DA:2021,1091
DA:2022,1091
DA:2023,1091
DA:2024,1091
DA:2025,1091
DA:2026,1091
DA:2027,1091
DA:2029,0
DA:2030,1091
DA:2032,1091
DA:2033,240
DA:2034,240
DA:2035,240
DA:2036,240
DA:2037,240
DA:2038,0
DA:2039,240
DA:2040,240
DA:2041,0
DA:2042,0
DA:2043,0
DA:2044,0
DA:2045,240
DA:2046,240
DA:2047,240
DA:2048,240
DA:2049,851
DA:2052,851
DA:2053,851
DA:2055,851
DA:2057,0
DA:2058,0
DA:2059,0
DA:2060,0
DA:2061,0
DA:2062,0
DA:2063,0
DA:2064,0
DA:2065,0
DA:2066,0
DA:2067,0
DA:2069,62
DA:2070,62
DA:2071,62
DA:2072,62
DA:2073,62
DA:2074,62
DA:2075,62
DA:2077,62
DA:2078,0
DA:2079,0
DA:2080,0
DA:2081,62
DA:2083,62
DA:2085,62
DA:2086,62
DA:2087,62
DA:2088,62
DA:2089,62
DA:2090,0
DA:2091,62
DA:2093,62
DA:2094,62
DA:2095,62
DA:2096,62
DA:2097,62
DA:2098,0
DA:2099,62
DA:2100,62
DA:2101,62
DA:2102,62
DA:2103,62
DA:2104,0
DA:2105,62
DA:2106,62
DA:2107,62
DA:2108,62
DA:2109,62
DA:2110,62
DA:2111,62
DA:2112,0
DA:2113,62
DA:2115,62
DA:2116,62
DA:2117,62
DA:2118,62
DA:2119,0
DA:2120,62
DA:2122,62
DA:2123,0
DA:2124,0
DA:2125,0
DA:2126,0
DA:2127,0
DA:2128,0
DA:2129,0
DA:2130,0
DA:2131,0
DA:2132,0
DA:2133,0
DA:2134,0
DA:2135,0
DA:2136,0
DA:2137,0
DA:2138,0
DA:2139,62
DA:2142,62
DA:2143,62
DA:2144,62
DA:2146,62
DA:2148,62
DA:2149,62
DA:2151,62
DA:2155,0
DA:2156,0
DA:2157,0
DA:2159,20
DA:2160,20
DA:2161,20
DA:2162,20
DA:2163,20
DA:2164,20
DA:2165,20
DA:2167,20
DA:2169,20
DA:2170,20
DA:2172,52
DA:2173,92
DA:2174,92
DA:2175,15
DA:2180,77
DA:2181,15
DA:2187,62
DA:2188,62
DA:2189,62
DA:2190,62
DA:2191,62
DA:2193,92
DA:2197,20
DA:2198,20
DA:2200,20
DA:2202,2
DA:2203,2
DA:2204,2
DA:2205,2
DA:2214,2
DA:2215,2
DA:2217,1153
DA:2218,1153
DA:2219,1153
DA:2220,1153
DA:2229,1153
DA:2230,1153
DA:2232,39
DA:2233,39
DA:2234,39
DA:2235,39
DA:2244,39
DA:2245,39
DA:2247,2
DA:2248,2
DA:2249,2
DA:2250,2
DA:2251,2
DA:2253,2
DA:2254,2
DA:2255,2
DA:2257,2
DA:2258,2
DA:2260,2
DA:2261,2
DA:2262,2
DA:2263,2
DA:2264,2
DA:2265,2
DA:2266,2
DA:2267,2
DA:2268,2
DA:2270,2
DA:2272,1153
DA:2273,1153
DA:2274,1153
DA:2275,1153
DA:2276,1153
DA:2278,1153
DA:2279,1153
DA:2280,1153
DA:2282,1153
DA:2283,1153
DA:2285,1153
DA:2286,1153
DA:2287,1153
DA:2288,1153
DA:2290,1153
DA:2291,1153
DA:2292,1153
DA:2293,1153
DA:2294,1153
DA:2295,1153
DA:2296,1153
DA:2297,1153
DA:2298,1153
DA:2299,1153
DA:2300,1153
DA:2301,1153
DA:2302,1153
DA:2303,1153
DA:2305,1153
DA:2307,39
DA:2308,39
DA:2309,39
DA:2310,39
DA:2311,39
DA:2312,39
DA:2313,39
DA:2314,39
DA:2315,39
DA:2316,39
DA:2394,0
DA:2395,0
DA:2396,0
DA:2397,0
DA:2398,0
DA:2399,0
DA:2400,0
DA:2401,0
DA:2402,0
DA:2403,0
DA:2406,0
DA:2407,0
DA:2408,0
DA:2409,0
DA:2410,0
DA:2411,0
DA:2412,0
DA:2413,0
DA:2414,0
DA:2415,0
DA:2417,851
DA:2418,851
DA:2419,851
DA:2420,851
DA:2422,851
DA:2424,851
DA:2425,0
DA:2426,0
DA:2427,0
DA:2428,0
DA:2429,851
DA:2431,851
DA:2432,851
DA:2434,2182
DA:2435,2182
DA:2436,10474
DA:2437,63718
DA:2438,63718
DA:2443,851
DA:2445,851
DA:2447,0
DA:2448,0
DA:2449,0
DA:2450,0
DA:2451,0
DA:2452,0
DA:2453,0
DA:2455,62
DA:2456,62
DA:2457,62
DA:2458,62
DA:2460,62
DA:2462,62
DA:2463,0
DA:2464,0
DA:2465,0
DA:2466,0
DA:2467,62
DA:2469,62
DA:2470,62
DA:2471,62
DA:2472,62
DA:2474,124
DA:2475,124
DA:2476,0
DA:2477,0
DA:2478,0
DA:2479,0
DA:2480,124
DA:2482,124
DA:2483,248
DA:2484,248
DA:2485,248
DA:2486,12152
DA:2487,12152
DA:2488,12152
DA:2492,62
DA:2494,62
DA:2496,0
DA:2497,0
DA:2498,0
DA:2499,0
DA:2500,0
DA:2501,0
DA:2502,0
DA:2503,0
DA:2505,0
DA:2506,0
DA:2507,0
DA:2508,0
DA:2509,0
DA:2510,0
DA:2511,0
DA:2513,0
DA:2515,0
DA:2517,0
DA:2519,1153
DA:2520,1153
DA:2521,1153
DA:2522,1153
DA:2523,1153
DA:2524,1153
DA:2526,1153
DA:2527,1153
DA:2528,1153
DA:2529,1153
DA:2530,1153
DA:2531,1153
DA:2532,1153
DA:2533,1153
DA:2534,1153
DA:2536,1153
DA:2538,1153
DA:2540,0
DA:2542,0
DA:2543,0
DA:2544,0
DA:2545,0
DA:2546,0
DA:2547,0
DA:2549,0
DA:2550,0
DA:2551,0
DA:2553,0
DA:2554,0
DA:2556,1091
DA:2557,1091
DA:2558,1091
DA:2559,1091
DA:2560,1091
DA:2561,1091
DA:2562,1091
DA:2563,1091
DA:2565,1091
DA:2566,0
DA:2567,0
DA:2568,0
DA:2569,0
DA:2570,1091
DA:2572,1091
DA:2573,0
DA:2574,0
DA:2575,0
DA:2576,0
DA:2577,1091
DA:2579,1091
DA:2580,1091
DA:2581,1091
DA:2583,3142
DA:2584,6342
DA:2585,6342
DA:2586,19026
DA:2587,57078
DA:2588,57078
DA:2589,57078
DA:2590,57078
DA:2594,3142
DA:2597,1091
DA:2599,1091
DA:2601,1194
DA:2602,1194
DA:2603,1194
DA:2604,1194
DA:2605,1194
DA:2606,1194
DA:2607,1194
DA:2609,1194
DA:2610,0
DA:2611,0
DA:2612,0
DA:2613,1194
DA:2614,1194
DA:2615,0
DA:2616,1194
DA:2618,1194
DA:2619,1194
DA:2620,0
DA:2621,0
DA:2622,0
DA:2623,1194
DA:2625,1194
DA:2626,1194
DA:2627,1194
DA:2628,1194
DA:2630,1194
DA:2631,1194
DA:2632,1194
DA:2633,1194
DA:2635,1266
DA:2636,1266
DA:2637,1266
DA:2639,3524
DA:2640,3524
DA:2641,3524
DA:2643,19706
DA:2644,19706
DA:2645,19706
DA:2647,128010
DA:2648,128010
DA:2649,128010
DA:2650,128010
DA:2652,256020
DA:2653,256020
DA:2654,256020
DA:2656,512040
DA:2657,512040
DA:2658,512040
DA:2659,512040
DA:2660,144788
DA:2661,144788
DA:2662,367252
DA:2666,128010
DA:2667,128010
DA:2668,128010
DA:2674,1194
DA:2676,1194
DA:2678,1089
DA:2680,1089
DA:2681,0
DA:2682,1089
DA:2684,1089
DA:2686,1175
DA:2687,1175
DA:2688,2
DA:2689,1173
DA:2691,1173
DA:2692,1173
DA:2694,1173
DA:2695,1087
DA:2696,86
DA:2699,2
DA:2700,1089
DA:2708,3
DA:2709,3
DA:2710,3
DA:2711,3
DA:2712,3
DA:2714,2
DA:2715,2
DA:2716,2
DA:2718,12
DA:2719,12
DA:2720,96
DA:2721,768
DA:2722,768
DA:2723,384
DA:2724,384
DA:2725,384
DA:2726,384
DA:2729,12
DA:2730,12
DA:2732,10
DA:2733,10
DA:2734,80
DA:2735,640
DA:2736,640
DA:2737,320
DA:2738,320
DA:2739,320
DA:2740,320
DA:2743,10
DA:2744,10
DA:2747,1
DA:2748,1
DA:2749,1
DA:2754,1
DA:2755,1
DA:2757,1
DA:2758,1
DA:2760,40
DA:2761,40
DA:2762,40
DA:2763,40
DA:2765,1
DA:2766,1
DA:2767,1
DA:2768,1
DA:2769,1
DA:2770,1
DA:2772,1
DA:2773,1
DA:2774,1
DA:2777,1
DA:2778,1
DA:2779,1
DA:2786,1
DA:2787,1
DA:2789,1
DA:2790,1
DA:2792,80
DA:2793,80
DA:2794,80
DA:2795,80
DA:2797,1
DA:2798,1
DA:2799,1
DA:2800,1
DA:2801,1
DA:2802,1
DA:2804,1
DA:2805,1
DA:2806,1
DA:2809,1
DA:2810,1
DA:2811,1
DA:2816,1
DA:2818,1
DA:2819,1
DA:2820,1
DA:2823,1
DA:2826,1
DA:2827,1
DA:2828,1
DA:2832,1
DA:2835,1
DA:2836,1
DA:2838,1
DA:2839,1
DA:2841,1
DA:2842,1
DA:2843,64
DA:2844,1
DA:2845,1
DA:2846,1
DA:2847,64
DA:2848,1
DA:2850,40
DA:2851,40
DA:2852,40
DA:2853,40
DA:2855,1
DA:2856,1
DA:2857,1
DA:2858,1
DA:2859,1
DA:2860,1
DA:2862,1
DA:2863,1
DA:2864,1
DA:2867,1
DA:2868,1
DA:2869,1
DA:2872,1
DA:2877,1
DA:2879,1
DA:2880,1
DA:2881,1
DA:2882,1
DA:2884,1
DA:2885,1
DA:2888,1
DA:2889,1
DA:2890,1
DA:2891,1
DA:2893,1
DA:2895,1
DA:2896,1
DA:2903,1
DA:2904,1
DA:2906,1
DA:2907,1
DA:2909,40
DA:2910,40
DA:2911,40
DA:2912,40
DA:2914,1
DA:2915,1
DA:2916,1
DA:2917,1
DA:2918,1
DA:2919,1
DA:2920,1
DA:2921,1
DA:2923,1
DA:2925,1
DA:2926,1
DA:2928,1
DA:2929,1
DA:2930,1
DA:2931,1
DA:2932,1
DA:2933,1
DA:2934,1
DA:2935,1
DA:2937,1
DA:2938,1
DA:2940,1
DA:2941,1
DA:2944,1
DA:2945,1
DA:2946,1
DA:2953,1
DA:2955,1
DA:2956,1
DA:2957,1
DA:2958,1
DA:2959,1
DA:2960,1
DA:2961,1
DA:2964,1
DA:2965,4
DA:2966,4
DA:2968,1
DA:2971,1
DA:2972,1
DA:2973,1
DA:2978,1
DA:2979,1
DA:2981,1
DA:2982,1
DA:2984,40
DA:2985,40
DA:2986,40
DA:2987,40
DA:2989,1
DA:2990,1
DA:2991,1
DA:2992,4
DA:2993,4
DA:2994,4
DA:2995,4
DA:2996,4
DA:2997,1
DA:2999,1
DA:3000,1
DA:3001,1
DA:3003,1
DA:3004,1
DA:3007,1
DA:3008,1
DA:3009,1
DA:3014,1
DA:3015,1
DA:3017,1
DA:3018,1
DA:3020,20
DA:3021,20
DA:3022,20
DA:3023,20
DA:3025,1
DA:3026,1
DA:3027,1
DA:3028,1
DA:3029,1
DA:3030,1
DA:3031,1
DA:3032,1
DA:3034,1
DA:3036,1
DA:3037,1
DA:3038,1
DA:3039,1
DA:3040,1
DA:3041,1
DA:3042,1
DA:3045,1
DA:3046,1
DA:3047,1
DA:3052,1
DA:3053,1
DA:3055,1
DA:3056,1
DA:3058,20
DA:3059,20
DA:3060,20
DA:3061,20
DA:3063,1
DA:3064,1
DA:3065,1
DA:3066,1
DA:3067,1
DA:3068,1
DA:3070,1
DA:3071,1
DA:3072,1
DA:3073,1
DA:3075,1
DA:3076,1
DA:3077,1
DA:3078,1
DA:3080,1
DA:3081,1
DA:3083,1
DA:3084,1
DA:3085,1
DA:3086,1
DA:3087,1
DA:3088,1
DA:3089,1
DA:3091,1
DA:3092,1
DA:3095,1
DA:3096,1
DA:3097,1
DA:3102,1
DA:3103,1
DA:3105,1
DA:3106,1
DA:3108,20
DA:3109,20
DA:3110,20
DA:3111,20
DA:3113,1
DA:3114,1
DA:3115,1
DA:3116,1
DA:3117,1
DA:3118,1
DA:3120,1
DA:3121,1
DA:3122,1
DA:3123,1
DA:3124,1
DA:3125,1
DA:3127,1
DA:3128,1
DA:3129,1
DA:3130,1
DA:3132,1
DA:3133,1
DA:3134,1
DA:3136,1
DA:3137,1
DA:3138,1
DA:3139,1
DA:3142,1
DA:3143,1
DA:3144,1
DA:3149,1
DA:3150,1
DA:3152,1
DA:3153,1
DA:3155,20
DA:3156,20
DA:3157,20
DA:3158,20
DA:3160,1
DA:3161,1
DA:3162,1
DA:3163,4
DA:3164,4
DA:3165,4
DA:3166,4
DA:3167,4
DA:3168,1
DA:3170,1
DA:3171,1
DA:3172,1
DA:3173,1
DA:3174,1
DA:3175,1
DA:3177,1
DA:3178,1
DA:3179,4
DA:3180,4
DA:3181,4
DA:3182,4
DA:3183,4
DA:3184,1
DA:3186,1
DA:3187,1
DA:3188,1
DA:3190,1
DA:3191,1
DA:3192,4
DA:3193,4
DA:3194,4
DA:3195,4
DA:3196,4
DA:3197,1
DA:3199,1
DA:3201,1
DA:3202,1
DA:3203,1
DA:3204,1
DA:3207,1
DA:3208,1
DA:3209,1
DA:3214,1
DA:3215,1
DA:3217,1
DA:3218,1
DA:3220,20
DA:3221,20
DA:3222,20
DA:3223,20
DA:3225,1
DA:3226,1
DA:3227,1
DA:3228,1
DA:3229,1
DA:3230,1
DA:3232,1
DA:3233,1
DA:3234,1
DA:3236,1
DA:3237,1
DA:3238,1
DA:3240,1
DA:3241,1
DA:3242,1
DA:3243,1
DA:3245,1
DA:3246,1
DA:3247,1
DA:3248,1
BRF:0
BRH:0
LF:2361
LH:1527
end_of_record
SF:/Users/samcolak/Source Code/rust/neuron_server/library/neuralnet/src/cnn/cnn_trainer.rs
FN:118,_RINvNtNtCs1xmhvdYWKG8_9neuralnet3cnn11cnn_trainer10pop_prefixpEB6_
FN:246,_RNCNCNvMs2_NtNtCs1xmhvdYWKG8_9neuralnet3cnn11cnn_trainerNtNtBb_10classifier18CnnImageClassifier29train_with_data_loader_scaleds1_00Bd_
FN:332,_RNCNCNvMs2_NtNtCs1xmhvdYWKG8_9neuralnet3cnn11cnn_trainerNtNtBb_10classifier18CnnImageClassifier29train_with_data_loader_scaleds7_00Bd_
FN:617,_RNCNvMs2_NtNtCs1xmhvdYWKG8_9neuralnet3cnn11cnn_trainerNtNtB9_10classifier18CnnImageClassifier27train_labeled_image_samples0Bb_
FN:219,_RNCNvMs2_NtNtCs1xmhvdYWKG8_9neuralnet3cnn11cnn_trainerNtNtB9_10classifier18CnnImageClassifier29train_with_data_loader_scaled0Bb_
FN:246,_RNCNvMs2_NtNtCs1xmhvdYWKG8_9neuralnet3cnn11cnn_trainerNtNtB9_10classifier18CnnImageClassifier29train_with_data_loader_scaleds1_0Bb_
FN:323,_RNCNvMs2_NtNtCs1xmhvdYWKG8_9neuralnet3cnn11cnn_trainerNtNtB9_10classifier18CnnImageClassifier29train_with_data_loader_scaleds5_0Bb_
FN:332,_RNCNvMs2_NtNtCs1xmhvdYWKG8_9neuralnet3cnn11cnn_trainerNtNtB9_10classifier18CnnImageClassifier29train_with_data_loader_scaleds7_0Bb_
FN:237,_RNCNvMs2_NtNtCs1xmhvdYWKG8_9neuralnet3cnn11cnn_trainerNtNtB9_10classifier18CnnImageClassifier29train_with_data_loader_scaleds_0Bb_
FN:58,_RNvMs0_NtNtCs1xmhvdYWKG8_9neuralnet3cnn11cnn_trainerNtB5_19CnnScaleTrainConfig20effective_batch_size
FN:137,_RNvMs2_NtNtCs1xmhvdYWKG8_9neuralnet3cnn11cnn_trainerNtNtB7_10classifier18CnnImageClassifier22train_with_data_loader
FN:600,_RNvMs2_NtNtCs1xmhvdYWKG8_9neuralnet3cnn11cnn_trainerNtNtB7_10classifier18CnnImageClassifier27train_labeled_image_samples
FN:153,_RNvMs2_NtNtCs1xmhvdYWKG8_9neuralnet3cnn11cnn_trainerNtNtB7_10classifier18CnnImageClassifier29train_with_data_loader_scaled
FN:448,_RNvMs2_NtNtCs1xmhvdYWKG8_9neuralnet3cnn11cnn_trainerNtNtB7_10classifier18CnnImageClassifier37evaluate_labeled_images_with_pipeline
FN:659,_RNvNtNtNtCs1xmhvdYWKG8_9neuralnet3cnn11cnn_trainer5tests27diagonal_gradient_image_8x8
FN:68,_RNvXs1_NtNtCs1xmhvdYWKG8_9neuralnet3cnn11cnn_trainerNtB5_19CnnScaleTrainConfigNtNtCse2qo0L34Llq_4core7default7Default7default
FN:678,_RNCNvNtNtNtCs1xmhvdYWKG8_9neuralnet3cnn11cnn_trainer5testss_33cnn_trainer_batches_report_counts0B9_
FN:783,_RNCNvNtNtNtCs1xmhvdYWKG8_9neuralnet3cnn11cnn_trainer5testss_48cnn_trainer_loss_trends_down_on_repeated_batches0B9_
FN:793,_RNCNvNtNtNtCs1xmhvdYWKG8_9neuralnet3cnn11cnn_trainer5testss_48cnn_trainer_loss_trends_down_on_repeated_batchess0_0B9_
FN:799,_RNCNvNtNtNtCs1xmhvdYWKG8_9neuralnet3cnn11cnn_trainer5testss_48cnn_trainer_loss_trends_down_on_repeated_batchess1_0B9_
FN:802,_RNCNvNtNtNtCs1xmhvdYWKG8_9neuralnet3cnn11cnn_trainer5testss_48cnn_trainer_loss_trends_down_on_repeated_batchess2_0B9_
FN:790,_RNCNvNtNtNtCs1xmhvdYWKG8_9neuralnet3cnn11cnn_trainer5testss_48cnn_trainer_loss_trends_down_on_repeated_batchess_0B9_
FN:707,_RNCNvNtNtNtCs1xmhvdYWKG8_9neuralnet3cnn11cnn_trainer5testss_58cnn_trainer_evaluation_returns_confusion_and_micro_metrics0B9_
FN:732,_RNCNvNtNtNtCs1xmhvdYWKG8_9neuralnet3cnn11cnn_trainer5testss_58cnn_trainer_evaluation_returns_confusion_and_micro_metricss_0B9_
FN:747,_RNCNvNtNtNtCs1xmhvdYWKG8_9neuralnet3cnn11cnn_trainer5testss_62cnn_trainer_confidence_threshold_can_force_unknown_predictions0B9_
FN:769,_RNCNvNtNtNtCs1xmhvdYWKG8_9neuralnet3cnn11cnn_trainer5testss_62cnn_trainer_confidence_threshold_can_force_unknown_predictionss_0B9_
FN:543,_RNvMs2_NtNtCs1xmhvdYWKG8_9neuralnet3cnn11cnn_trainerNtNtB7_10classifier18CnnImageClassifier23evaluate_labeled_images
FN:515,_RNvMs2_NtNtCs1xmhvdYWKG8_9neuralnet3cnn11cnn_trainerNtNtB7_10classifier18CnnImageClassifier27train_labeled_image_batches
FN:631,_RNvNtNtNtCs1xmhvdYWKG8_9neuralnet3cnn11cnn_trainer5tests26vertical_stripes_image_8x8
FN:645,_RNvNtNtNtCs1xmhvdYWKG8_9neuralnet3cnn11cnn_trainer5tests28horizontal_stripes_image_8x8
FN:670,_RNvNtNtNtCs1xmhvdYWKG8_9neuralnet3cnn11cnn_trainer5testss_33cnn_trainer_batches_report_counts
FN:776,_RNvNtNtNtCs1xmhvdYWKG8_9neuralnet3cnn11cnn_trainer5testss_48cnn_trainer_loss_trends_down_on_repeated_batches
FN:699,_RNvNtNtNtCs1xmhvdYWKG8_9neuralnet3cnn11cnn_trainer5testss_58cnn_trainer_evaluation_returns_confusion_and_micro_metrics
FN:739,_RNvNtNtNtCs1xmhvdYWKG8_9neuralnet3cnn11cnn_trainer5testss_62cnn_trainer_confidence_threshold_can_force_unknown_predictions
FN:25,_RNvMNtNtCs1xmhvdYWKG8_9neuralnet3cnn11cnn_trainerNtB2_15CnnTrainerBatch3new
FN:41,_RNvMs_NtNtCs1xmhvdYWKG8_9neuralnet3cnn11cnn_trainerNtB4_19CnnEvaluationSample3new
FNDA:0,_RINvNtNtCs1xmhvdYWKG8_9neuralnet3cnn11cnn_trainer10pop_prefixpEB6_
FNDA:0,_RNCNCNvMs2_NtNtCs1xmhvdYWKG8_9neuralnet3cnn11cnn_trainerNtNtBb_10classifier18CnnImageClassifier29train_with_data_loader_scaleds1_00Bd_
FNDA:0,_RNCNCNvMs2_NtNtCs1xmhvdYWKG8_9neuralnet3cnn11cnn_trainerNtNtBb_10classifier18CnnImageClassifier29train_with_data_loader_scaleds7_00Bd_
FNDA:0,_RNCNvMs2_NtNtCs1xmhvdYWKG8_9neuralnet3cnn11cnn_trainerNtNtB9_10classifier18CnnImageClassifier27train_labeled_image_samples0Bb_
FNDA:0,_RNCNvMs2_NtNtCs1xmhvdYWKG8_9neuralnet3cnn11cnn_trainerNtNtB9_10classifier18CnnImageClassifier29train_with_data_loader_scaled0Bb_
FNDA:0,_RNCNvMs2_NtNtCs1xmhvdYWKG8_9neuralnet3cnn11cnn_trainerNtNtB9_10classifier18CnnImageClassifier29train_with_data_loader_scaleds1_0Bb_
FNDA:0,_RNCNvMs2_NtNtCs1xmhvdYWKG8_9neuralnet3cnn11cnn_trainerNtNtB9_10classifier18CnnImageClassifier29train_with_data_loader_scaleds5_0Bb_
FNDA:0,_RNCNvMs2_NtNtCs1xmhvdYWKG8_9neuralnet3cnn11cnn_trainerNtNtB9_10classifier18CnnImageClassifier29train_with_data_loader_scaleds7_0Bb_
FNDA:0,_RNCNvMs2_NtNtCs1xmhvdYWKG8_9neuralnet3cnn11cnn_trainerNtNtB9_10classifier18CnnImageClassifier29train_with_data_loader_scaleds_0Bb_
FNDA:0,_RNvMs0_NtNtCs1xmhvdYWKG8_9neuralnet3cnn11cnn_trainerNtB5_19CnnScaleTrainConfig20effective_batch_size
FNDA:0,_RNvMs2_NtNtCs1xmhvdYWKG8_9neuralnet3cnn11cnn_trainerNtNtB7_10classifier18CnnImageClassifier22train_with_data_loader
FNDA:0,_RNvMs2_NtNtCs1xmhvdYWKG8_9neuralnet3cnn11cnn_trainerNtNtB7_10classifier18CnnImageClassifier27train_labeled_image_samples
FNDA:0,_RNvMs2_NtNtCs1xmhvdYWKG8_9neuralnet3cnn11cnn_trainerNtNtB7_10classifier18CnnImageClassifier29train_with_data_loader_scaled
FNDA:0,_RNvMs2_NtNtCs1xmhvdYWKG8_9neuralnet3cnn11cnn_trainerNtNtB7_10classifier18CnnImageClassifier37evaluate_labeled_images_with_pipeline
FNDA:0,_RNvNtNtNtCs1xmhvdYWKG8_9neuralnet3cnn11cnn_trainer5tests27diagonal_gradient_image_8x8
FNDA:0,_RNvXs1_NtNtCs1xmhvdYWKG8_9neuralnet3cnn11cnn_trainerNtB5_19CnnScaleTrainConfigNtNtCse2qo0L34Llq_4core7default7Default7default
FNDA:0,_RNCNvNtNtNtCs1xmhvdYWKG8_9neuralnet3cnn11cnn_trainer5testss_33cnn_trainer_batches_report_counts0B9_
FNDA:0,_RNCNvNtNtNtCs1xmhvdYWKG8_9neuralnet3cnn11cnn_trainer5testss_48cnn_trainer_loss_trends_down_on_repeated_batches0B9_
FNDA:0,_RNCNvNtNtNtCs1xmhvdYWKG8_9neuralnet3cnn11cnn_trainer5testss_48cnn_trainer_loss_trends_down_on_repeated_batchess0_0B9_
FNDA:0,_RNCNvNtNtNtCs1xmhvdYWKG8_9neuralnet3cnn11cnn_trainer5testss_48cnn_trainer_loss_trends_down_on_repeated_batchess1_0B9_
FNDA:0,_RNCNvNtNtNtCs1xmhvdYWKG8_9neuralnet3cnn11cnn_trainer5testss_48cnn_trainer_loss_trends_down_on_repeated_batchess2_0B9_
FNDA:0,_RNCNvNtNtNtCs1xmhvdYWKG8_9neuralnet3cnn11cnn_trainer5testss_48cnn_trainer_loss_trends_down_on_repeated_batchess_0B9_
FNDA:0,_RNCNvNtNtNtCs1xmhvdYWKG8_9neuralnet3cnn11cnn_trainer5testss_58cnn_trainer_evaluation_returns_confusion_and_micro_metrics0B9_
FNDA:1,_RNCNvNtNtNtCs1xmhvdYWKG8_9neuralnet3cnn11cnn_trainer5testss_58cnn_trainer_evaluation_returns_confusion_and_micro_metricss_0B9_
FNDA:0,_RNCNvNtNtNtCs1xmhvdYWKG8_9neuralnet3cnn11cnn_trainer5testss_62cnn_trainer_confidence_threshold_can_force_unknown_predictions0B9_
FNDA:1,_RNCNvNtNtNtCs1xmhvdYWKG8_9neuralnet3cnn11cnn_trainer5testss_62cnn_trainer_confidence_threshold_can_force_unknown_predictionss_0B9_
FNDA:2,_RNvMs2_NtNtCs1xmhvdYWKG8_9neuralnet3cnn11cnn_trainerNtNtB7_10classifier18CnnImageClassifier23evaluate_labeled_images
FNDA:1,_RNvMs2_NtNtCs1xmhvdYWKG8_9neuralnet3cnn11cnn_trainerNtNtB7_10classifier18CnnImageClassifier27train_labeled_image_batches
FNDA:90,_RNvNtNtNtCs1xmhvdYWKG8_9neuralnet3cnn11cnn_trainer5tests26vertical_stripes_image_8x8
FNDA:88,_RNvNtNtNtCs1xmhvdYWKG8_9neuralnet3cnn11cnn_trainer5tests28horizontal_stripes_image_8x8
FNDA:1,_RNvNtNtNtCs1xmhvdYWKG8_9neuralnet3cnn11cnn_trainer5testss_33cnn_trainer_batches_report_counts
FNDA:1,_RNvNtNtNtCs1xmhvdYWKG8_9neuralnet3cnn11cnn_trainer5testss_48cnn_trainer_loss_trends_down_on_repeated_batches
FNDA:1,_RNvNtNtNtCs1xmhvdYWKG8_9neuralnet3cnn11cnn_trainer5testss_58cnn_trainer_evaluation_returns_confusion_and_micro_metrics
FNDA:1,_RNvNtNtNtCs1xmhvdYWKG8_9neuralnet3cnn11cnn_trainer5testss_62cnn_trainer_confidence_threshold_can_force_unknown_predictions
FNDA:2,_RNvMNtNtCs1xmhvdYWKG8_9neuralnet3cnn11cnn_trainerNtB2_15CnnTrainerBatch3new
FNDA:4,_RNvMs_NtNtCs1xmhvdYWKG8_9neuralnet3cnn11cnn_trainerNtB4_19CnnEvaluationSample3new
FNF:36
FNH:12
DA:25,2
DA:26,2
DA:27,2
DA:28,2
DA:29,2
DA:30,2
DA:41,4
DA:42,4
DA:43,4
DA:44,4
DA:45,4
DA:46,4
DA:58,0
DA:59,0
DA:60,0
DA:61,0
DA:62,0
DA:68,0
DA:69,0
DA:70,0
DA:71,0
DA:72,0
DA:73,0
DA:118,0
DA:120,0
DA:121,0
DA:122,0
DA:123,0
DA:125,0
DA:126,0
DA:127,0
DA:128,0
DA:129,0
DA:131,0
DA:133,0
DA:137,0
DA:138,0
DA:139,0
DA:140,0
DA:141,0
DA:142,0
DA:144,0
DA:145,0
DA:146,0
DA:147,0
DA:148,0
DA:149,0
DA:150,0
DA:151,0
DA:153,0
DA:154,0
DA:155,0
DA:156,0
DA:157,0
DA:158,0
DA:159,0
DA:161,0
DA:162,0
DA:163,0
DA:164,0
DA:165,0
DA:166,0
DA:167,0
DA:168,0
DA:169,0
DA:170,0
DA:171,0
DA:172,0
DA:173,0
DA:174,0
DA:175,0
DA:176,0
DA:177,0
DA:178,0
DA:179,0
DA:180,0
DA:181,0
DA:182,0
DA:183,0
DA:184,0
DA:185,0
DA:186,0
DA:187,0
DA:188,0
DA:189,0
DA:190,0
DA:191,0
DA:192,0
DA:194,0
DA:195,0
DA:196,0
DA:198,0
DA:200,0
DA:201,0
DA:202,0
DA:203,0
DA:205,0
DA:206,0
DA:207,0
DA:208,0
DA:209,0
DA:210,0
DA:212,0
DA:213,0
DA:215,0
DA:217,0
DA:218,0
DA:219,0
DA:220,0
DA:221,0
DA:222,0
DA:223,0
DA:224,0
DA:225,0
DA:226,0
DA:229,0
DA:230,0
DA:232,0
DA:233,0
DA:235,0
DA:236,0
DA:237,0
DA:238,0
DA:239,0
DA:241,0
DA:242,0
DA:243,0
DA:244,0
DA:245,0
DA:246,0
DA:247,0
DA:248,0
DA:249,0
DA:250,0
DA:251,0
DA:252,0
DA:253,0
DA:255,0
DA:256,0
DA:257,0
DA:258,0
DA:259,0
DA:260,0
DA:261,0
DA:262,0
DA:263,0
DA:264,0
DA:265,0
DA:266,0
DA:267,0
DA:268,0
DA:269,0
DA:270,0
DA:271,0
DA:272,0
DA:273,0
DA:274,0
DA:275,0
DA:276,0
DA:279,0
DA:280,0
DA:281,0
DA:282,0
DA:283,0
DA:284,0
DA:285,0
DA:286,0
DA:287,0
DA:288,0
DA:289,0
DA:290,0
DA:291,0
DA:292,0
DA:293,0
DA:294,0
DA:295,0
DA:296,0
DA:297,0
DA:298,0
DA:299,0
DA:300,0
DA:303,0
DA:304,0
DA:305,0
DA:306,0
DA:307,0
DA:308,0
DA:309,0
DA:310,0
DA:311,0
DA:312,0
DA:313,0
DA:314,0
DA:315,0
DA:316,0
DA:319,0
DA:320,0
DA:321,0
DA:322,0
DA:323,0
DA:324,0
DA:325,0
DA:327,0
DA:328,0
DA:329,0
DA:330,0
DA:331,0
DA:332,0
DA:333,0
DA:334,0
DA:335,0
DA:336,0
DA:337,0
DA:338,0
DA:339,0
DA:341,0
DA:342,0
DA:343,0
DA:344,0
DA:345,0
DA:346,0
DA:347,0
DA:348,0
DA:349,0
DA:350,0
DA:351,0
DA:352,0
DA:353,0
DA:354,0
DA:355,0
DA:356,0
DA:357,0
DA:358,0
DA:359,0
DA:360,0
DA:361,0
DA:362,0
DA:365,0
DA:366,0
DA:367,0
DA:368,0
DA:369,0
DA:370,0
DA:371,0
DA:372,0
DA:373,0
DA:374,0
DA:375,0
DA:376,0
DA:377,0
DA:378,0
DA:379,0
DA:380,0
DA:381,0
DA:382,0
DA:383,0
DA:384,0
DA:385,0
DA:386,0
DA:387,0
DA:390,0
DA:391,0
DA:392,0
DA:393,0
DA:394,0
DA:395,0
DA:396,0
DA:397,0
DA:398,0
DA:399,0
DA:400,0
DA:401,0
DA:402,0
DA:403,0
DA:407,0
DA:408,0
DA:409,0
DA:410,0
DA:412,0
DA:413,0
DA:414,0
DA:415,0
DA:416,0
DA:417,0
DA:418,0
DA:419,0
DA:420,0
DA:421,0
DA:422,0
DA:423,0
DA:424,0
DA:425,0
DA:426,0
DA:427,0
DA:428,0
DA:429,0
DA:430,0
DA:431,0
DA:432,0
DA:433,0
DA:434,0
DA:435,0
DA:436,0
DA:437,0
DA:438,0
DA:439,0
DA:440,0
DA:441,0
DA:442,0
DA:443,0
DA:444,0
DA:446,0
DA:448,0
DA:449,0
DA:450,0
DA:451,0
DA:452,0
DA:453,0
DA:455,0
DA:456,0
DA:457,0
DA:458,0
DA:460,0
DA:462,0
DA:463,0
DA:464,0
DA:465,0
DA:466,0
DA:467,0
DA:469,0
DA:470,0
DA:471,0
DA:472,0
DA:473,0
DA:474,0
DA:476,0
DA:477,0
DA:478,0
DA:479,0
DA:482,0
DA:483,0
DA:484,0
DA:485,0
DA:486,0
DA:487,0
DA:488,0
DA:489,0
DA:490,0
DA:492,0
DA:493,0
DA:494,0
DA:495,0
DA:496,0
DA:497,0
DA:498,0
DA:499,0
DA:500,0
DA:501,0
DA:502,0
DA:506,0
DA:507,0
DA:508,0
DA:510,0
DA:511,0
DA:513,0
DA:515,1
DA:517,1
DA:519,2
DA:520,2
DA:521,2
DA:522,2
DA:523,0
DA:524,2
DA:526,3
DA:527,3
DA:528,3
DA:529,3
DA:530,1
DA:531,2
DA:532,2
DA:533,2
DA:534,0
DA:538,1
DA:539,1
DA:541,1
DA:543,2
DA:544,2
DA:545,2
DA:546,2
DA:548,2
DA:549,2
DA:550,2
DA:551,2
DA:553,4
DA:554,4
DA:555,4
DA:556,0
DA:557,0
DA:558,4
DA:560,4
DA:561,4
DA:562,0
DA:563,4
DA:564,4
DA:565,4
DA:567,4
DA:568,2
DA:569,2
DA:570,2
DA:571,0
DA:572,2
DA:573,2
DA:574,2
DA:575,2
DA:577,0
DA:578,0
DA:579,0
DA:580,2
DA:581,2
DA:582,2
DA:583,2
DA:584,2
DA:585,2
DA:586,2
DA:587,2
DA:591,2
DA:592,2
DA:593,2
DA:595,2
DA:596,2
DA:598,2
DA:600,0
DA:601,0
DA:602,0
DA:603,0
DA:605,0
DA:607,0
DA:608,0
DA:609,0
DA:610,0
DA:611,0
DA:612,0
DA:615,0
DA:616,0
DA:617,0
DA:618,0
DA:620,0
DA:622,0
DA:631,90
DA:632,90
DA:633,720
DA:634,5760
DA:635,5760
DA:636,2880
DA:637,2880
DA:638,2880
DA:639,2880
DA:642,90
DA:643,90
DA:645,88
DA:646,88
DA:647,704
DA:648,5632
DA:649,5632
DA:650,2816
DA:651,2816
DA:652,2816
DA:653,2816
DA:656,88
DA:657,88
DA:659,0
DA:660,0
DA:661,0
DA:662,0
DA:663,0
DA:664,0
DA:666,0
DA:667,0
DA:670,1
DA:672,1
DA:673,1
DA:678,1
DA:680,1
DA:681,1
DA:682,1
DA:683,1
DA:685,1
DA:688,1
DA:690,1
DA:691,1
DA:692,1
DA:693,1
DA:694,1
DA:696,1
DA:699,1
DA:701,1
DA:702,1
DA:707,1
DA:708,1
DA:710,80
DA:711,80
DA:712,80
DA:713,80
DA:715,1
DA:716,1
DA:717,1
DA:719,1
DA:722,1
DA:724,1
DA:725,1
DA:726,1
DA:727,1
DA:728,1
DA:729,1
DA:730,1
DA:731,1
DA:732,1
DA:736,1
DA:739,1
DA:741,1
DA:742,1
DA:747,1
DA:749,4
DA:750,4
DA:751,4
DA:752,4
DA:754,1
DA:755,1
DA:756,1
DA:757,1
DA:760,1
DA:762,1
DA:763,1
DA:764,1
DA:765,1
DA:766,1
DA:767,1
DA:768,1
DA:769,1
DA:773,1
DA:776,1
DA:777,1
DA:778,1
DA:783,1
DA:785,1
DA:786,1
DA:788,1
DA:789,1
DA:790,1
DA:791,1
DA:792,1
DA:793,1
DA:795,1
DA:796,1
DA:797,30
DA:798,30
DA:799,30
DA:800,30
DA:801,30
DA:802,30
DA:803,30
DA:806,1
DA:807,1
BRF:0
BRH:0
LF:581
LH:178
end_of_record
SF:/Users/samcolak/Source Code/rust/neuron_server/library/neuralnet/src/cnn/data_pipeline.rs
FN:220,_RNCNvMs3_NtNtCs1xmhvdYWKG8_9neuralnet3cnn13data_pipelineNtB7_13CnnDataLoader12from_samples0Bb_
FN:315,_RNCNvMs3_NtNtCs1xmhvdYWKG8_9neuralnet3cnn13data_pipelineNtB7_13CnnDataLoader22epoch_as_label_batches0Bb_
FN:235,_RNCNvMs3_NtNtCs1xmhvdYWKG8_9neuralnet3cnn13data_pipelineNtB7_13CnnDataLoader23from_samples_with_shape0Bb_
FN:114,_RNvMs0_NtNtCs1xmhvdYWKG8_9neuralnet3cnn13data_pipelineNtB5_22ImageTransformPipeline10transforms
FN:170,_RNvMs1_NtNtCs1xmhvdYWKG8_9neuralnet3cnn13data_pipelineNtB5_18LabeledImageRecord14new_with_shape
FN:216,_RNvMs3_NtNtCs1xmhvdYWKG8_9neuralnet3cnn13data_pipelineNtB5_13CnnDataLoader12from_samples
FN:295,_RNvMs3_NtNtCs1xmhvdYWKG8_9neuralnet3cnn13data_pipelineNtB5_13CnnDataLoader22epoch_as_label_batches
FN:228,_RNvMs3_NtNtCs1xmhvdYWKG8_9neuralnet3cnn13data_pipelineNtB5_13CnnDataLoader23from_samples_with_shape
FN:244,_RNvMs3_NtNtCs1xmhvdYWKG8_9neuralnet3cnn13data_pipelineNtB5_13CnnDataLoader3len
FN:240,_RNvMs3_NtNtCs1xmhvdYWKG8_9neuralnet3cnn13data_pipelineNtB5_13CnnDataLoader7options
FN:248,_RNvMs3_NtNtCs1xmhvdYWKG8_9neuralnet3cnn13data_pipelineNtB5_13CnnDataLoader8is_empty
FN:291,_RNvMs3_NtNtCs1xmhvdYWKG8_9neuralnet3cnn13data_pipelineNtB5_13CnnDataLoader9record_at
FN:194,_RNvXs2_NtNtCs1xmhvdYWKG8_9neuralnet3cnn13data_pipelineNtB5_20CnnDataLoaderOptionsNtNtCse2qo0L34Llq_4core7default7Default7default
FN:13,_RNvMNtNtCs1xmhvdYWKG8_9neuralnet3cnn13data_pipelineNtB2_16ImageTensorShape3new
FN:122,_RNvMs0_NtNtCs1xmhvdYWKG8_9neuralnet3cnn13data_pipelineNtB5_22ImageTransformPipeline16apply_with_shape
FN:110,_RNvMs0_NtNtCs1xmhvdYWKG8_9neuralnet3cnn13data_pipelineNtB5_22ImageTransformPipeline3new
FN:118,_RNvMs0_NtNtCs1xmhvdYWKG8_9neuralnet3cnn13data_pipelineNtB5_22ImageTransformPipeline5apply
FN:162,_RNvMs1_NtNtCs1xmhvdYWKG8_9neuralnet3cnn13data_pipelineNtB5_18LabeledImageRecord3new
FN:252,_RNvMs3_NtNtCs1xmhvdYWKG8_9neuralnet3cnn13data_pipelineNtB5_13CnnDataLoader13epoch_batches
FN:276,_RNvMs3_NtNtCs1xmhvdYWKG8_9neuralnet3cnn13data_pipelineNtB5_13CnnDataLoader13epoch_indices
FN:212,_RNvMs3_NtNtCs1xmhvdYWKG8_9neuralnet3cnn13data_pipelineNtB5_13CnnDataLoader3new
FN:329,_RNvMs4_NtNtCs1xmhvdYWKG8_9neuralnet3cnn13data_pipelineNtB5_11ImageSample10from_bytes
FN:61,_RNvMs_NtNtCs1xmhvdYWKG8_9neuralnet3cnn13data_pipelineNtB4_12TransformRng14next_inclusive
FN:77,_RNvMs_NtNtCs1xmhvdYWKG8_9neuralnet3cnn13data_pipelineNtB4_12TransformRng15gaussian_sample
FN:69,_RNvMs_NtNtCs1xmhvdYWKG8_9neuralnet3cnn13data_pipelineNtB4_12TransformRng16next_signed_unit
FN:38,_RNvMs_NtNtCs1xmhvdYWKG8_9neuralnet3cnn13data_pipelineNtB4_12TransformRng3new
FN:73,_RNvMs_NtNtCs1xmhvdYWKG8_9neuralnet3cnn13data_pipelineNtB4_12TransformRng5maybe
FN:56,_RNvMs_NtNtCs1xmhvdYWKG8_9neuralnet3cnn13data_pipelineNtB4_12TransformRng8next_f32
FN:47,_RNvMs_NtNtCs1xmhvdYWKG8_9neuralnet3cnn13data_pipelineNtB4_12TransformRng8next_u64
FN:440,_RNvNtNtCs1xmhvdYWKG8_9neuralnet3cnn13data_pipeline14resize_nearest
FN:364,_RNvNtNtCs1xmhvdYWKG8_9neuralnet3cnn13data_pipeline15apply_transform
FN:393,_RNvNtNtCs1xmhvdYWKG8_9neuralnet3cnn13data_pipeline15horizontal_flip
FN:480,_RNvNtNtCs1xmhvdYWKG8_9neuralnet3cnn13data_pipeline17normalize_min_max
FN:472,_RNvNtNtCs1xmhvdYWKG8_9neuralnet3cnn13data_pipeline18add_gaussian_noise
FN:406,_RNvNtNtCs1xmhvdYWKG8_9neuralnet3cnn13data_pipeline18random_crop_resize
FN:352,_RNvNtNtCs1xmhvdYWKG8_9neuralnet3cnn13data_pipeline20fisher_yates_shuffle
FN:347,_RNvNtNtCs1xmhvdYWKG8_9neuralnet3cnn13data_pipeline24infer_square_image_shape
FN:463,_RNvNtNtCs1xmhvdYWKG8_9neuralnet3cnn13data_pipeline25apply_brightness_contrast
FN:504,_RNvNtNtCs1xmhvdYWKG8_9neuralnet3cnn13data_pipeline36infer_square_dimensions_and_channels
FN:500,_RNvNtNtCs1xmhvdYWKG8_9neuralnet3cnn13data_pipeline5index
FN:266,_RNCNvMs3_NtNtCs1xmhvdYWKG8_9neuralnet3cnn13data_pipelineNtB7_13CnnDataLoader13epoch_batches0Bb_
FN:629,_RNCNvNtNtNtCs1xmhvdYWKG8_9neuralnet3cnn13data_pipeline5testss_43dataloader_drop_last_and_shuffle_are_stable0B9_
FN:595,_RNCNvNtNtNtCs1xmhvdYWKG8_9neuralnet3cnn13data_pipeline5testss_69pipeline_applies_transforms_to_rectangular_images_with_shape_metadata0B9_
FN:529,_RNvNtNtNtCs1xmhvdYWKG8_9neuralnet3cnn13data_pipeline5tests18striped_square_8x8
FN:544,_RNvNtNtNtCs1xmhvdYWKG8_9neuralnet3cnn13data_pipeline5testss_40pipeline_is_deterministic_with_same_seed
FN:605,_RNvNtNtNtCs1xmhvdYWKG8_9neuralnet3cnn13data_pipeline5testss_43dataloader_drop_last_and_shuffle_are_stable
FN:569,_RNvNtNtNtCs1xmhvdYWKG8_9neuralnet3cnn13data_pipeline5testss_47train_and_eval_modes_apply_different_randomness
FN:592,_RNvNtNtNtCs1xmhvdYWKG8_9neuralnet3cnn13data_pipeline5testss_69pipeline_applies_transforms_to_rectangular_images_with_shape_metadata
FNDA:0,_RNCNvMs3_NtNtCs1xmhvdYWKG8_9neuralnet3cnn13data_pipelineNtB7_13CnnDataLoader12from_samples0Bb_
FNDA:0,_RNCNvMs3_NtNtCs1xmhvdYWKG8_9neuralnet3cnn13data_pipelineNtB7_13CnnDataLoader22epoch_as_label_batches0Bb_
FNDA:0,_RNCNvMs3_NtNtCs1xmhvdYWKG8_9neuralnet3cnn13data_pipelineNtB7_13CnnDataLoader23from_samples_with_shape0Bb_
FNDA:0,_RNvMs0_NtNtCs1xmhvdYWKG8_9neuralnet3cnn13data_pipelineNtB5_22ImageTransformPipeline10transforms
FNDA:0,_RNvMs1_NtNtCs1xmhvdYWKG8_9neuralnet3cnn13data_pipelineNtB5_18LabeledImageRecord14new_with_shape
FNDA:0,_RNvMs3_NtNtCs1xmhvdYWKG8_9neuralnet3cnn13data_pipelineNtB5_13CnnDataLoader12from_samples
FNDA:0,_RNvMs3_NtNtCs1xmhvdYWKG8_9neuralnet3cnn13data_pipelineNtB5_13CnnDataLoader22epoch_as_label_batches
FNDA:0,_RNvMs3_NtNtCs1xmhvdYWKG8_9neuralnet3cnn13data_pipelineNtB5_13CnnDataLoader23from_samples_with_shape
FNDA:0,_RNvMs3_NtNtCs1xmhvdYWKG8_9neuralnet3cnn13data_pipelineNtB5_13CnnDataLoader3len
FNDA:0,_RNvMs3_NtNtCs1xmhvdYWKG8_9neuralnet3cnn13data_pipelineNtB5_13CnnDataLoader7options
FNDA:0,_RNvMs3_NtNtCs1xmhvdYWKG8_9neuralnet3cnn13data_pipelineNtB5_13CnnDataLoader8is_empty
FNDA:0,_RNvMs3_NtNtCs1xmhvdYWKG8_9neuralnet3cnn13data_pipelineNtB5_13CnnDataLoader9record_at
FNDA:0,_RNvXs2_NtNtCs1xmhvdYWKG8_9neuralnet3cnn13data_pipelineNtB5_20CnnDataLoaderOptionsNtNtCse2qo0L34Llq_4core7default7Default7default
FNDA:6,_RNvMNtNtCs1xmhvdYWKG8_9neuralnet3cnn13data_pipelineNtB2_16ImageTensorShape3new
FNDA:5,_RNvMs0_NtNtCs1xmhvdYWKG8_9neuralnet3cnn13data_pipelineNtB5_22ImageTransformPipeline16apply_with_shape
FNDA:3,_RNvMs0_NtNtCs1xmhvdYWKG8_9neuralnet3cnn13data_pipelineNtB5_22ImageTransformPipeline3new
FNDA:4,_RNvMs0_NtNtCs1xmhvdYWKG8_9neuralnet3cnn13data_pipelineNtB5_22ImageTransformPipeline5apply
FNDA:5,_RNvMs1_NtNtCs1xmhvdYWKG8_9neuralnet3cnn13data_pipelineNtB5_18LabeledImageRecord3new
FNDA:2,_RNvMs3_NtNtCs1xmhvdYWKG8_9neuralnet3cnn13data_pipelineNtB5_13CnnDataLoader13epoch_batches
FNDA:2,_RNvMs3_NtNtCs1xmhvdYWKG8_9neuralnet3cnn13data_pipelineNtB5_13CnnDataLoader13epoch_indices
FNDA:1,_RNvMs3_NtNtCs1xmhvdYWKG8_9neuralnet3cnn13data_pipelineNtB5_13CnnDataLoader3new
FNDA:5,_RNvMs4_NtNtCs1xmhvdYWKG8_9neuralnet3cnn13data_pipelineNtB5_11ImageSample10from_bytes
FNDA:14,_RNvMs_NtNtCs1xmhvdYWKG8_9neuralnet3cnn13data_pipelineNtB4_12TransformRng14next_inclusive
FNDA:128,_RNvMs_NtNtCs1xmhvdYWKG8_9neuralnet3cnn13data_pipelineNtB4_12TransformRng15gaussian_sample
FNDA:6,_RNvMs_NtNtCs1xmhvdYWKG8_9neuralnet3cnn13data_pipelineNtB4_12TransformRng16next_signed_unit
FNDA:7,_RNvMs_NtNtCs1xmhvdYWKG8_9neuralnet3cnn13data_pipelineNtB4_12TransformRng3new
FNDA:5,_RNvMs_NtNtCs1xmhvdYWKG8_9neuralnet3cnn13data_pipelineNtB4_12TransformRng5maybe
FNDA:267,_RNvMs_NtNtCs1xmhvdYWKG8_9neuralnet3cnn13data_pipelineNtB4_12TransformRng8next_f32
FNDA:277,_RNvMs_NtNtCs1xmhvdYWKG8_9neuralnet3cnn13data_pipelineNtB4_12TransformRng8next_u64
FNDA:2,_RNvNtNtCs1xmhvdYWKG8_9neuralnet3cnn13data_pipeline14resize_nearest
FNDA:15,_RNvNtNtCs1xmhvdYWKG8_9neuralnet3cnn13data_pipeline15apply_transform
FNDA:3,_RNvNtNtCs1xmhvdYWKG8_9neuralnet3cnn13data_pipeline15horizontal_flip
FNDA:5,_RNvNtNtCs1xmhvdYWKG8_9neuralnet3cnn13data_pipeline17normalize_min_max
FNDA:2,_RNvNtNtCs1xmhvdYWKG8_9neuralnet3cnn13data_pipeline18add_gaussian_noise
FNDA:2,_RNvNtNtCs1xmhvdYWKG8_9neuralnet3cnn13data_pipeline18random_crop_resize
FNDA:2,_RNvNtNtCs1xmhvdYWKG8_9neuralnet3cnn13data_pipeline20fisher_yates_shuffle
FNDA:4,_RNvNtNtCs1xmhvdYWKG8_9neuralnet3cnn13data_pipeline24infer_square_image_shape
FNDA:3,_RNvNtNtCs1xmhvdYWKG8_9neuralnet3cnn13data_pipeline25apply_brightness_contrast
FNDA:4,_RNvNtNtCs1xmhvdYWKG8_9neuralnet3cnn13data_pipeline36infer_square_dimensions_and_channels
FNDA:704,_RNvNtNtCs1xmhvdYWKG8_9neuralnet3cnn13data_pipeline5index
FNDA:8,_RNCNvMs3_NtNtCs1xmhvdYWKG8_9neuralnet3cnn13data_pipelineNtB7_13CnnDataLoader13epoch_batches0Bb_
FNDA:2,_RNCNvNtNtNtCs1xmhvdYWKG8_9neuralnet3cnn13data_pipeline5testss_43dataloader_drop_last_and_shuffle_are_stable0B9_
FNDA:0,_RNCNvNtNtNtCs1xmhvdYWKG8_9neuralnet3cnn13data_pipeline5testss_69pipeline_applies_transforms_to_rectangular_images_with_shape_metadata0B9_
FNDA:2,_RNvNtNtNtCs1xmhvdYWKG8_9neuralnet3cnn13data_pipeline5tests18striped_square_8x8
FNDA:1,_RNvNtNtNtCs1xmhvdYWKG8_9neuralnet3cnn13data_pipeline5testss_40pipeline_is_deterministic_with_same_seed
FNDA:1,_RNvNtNtNtCs1xmhvdYWKG8_9neuralnet3cnn13data_pipeline5testss_43dataloader_drop_last_and_shuffle_are_stable
FNDA:1,_RNvNtNtNtCs1xmhvdYWKG8_9neuralnet3cnn13data_pipeline5testss_47train_and_eval_modes_apply_different_randomness
FNDA:1,_RNvNtNtNtCs1xmhvdYWKG8_9neuralnet3cnn13data_pipeline5testss_69pipeline_applies_transforms_to_rectangular_images_with_shape_metadata
FNF:48
FNH:34
DA:13,6
DA:14,6
DA:15,0
DA:16,6
DA:18,6
DA:19,6
DA:20,6
DA:21,6
DA:22,6
DA:23,6
DA:38,7
DA:39,7
DA:40,0
DA:42,7
DA:44,7
DA:45,7
DA:47,277
DA:48,277
DA:49,277
DA:50,277
DA:51,277
DA:52,277
DA:53,277
DA:54,277
DA:56,267
DA:57,267
DA:58,267
DA:59,267
DA:61,14
DA:62,14
DA:63,4
DA:64,10
DA:65,10
DA:66,10
DA:67,14
DA:69,6
DA:70,6
DA:71,6
DA:73,5
DA:74,5
DA:75,5
DA:77,128
DA:78,128
DA:79,0
DA:80,128
DA:82,128
DA:83,128
DA:84,128
DA:85,128
DA:86,128
DA:110,3
DA:111,3
DA:112,3
DA:114,0
DA:115,0
DA:116,0
DA:118,4
DA:119,4
DA:120,4
DA:122,5
DA:123,5
DA:124,5
DA:125,5
DA:126,5
DA:127,5
DA:128,5
DA:129,5
DA:130,5
DA:131,0
DA:134,17
DA:135,17
DA:139,12
DA:140,5
DA:143,17
DA:144,2
DA:145,15
DA:147,15
DA:150,5
DA:151,5
DA:162,5
DA:163,5
DA:164,5
DA:165,5
DA:166,5
DA:167,5
DA:168,5
DA:170,0
DA:171,0
DA:172,0
DA:173,0
DA:174,0
DA:175,0
DA:176,0
DA:194,0
DA:195,0
DA:196,0
DA:197,0
DA:198,0
DA:199,0
DA:200,0
DA:201,0
DA:202,0
DA:212,1
DA:213,1
DA:214,1
DA:216,0
DA:217,0
DA:218,0
DA:219,0
DA:220,0
DA:221,0
DA:222,0
DA:223,0
DA:224,0
DA:225,0
DA:226,0
DA:228,0
DA:229,0
DA:230,0
DA:231,0
DA:232,0
DA:233,0
DA:234,0
DA:235,0
DA:236,0
DA:237,0
DA:238,0
DA:240,0
DA:241,0
DA:242,0
DA:244,0
DA:245,0
DA:246,0
DA:248,0
DA:249,0
DA:250,0
DA:252,2
DA:253,2
DA:254,2
DA:255,2
DA:256,2
DA:258,6
DA:259,4
DA:260,4
DA:261,0
DA:262,4
DA:264,4
DA:265,4
DA:266,8
DA:267,4
DA:269,4
DA:270,4
DA:273,2
DA:274,2
DA:276,2
DA:277,2
DA:278,2
DA:279,2
DA:280,2
DA:282,2
DA:283,2
DA:284,2
DA:285,2
DA:286,2
DA:288,2
DA:289,2
DA:291,0
DA:292,0
DA:293,0
DA:295,0
DA:296,0
DA:297,0
DA:299,0
DA:300,0
DA:301,0
DA:303,0
DA:304,0
DA:305,0
DA:306,0
DA:307,0
DA:308,0
DA:309,0
DA:310,0
DA:313,0
DA:314,0
DA:315,0
DA:316,0
DA:317,0
DA:329,5
DA:330,5
DA:331,1
DA:332,4
DA:334,5
DA:335,5
DA:336,0
DA:337,5
DA:338,5
DA:339,5
DA:340,5
DA:341,5
DA:342,5
DA:343,5
DA:344,5
DA:347,4
DA:348,4
DA:349,4
DA:350,4
DA:352,2
DA:353,2
DA:354,0
DA:355,2
DA:357,2
DA:358,8
DA:359,8
DA:360,8
DA:361,8
DA:362,2
DA:364,15
DA:365,15
DA:366,3
DA:367,3
DA:368,3
DA:369,3
DA:371,2
DA:372,2
DA:373,2
DA:375,3
DA:376,3
DA:377,3
DA:378,3
DA:379,3
DA:380,3
DA:381,3
DA:382,2
DA:383,2
DA:384,2
DA:385,2
DA:387,5
DA:388,5
DA:389,5
DA:391,15
DA:393,3
DA:394,3
DA:395,24
DA:396,96
DA:397,96
DA:398,96
DA:399,96
DA:400,96
DA:401,96
DA:404,3
DA:406,2
DA:407,2
DA:408,2
DA:409,0
DA:410,2
DA:412,2
DA:413,2
DA:414,2
DA:415,2
DA:416,2
DA:417,2
DA:419,2
DA:420,16
DA:421,128
DA:422,128
DA:423,128
DA:424,128
DA:425,128
DA:426,128
DA:430,2
DA:431,2
DA:432,2
DA:433,2
DA:434,2
DA:435,2
DA:436,2
DA:438,2
DA:440,2
DA:441,2
DA:442,2
DA:443,2
DA:444,2
DA:445,2
DA:446,2
DA:447,2
DA:448,2
DA:449,16
DA:450,16
DA:451,128
DA:452,128
DA:453,128
DA:454,128
DA:455,128
DA:456,128
DA:457,128
DA:460,2
DA:461,2
DA:463,3
DA:464,3
DA:465,192
DA:466,192
DA:467,192
DA:468,192
DA:469,192
DA:470,3
DA:472,2
DA:473,128
DA:474,128
DA:475,128
DA:476,128
DA:477,128
DA:478,2
DA:480,5
DA:481,5
DA:482,5
DA:484,304
DA:485,304
DA:486,304
DA:487,304
DA:489,5
DA:490,1
DA:491,4
DA:493,4
DA:494,256
DA:495,256
DA:496,256
DA:497,256
DA:498,5
DA:500,704
DA:501,704
DA:502,704
DA:504,4
DA:505,4
DA:506,0
DA:507,4
DA:509,4
DA:510,4
DA:511,4
DA:512,0
DA:513,4
DA:515,4
DA:516,4
DA:517,4
DA:518,4
DA:519,0
DA:522,0
DA:523,4
DA:529,2
DA:530,2
DA:531,16
DA:532,128
DA:533,128
DA:534,64
DA:535,64
DA:536,64
DA:537,64
DA:540,2
DA:541,2
DA:544,1
DA:545,1
DA:546,1
DA:547,1
DA:548,1
DA:549,1
DA:550,1
DA:551,1
DA:552,1
DA:553,1
DA:554,1
DA:555,1
DA:556,1
DA:558,1
DA:560,1
DA:561,1
DA:562,1
DA:563,1
DA:565,1
DA:566,1
DA:569,1
DA:570,1
DA:571,1
DA:572,1
DA:573,1
DA:574,1
DA:575,1
DA:576,1
DA:579,1
DA:580,1
DA:581,1
DA:583,1
DA:584,1
DA:586,1
DA:587,1
DA:588,1
DA:589,1
DA:592,1
DA:593,1
DA:594,1
DA:595,1
DA:597,1
DA:598,1
DA:600,1
DA:601,1
DA:602,1
DA:605,1
DA:606,1
DA:607,1
DA:608,1
DA:609,1
DA:610,1
DA:611,1
DA:613,1
DA:614,1
DA:615,1
DA:616,1
DA:617,1
DA:618,1
DA:619,1
DA:620,1
DA:621,1
DA:624,1
DA:625,1
DA:627,1
DA:628,1
DA:629,2
DA:630,1
BRF:0
BRH:0
LF:432
LH:345
end_of_record
SF:/Users/samcolak/Source Code/rust/neuron_server/library/neuralnet/src/cnn/feature_extractor.rs
FN:30,_RNvXNtNtCs1xmhvdYWKG8_9neuralnet3cnn17feature_extractorNtB2_24CnnFeatureExtractorErrorNtNtCse2qo0L34Llq_4core3fmt7Display3fmt
FN:88,_RNCNvMs3_NtNtCs1xmhvdYWKG8_9neuralnet3cnn17feature_extractorNtB7_19CnnFeatureExtractor3new0Bb_
FN:297,_RNvNtNtNtCs1xmhvdYWKG8_9neuralnet3cnn17feature_extractor5testss_34extractor_rejects_non_square_image
FN:310,_RNvNtNtNtCs1xmhvdYWKG8_9neuralnet3cnn17feature_extractor5testss_40extractor_accepts_rgb_square_image_bytes
FN:284,_RNvNtNtNtCs1xmhvdYWKG8_9neuralnet3cnn17feature_extractor5testss_42extractor_produces_tokens_for_square_image
FN:326,_RNvNtNtNtCs1xmhvdYWKG8_9neuralnet3cnn17feature_extractor5testss_44extractor_tokens_remain_stable_on_fused_path
FN:339,_RNvNtNtNtCs1xmhvdYWKG8_9neuralnet3cnn17feature_extractor5testss_62extractor_supports_rectangular_images_with_explicit_dimensions
FN:315,_RNCNvNtNtNtCs1xmhvdYWKG8_9neuralnet3cnn17feature_extractor5testss_40extractor_accepts_rgb_square_image_bytes0B9_
FN:320,_RNCNvNtNtNtCs1xmhvdYWKG8_9neuralnet3cnn17feature_extractor5testss_40extractor_accepts_rgb_square_image_bytess_0B9_
FN:290,_RNCNvNtNtNtCs1xmhvdYWKG8_9neuralnet3cnn17feature_extractor5testss_42extractor_produces_tokens_for_square_image0B9_
FN:293,_RNCNvNtNtNtCs1xmhvdYWKG8_9neuralnet3cnn17feature_extractor5testss_42extractor_produces_tokens_for_square_images_0B9_
FN:332,_RNCNvNtNtNtCs1xmhvdYWKG8_9neuralnet3cnn17feature_extractor5testss_44extractor_tokens_remain_stable_on_fused_path0B9_
FN:335,_RNCNvNtNtNtCs1xmhvdYWKG8_9neuralnet3cnn17feature_extractor5testss_44extractor_tokens_remain_stable_on_fused_paths_0B9_
FN:344,_RNCNvNtNtNtCs1xmhvdYWKG8_9neuralnet3cnn17feature_extractor5testss_62extractor_supports_rectangular_images_with_explicit_dimensions0B9_
FN:348,_RNCNvNtNtNtCs1xmhvdYWKG8_9neuralnet3cnn17feature_extractor5testss_62extractor_supports_rectangular_images_with_explicit_dimensionss_0B9_
FN:99,_RNvMs3_NtNtCs1xmhvdYWKG8_9neuralnet3cnn17feature_extractorNtB5_19CnnFeatureExtractor22extract_feature_tokens
FN:151,_RNvMs3_NtNtCs1xmhvdYWKG8_9neuralnet3cnn17feature_extractorNtB5_19CnnFeatureExtractor38extract_feature_tokens_with_dimensions
FN:72,_RNvMs3_NtNtCs1xmhvdYWKG8_9neuralnet3cnn17feature_extractorNtB5_19CnnFeatureExtractor3new
FN:246,_RNvNtNtCs1xmhvdYWKG8_9neuralnet3cnn17feature_extractor17quantize_channels
FN:225,_RNvNtNtCs1xmhvdYWKG8_9neuralnet3cnn17feature_extractor26collapse_to_single_channel
FN:200,_RNvNtNtCs1xmhvdYWKG8_9neuralnet3cnn17feature_extractor36infer_square_dimensions_and_channels
FN:53,_RNvXs0_NtNtCs1xmhvdYWKG8_9neuralnet3cnn17feature_extractorNtB5_24CnnFeatureExtractorErrorINtNtCse2qo0L34Llq_4core7convert4FromNtNtNtB9_6tensor8adapters18TensorAdapterErrorE4from
FN:59,_RNvXs1_NtNtCs1xmhvdYWKG8_9neuralnet3cnn17feature_extractorNtB5_24CnnFeatureExtractorErrorINtNtCse2qo0L34Llq_4core7convert4FromNtNtNtB9_6tensor8tensor4d11TensorErrorE4from
FN:65,_RNvXs2_NtNtCs1xmhvdYWKG8_9neuralnet3cnn17feature_extractorNtB5_19CnnFeatureExtractorNtNtCse2qo0L34Llq_4core7default7Default7default
FNDA:0,_RNvXNtNtCs1xmhvdYWKG8_9neuralnet3cnn17feature_extractorNtB2_24CnnFeatureExtractorErrorNtNtCse2qo0L34Llq_4core3fmt7Display3fmt
FNDA:0,_RNCNvMs3_NtNtCs1xmhvdYWKG8_9neuralnet3cnn17feature_extractorNtB7_19CnnFeatureExtractor3new0Bb_
FNDA:1,_RNvNtNtNtCs1xmhvdYWKG8_9neuralnet3cnn17feature_extractor5testss_34extractor_rejects_non_square_image
FNDA:1,_RNvNtNtNtCs1xmhvdYWKG8_9neuralnet3cnn17feature_extractor5testss_40extractor_accepts_rgb_square_image_bytes
FNDA:1,_RNvNtNtNtCs1xmhvdYWKG8_9neuralnet3cnn17feature_extractor5testss_42extractor_produces_tokens_for_square_image
FNDA:1,_RNvNtNtNtCs1xmhvdYWKG8_9neuralnet3cnn17feature_extractor5testss_44extractor_tokens_remain_stable_on_fused_path
FNDA:1,_RNvNtNtNtCs1xmhvdYWKG8_9neuralnet3cnn17feature_extractor5testss_62extractor_supports_rectangular_images_with_explicit_dimensions
FNDA:64,_RNCNvNtNtNtCs1xmhvdYWKG8_9neuralnet3cnn17feature_extractor5testss_40extractor_accepts_rgb_square_image_bytes0B9_
FNDA:0,_RNCNvNtNtNtCs1xmhvdYWKG8_9neuralnet3cnn17feature_extractor5testss_40extractor_accepts_rgb_square_image_bytess_0B9_
FNDA:0,_RNCNvNtNtNtCs1xmhvdYWKG8_9neuralnet3cnn17feature_extractor5testss_42extractor_produces_tokens_for_square_image0B9_
FNDA:5,_RNCNvNtNtNtCs1xmhvdYWKG8_9neuralnet3cnn17feature_extractor5testss_42extractor_produces_tokens_for_square_images_0B9_
FNDA:0,_RNCNvNtNtNtCs1xmhvdYWKG8_9neuralnet3cnn17feature_extractor5testss_44extractor_tokens_remain_stable_on_fused_path0B9_
FNDA:5,_RNCNvNtNtNtCs1xmhvdYWKG8_9neuralnet3cnn17feature_extractor5testss_44extractor_tokens_remain_stable_on_fused_paths_0B9_
FNDA:0,_RNCNvNtNtNtCs1xmhvdYWKG8_9neuralnet3cnn17feature_extractor5testss_62extractor_supports_rectangular_images_with_explicit_dimensions0B9_
FNDA:0,_RNCNvNtNtNtCs1xmhvdYWKG8_9neuralnet3cnn17feature_extractor5testss_62extractor_supports_rectangular_images_with_explicit_dimensionss_0B9_
FNDA:26,_RNvMs3_NtNtCs1xmhvdYWKG8_9neuralnet3cnn17feature_extractorNtB5_19CnnFeatureExtractor22extract_feature_tokens
FNDA:1,_RNvMs3_NtNtCs1xmhvdYWKG8_9neuralnet3cnn17feature_extractorNtB5_19CnnFeatureExtractor38extract_feature_tokens_with_dimensions
FNDA:9,_RNvMs3_NtNtCs1xmhvdYWKG8_9neuralnet3cnn17feature_extractorNtB5_19CnnFeatureExtractor3new
FNDA:25,_RNvNtNtCs1xmhvdYWKG8_9neuralnet3cnn17feature_extractor17quantize_channels
FNDA:1,_RNvNtNtCs1xmhvdYWKG8_9neuralnet3cnn17feature_extractor26collapse_to_single_channel
FNDA:26,_RNvNtNtCs1xmhvdYWKG8_9neuralnet3cnn17feature_extractor36infer_square_dimensions_and_channels
FNDA:0,_RNvXs0_NtNtCs1xmhvdYWKG8_9neuralnet3cnn17feature_extractorNtB5_24CnnFeatureExtractorErrorINtNtCse2qo0L34Llq_4core7convert4FromNtNtNtB9_6tensor8adapters18TensorAdapterErrorE4from
FNDA:0,_RNvXs1_NtNtCs1xmhvdYWKG8_9neuralnet3cnn17feature_extractorNtB5_24CnnFeatureExtractorErrorINtNtCse2qo0L34Llq_4core7convert4FromNtNtNtB9_6tensor8tensor4d11TensorErrorE4from
FNDA:5,_RNvXs2_NtNtCs1xmhvdYWKG8_9neuralnet3cnn17feature_extractorNtB5_19CnnFeatureExtractorNtNtCse2qo0L34Llq_4core7default7Default7default
FNF:24
FNH:15
DA:30,0
DA:32,0
DA:34,0
DA:35,0
DA:36,0
DA:42,0
DA:43,0
DA:46,0
DA:53,0
DA:54,0
DA:55,0
DA:59,0
DA:60,0
DA:61,0
DA:65,5
DA:66,5
DA:67,5
DA:72,9
DA:74,9
DA:79,9
DA:88,9
DA:90,9
DA:91,9
DA:92,9
DA:93,9
DA:94,9
DA:95,9
DA:97,9
DA:99,26
DA:100,26
DA:101,26
DA:102,26
DA:104,26
DA:105,26
DA:106,26
DA:107,26
DA:108,2
DA:110,24
DA:111,24
DA:112,24
DA:113,24
DA:114,24
DA:115,24
DA:116,24
DA:118,0
DA:120,24
DA:121,23
DA:123,1
DA:126,24
DA:127,24
DA:128,24
DA:135,0
DA:136,24
DA:138,24
DA:139,24
DA:140,0
DA:142,24
DA:144,24
DA:145,24
DA:147,24
DA:149,26
DA:151,1
DA:152,1
DA:153,1
DA:154,1
DA:155,1
DA:157,1
DA:158,1
DA:159,1
DA:160,1
DA:161,1
DA:162,1
DA:163,1
DA:165,0
DA:167,1
DA:168,1
DA:170,0
DA:173,1
DA:174,1
DA:175,1
DA:182,0
DA:183,1
DA:185,1
DA:186,1
DA:187,0
DA:189,1
DA:191,1
DA:192,1
DA:194,1
DA:196,1
DA:200,26
DA:202,26
DA:203,0
DA:204,26
DA:206,26
DA:208,31
DA:209,31
DA:210,2
DA:211,29
DA:213,29
DA:214,29
DA:216,29
DA:217,24
DA:218,5
DA:221,2
DA:223,26
DA:225,1
DA:227,1
DA:228,1
DA:230,1
DA:231,16
DA:232,256
DA:233,256
DA:234,768
DA:235,768
DA:237,256
DA:242,1
DA:244,1
DA:246,25
DA:248,25
DA:249,25
DA:251,50
DA:252,50
DA:253,50
DA:255,350
DA:256,2450
DA:257,2450
DA:258,2450
DA:259,2450
DA:260,41
DA:261,2409
DA:265,50
DA:266,50
DA:267,50
DA:268,50
DA:270,50
DA:271,50
DA:274,25
DA:276,25
DA:284,1
DA:285,1
DA:286,1
DA:288,1
DA:289,1
DA:290,1
DA:292,1
DA:293,5
DA:294,1
DA:297,1
DA:298,1
DA:299,1
DA:301,1
DA:303,1
DA:304,1
DA:307,1
DA:310,1
DA:311,1
DA:312,1
DA:313,1
DA:314,1
DA:315,64
DA:316,1
DA:318,1
DA:319,1
DA:320,1
DA:322,1
DA:323,1
DA:326,1
DA:327,1
DA:328,1
DA:330,1
DA:331,1
DA:332,1
DA:334,1
DA:335,5
DA:336,1
DA:339,1
DA:341,1
DA:342,1
DA:343,1
DA:344,1
DA:346,1
DA:347,1
DA:348,1
DA:350,1
DA:352,1
BRF:0
BRH:0
LF:195
LH:167
end_of_record
SF:/Users/samcolak/Source Code/rust/neuron_server/library/neuralnet/src/core/brain.rs
FN:525,_RNCNvMs_NtNtCs1xmhvdYWKG8_9neuralnet4core5brainNtB6_15MultiModalBrain20all_dendrites_sorted0Ba_
FN:529,_RNvMs_NtNtCs1xmhvdYWKG8_9neuralnet4core5brainNtB4_15MultiModalBrain17snapshot_instance
FN:522,_RNvMs_NtNtCs1xmhvdYWKG8_9neuralnet4core5brainNtB4_15MultiModalBrain20all_dendrites_sorted
FN:181,_RNvMs_NtNtCs1xmhvdYWKG8_9neuralnet4core5brainNtB4_15MultiModalBrain20enable_auto_snapshot
FN:209,_RNvMs_NtNtCs1xmhvdYWKG8_9neuralnet4core5brainNtB4_15MultiModalBrain21disable_auto_snapshot
FN:408,_RNvMs_NtNtCs1xmhvdYWKG8_9neuralnet4core5brainNtB4_15MultiModalBrain21enable_cnn_image_path
FN:412,_RNvMs_NtNtCs1xmhvdYWKG8_9neuralnet4core5brainNtB4_15MultiModalBrain22disable_cnn_image_path
FN:767,_RNvMs_NtNtCs1xmhvdYWKG8_9neuralnet4core5brainNtB4_15MultiModalBrain22insert_image_from_file
FN:541,_RNvMs_NtNtCs1xmhvdYWKG8_9neuralnet4core5brainNtB4_15MultiModalBrain22load_snapshot_instance
FN:171,_RNvMs_NtNtCs1xmhvdYWKG8_9neuralnet4core5brainNtB4_15MultiModalBrain24enable_query_score_cache
FN:176,_RNvMs_NtNtCs1xmhvdYWKG8_9neuralnet4core5brainNtB4_15MultiModalBrain25disable_query_score_cache
FN:416,_RNvMs_NtNtCs1xmhvdYWKG8_9neuralnet4core5brainNtB4_15MultiModalBrain25is_cnn_image_path_enabled
FN:563,_RNvMs_NtNtCs1xmhvdYWKG8_9neuralnet4core5brainNtB4_15MultiModalBrain34snapshot_paths_for_instance_in_dir
FN:953,_RNvNtNtCs1xmhvdYWKG8_9neuralnet4core5brain27snapshot_paths_for_instance
FN:1245,_RNCNvNtNtNtCs1xmhvdYWKG8_9neuralnet4core5brain5testss_47brain_dump_separates_cognitive_and_memory_state0B9_
FN:1257,_RNCNvNtNtNtCs1xmhvdYWKG8_9neuralnet4core5brain5testss_47brain_dump_separates_cognitive_and_memory_states0_0B9_
FN:1263,_RNCNvNtNtNtCs1xmhvdYWKG8_9neuralnet4core5brain5testss_47brain_dump_separates_cognitive_and_memory_states1_0B9_
FN:1265,_RNCNvNtNtNtCs1xmhvdYWKG8_9neuralnet4core5brain5testss_47brain_dump_separates_cognitive_and_memory_states2_0B9_
FN:1251,_RNCNvNtNtNtCs1xmhvdYWKG8_9neuralnet4core5brain5testss_47brain_dump_separates_cognitive_and_memory_states_0B9_
FN:1090,_RNvNtNtNtCs1xmhvdYWKG8_9neuralnet4core5brain5tests17snapshot_test_dir
FN:1096,_RNvNtNtNtCs1xmhvdYWKG8_9neuralnet4core5brain5tests25cleanup_snapshot_test_dir
FN:1336,_RNvNtNtNtCs1xmhvdYWKG8_9neuralnet4core5brain5testss_37brain_snapshot_writes_v2_magic_header
FN:1185,_RNvNtNtNtCs1xmhvdYWKG8_9neuralnet4core5brain5testss_38brain_rejects_missing_truth_image_file
FN:1125,_RNvNtNtNtCs1xmhvdYWKG8_9neuralnet4core5brain5testss_39brain_absorbs_truth_into_memory_network
FN:1418,_RNvNtNtNtCs1xmhvdYWKG8_9neuralnet4core5brain5testss_39brain_snapshot_instances_do_not_collide
FN:1167,_RNvNtNtNtCs1xmhvdYWKG8_9neuralnet4core5brain5testss_40brain_rejects_empty_questions_as_invalid
FN:1101,_RNvNtNtNtCs1xmhvdYWKG8_9neuralnet4core5brain5testss_42brain_routes_learning_to_cognitive_network
FN:1360,_RNvNtNtNtCs1xmhvdYWKG8_9neuralnet4core5brain5testss_43brain_auto_snapshot_batches_by_insert_count
FN:1217,_RNvNtNtNtCs1xmhvdYWKG8_9neuralnet4core5brain5testss_44brain_recommends_store_for_confident_matches
FN:1144,_RNvNtNtNtCs1xmhvdYWKG8_9neuralnet4core5brain5testss_45brain_absorbs_truth_image_into_memory_network
FN:1390,_RNvNtNtNtCs1xmhvdYWKG8_9neuralnet4core5brain5testss_46brain_auto_snapshot_flush_persists_dirty_state
FN:1230,_RNvNtNtNtCs1xmhvdYWKG8_9neuralnet4core5brain5testss_47brain_dump_separates_cognitive_and_memory_state
FN:1204,_RNvNtNtNtCs1xmhvdYWKG8_9neuralnet4core5brain5testss_55brain_returns_negative_score_when_network_cannot_answer
FN:1298,_RNvNtNtNtCs1xmhvdYWKG8_9neuralnet4core5brain5testss_64brain_snapshot_round_trip_restores_cognitive_and_memory_networks
FN:1270,_RNvNtNtNtCs1xmhvdYWKG8_9neuralnet4core5brain5testss_70brain_classifier_ready_input_uses_cnn_feature_tokens_for_square_images
FN:1287,_RNvNtNtNtCs1xmhvdYWKG8_9neuralnet4core5brain5testss_79brain_classifier_ready_input_falls_back_when_cnn_extractor_cannot_process_image
FN:128,_RNCNvMNtNtCs1xmhvdYWKG8_9neuralnet4core5brainNtB4_15QueryScoreCache9touch_key0B8_
FN:619,_RNCNvMs_NtNtCs1xmhvdYWKG8_9neuralnet4core5brainNtB6_15MultiModalBrain19format_network_dump0Ba_
FN:929,_RNCNvNtNtCs1xmhvdYWKG8_9neuralnet4core5brain20sanitize_instance_id0B7_
FN:798,_RNCNvNtNtCs1xmhvdYWKG8_9neuralnet4core5brain28encode_brain_snapshot_bundle0B7_
FN:969,_RNCNvNtNtCs1xmhvdYWKG8_9neuralnet4core5brain33snapshot_bundle_path_for_instance0B7_
FN:990,_RNCNvNtNtCs1xmhvdYWKG8_9neuralnet4core5brain33transaction_log_path_for_instance0B7_
FN:836,_RNCNvNtNtCs1xmhvdYWKG8_9neuralnet4core5brain36load_brain_snapshot_bundle_from_file0B7_
FN:1018,_RNCNvNtNtCs1xmhvdYWKG8_9neuralnet4core5brain37snapshot_component_paths_for_instance0B7_
FN:1066,_RNCNvNtNtCs1xmhvdYWKG8_9neuralnet4core5brain37snapshot_component_paths_for_instances0_0B7_
FN:1061,_RNCNvNtNtCs1xmhvdYWKG8_9neuralnet4core5brain37snapshot_component_paths_for_instances_0B7_
FN:91,_RNvMNtNtCs1xmhvdYWKG8_9neuralnet4core5brainNtB2_15QueryScoreCache13with_capacity
FN:99,_RNvMNtNtCs1xmhvdYWKG8_9neuralnet4core5brainNtB2_15QueryScoreCache3get
FN:122,_RNvMNtNtCs1xmhvdYWKG8_9neuralnet4core5brainNtB2_15QueryScoreCache5clear
FN:105,_RNvMNtNtCs1xmhvdYWKG8_9neuralnet4core5brainNtB2_15QueryScoreCache6insert
FN:127,_RNvMNtNtCs1xmhvdYWKG8_9neuralnet4core5brainNtB2_15QueryScoreCache9touch_key
FN:442,_RNvMs_NtNtCs1xmhvdYWKG8_9neuralnet4core5brainNtB4_15MultiModalBrain10classifier
FN:585,_RNvMs_NtNtCs1xmhvdYWKG8_9neuralnet4core5brainNtB4_15MultiModalBrain10dump_brain
FN:671,_RNvMs_NtNtCs1xmhvdYWKG8_9neuralnet4core5brainNtB4_15MultiModalBrain11insert_text
FN:464,_RNvMs_NtNtCs1xmhvdYWKG8_9neuralnet4core5brainNtB4_15MultiModalBrain12absorb_truth
FN:446,_RNvMs_NtNtCs1xmhvdYWKG8_9neuralnet4core5brainNtB4_15MultiModalBrain14classifier_mut
FN:438,_RNvMs_NtNtCs1xmhvdYWKG8_9neuralnet4core5brainNtB4_15MultiModalBrain14memory_network
FN:158,_RNvMs_NtNtCs1xmhvdYWKG8_9neuralnet4core5brainNtB4_15MultiModalBrain14new_multimodal
FN:343,_RNvMs_NtNtCs1xmhvdYWKG8_9neuralnet4core5brainNtB4_15MultiModalBrain15query_cache_key
FN:485,_RNvMs_NtNtCs1xmhvdYWKG8_9neuralnet4core5brainNtB4_15MultiModalBrain16absorb_true_text
FN:450,_RNvMs_NtNtCs1xmhvdYWKG8_9neuralnet4core5brainNtB4_15MultiModalBrain16classify_pattern
FN:434,_RNvMs_NtNtCs1xmhvdYWKG8_9neuralnet4core5brainNtB4_15MultiModalBrain17cognitive_network
FN:592,_RNvMs_NtNtCs1xmhvdYWKG8_9neuralnet4core5brainNtB4_15MultiModalBrain17format_brain_dump
FN:637,_RNvMs_NtNtCs1xmhvdYWKG8_9neuralnet4core5brainNtB4_15MultiModalBrain17insert_multimodal
FN:691,_RNvMs_NtNtCs1xmhvdYWKG8_9neuralnet4core5brainNtB4_15MultiModalBrain18insert_image_bytes
FN:578,_RNvMs_NtNtCs1xmhvdYWKG8_9neuralnet4core5brainNtB4_15MultiModalBrain19dump_memory_network
FN:684,_RNvMs_NtNtCs1xmhvdYWKG8_9neuralnet4core5brainNtB4_15MultiModalBrain19enumerate_text_path
FN:222,_RNvMs_NtNtCs1xmhvdYWKG8_9neuralnet4core5brainNtB4_15MultiModalBrain19flush_auto_snapshot
FN:607,_RNvMs_NtNtCs1xmhvdYWKG8_9neuralnet4core5brainNtB4_15MultiModalBrain19format_network_dump
FN:275,_RNvMs_NtNtCs1xmhvdYWKG8_9neuralnet4core5brainNtB4_15MultiModalBrain21flush_transaction_log
FN:420,_RNvMs_NtNtCs1xmhvdYWKG8_9neuralnet4core5brainNtB4_15MultiModalBrain22classifier_ready_input
FN:455,_RNvMs_NtNtCs1xmhvdYWKG8_9neuralnet4core5brainNtB4_15MultiModalBrain22classify_pattern_top_k
FN:571,_RNvMs_NtNtCs1xmhvdYWKG8_9neuralnet4core5brainNtB4_15MultiModalBrain22dump_cognitive_network
FN:214,_RNvMs_NtNtCs1xmhvdYWKG8_9neuralnet4core5brainNtB4_15MultiModalBrain22invalidate_query_cache
FN:498,_RNvMs_NtNtCs1xmhvdYWKG8_9neuralnet4core5brainNtB4_15MultiModalBrain23absorb_true_image_bytes
FN:751,_RNvMs_NtNtCs1xmhvdYWKG8_9neuralnet4core5brainNtB4_15MultiModalBrain23decide_question_storage
FN:262,_RNvMs_NtNtCs1xmhvdYWKG8_9neuralnet4core5brainNtB4_15MultiModalBrain24auto_snapshot_last_error
FN:535,_RNvMs_NtNtCs1xmhvdYWKG8_9neuralnet4core5brainNtB4_15MultiModalBrain24snapshot_instance_in_dir
FN:658,_RNvMs_NtNtCs1xmhvdYWKG8_9neuralnet4core5brainNtB4_15MultiModalBrain25enumerate_multimodal_path
FN:296,_RNvMs_NtNtCs1xmhvdYWKG8_9neuralnet4core5brainNtB4_15MultiModalBrain26auto_snapshot_target_paths
FN:704,_RNvMs_NtNtCs1xmhvdYWKG8_9neuralnet4core5brainNtB4_15MultiModalBrain26enumerate_image_bytes_path
FN:511,_RNvMs_NtNtCs1xmhvdYWKG8_9neuralnet4core5brainNtB4_15MultiModalBrain27absorb_true_image_from_file
FN:192,_RNvMs_NtNtCs1xmhvdYWKG8_9neuralnet4core5brainNtB4_15MultiModalBrain27enable_auto_snapshot_in_dir
FN:711,_RNvMs_NtNtCs1xmhvdYWKG8_9neuralnet4core5brainNtB4_15MultiModalBrain27evaluate_question_fuzziness
FN:326,_RNvMs_NtNtCs1xmhvdYWKG8_9neuralnet4core5brainNtB4_15MultiModalBrain28append_transaction_operation
FN:375,_RNvMs_NtNtCs1xmhvdYWKG8_9neuralnet4core5brainNtB4_15MultiModalBrain28submit_snapshot_bundle_write
FN:311,_RNvMs_NtNtCs1xmhvdYWKG8_9neuralnet4core5brainNtB4_15MultiModalBrain28transaction_log_target_paths
FN:258,_RNvMs_NtNtCs1xmhvdYWKG8_9neuralnet4core5brainNtB4_15MultiModalBrain29auto_snapshot_pending_inserts
FN:404,_RNvMs_NtNtCs1xmhvdYWKG8_9neuralnet4core5brainNtB4_15MultiModalBrain29enable_default_cnn_image_path
FN:546,_RNvMs_NtNtCs1xmhvdYWKG8_9neuralnet4core5brainNtB4_15MultiModalBrain29load_snapshot_instance_in_dir
FN:390,_RNvMs_NtNtCs1xmhvdYWKG8_9neuralnet4core5brainNtB4_15MultiModalBrain32maybe_auto_snapshot_after_insert
FN:266,_RNvMs_NtNtCs1xmhvdYWKG8_9neuralnet4core5brainNtB4_15MultiModalBrain38configure_transaction_log_for_instance
FN:555,_RNvMs_NtNtCs1xmhvdYWKG8_9neuralnet4core5brainNtB4_15MultiModalBrain40snapshot_bundle_path_for_instance_in_dir
FN:925,_RNvNtNtCs1xmhvdYWKG8_9neuralnet4core5brain20sanitize_instance_id
FN:940,_RNvNtNtCs1xmhvdYWKG8_9neuralnet4core5brain23fingerprint_instance_id
FN:902,_RNvNtNtCs1xmhvdYWKG8_9neuralnet4core5brain27apply_transaction_operation
FN:790,_RNvNtNtCs1xmhvdYWKG8_9neuralnet4core5brain28encode_brain_snapshot_bundle
FN:860,_RNvNtNtCs1xmhvdYWKG8_9neuralnet4core5brain32load_snapshot_status_from_bundle
FN:963,_RNvNtNtCs1xmhvdYWKG8_9neuralnet4core5brain33snapshot_bundle_path_for_instance
FN:984,_RNvNtNtCs1xmhvdYWKG8_9neuralnet4core5brain33transaction_log_path_for_instance
FN:783,_RNvNtNtCs1xmhvdYWKG8_9neuralnet4core5brain34save_brain_snapshot_bundle_to_file
FN:812,_RNvNtNtCs1xmhvdYWKG8_9neuralnet4core5brain36load_brain_snapshot_bundle_from_file
FN:1005,_RNvNtNtCs1xmhvdYWKG8_9neuralnet4core5brain37snapshot_component_paths_for_instance
FN:883,_RNvNtNtCs1xmhvdYWKG8_9neuralnet4core5brain44load_snapshot_status_with_transaction_replay
FNDA:0,_RNCNvMs_NtNtCs1xmhvdYWKG8_9neuralnet4core5brainNtB6_15MultiModalBrain20all_dendrites_sorted0Ba_
FNDA:0,_RNvMs_NtNtCs1xmhvdYWKG8_9neuralnet4core5brainNtB4_15MultiModalBrain17snapshot_instance
FNDA:0,_RNvMs_NtNtCs1xmhvdYWKG8_9neuralnet4core5brainNtB4_15MultiModalBrain20all_dendrites_sorted
FNDA:0,_RNvMs_NtNtCs1xmhvdYWKG8_9neuralnet4core5brainNtB4_15MultiModalBrain20enable_auto_snapshot
FNDA:0,_RNvMs_NtNtCs1xmhvdYWKG8_9neuralnet4core5brainNtB4_15MultiModalBrain21disable_auto_snapshot
FNDA:0,_RNvMs_NtNtCs1xmhvdYWKG8_9neuralnet4core5brainNtB4_15MultiModalBrain21enable_cnn_image_path
FNDA:0,_RNvMs_NtNtCs1xmhvdYWKG8_9neuralnet4core5brainNtB4_15MultiModalBrain22disable_cnn_image_path
FNDA:0,_RNvMs_NtNtCs1xmhvdYWKG8_9neuralnet4core5brainNtB4_15MultiModalBrain22insert_image_from_file
FNDA:0,_RNvMs_NtNtCs1xmhvdYWKG8_9neuralnet4core5brainNtB4_15MultiModalBrain22load_snapshot_instance
FNDA:0,_RNvMs_NtNtCs1xmhvdYWKG8_9neuralnet4core5brainNtB4_15MultiModalBrain24enable_query_score_cache
FNDA:0,_RNvMs_NtNtCs1xmhvdYWKG8_9neuralnet4core5brainNtB4_15MultiModalBrain25disable_query_score_cache
FNDA:0,_RNvMs_NtNtCs1xmhvdYWKG8_9neuralnet4core5brainNtB4_15MultiModalBrain25is_cnn_image_path_enabled
FNDA:0,_RNvMs_NtNtCs1xmhvdYWKG8_9neuralnet4core5brainNtB4_15MultiModalBrain34snapshot_paths_for_instance_in_dir
FNDA:0,_RNvNtNtCs1xmhvdYWKG8_9neuralnet4core5brain27snapshot_paths_for_instance
FNDA:1,_RNCNvNtNtNtCs1xmhvdYWKG8_9neuralnet4core5brain5testss_47brain_dump_separates_cognitive_and_memory_state0B9_
FNDA:1,_RNCNvNtNtNtCs1xmhvdYWKG8_9neuralnet4core5brain5testss_47brain_dump_separates_cognitive_and_memory_states0_0B9_
FNDA:2,_RNCNvNtNtNtCs1xmhvdYWKG8_9neuralnet4core5brain5testss_47brain_dump_separates_cognitive_and_memory_states1_0B9_
FNDA:3,_RNCNvNtNtNtCs1xmhvdYWKG8_9neuralnet4core5brain5testss_47brain_dump_separates_cognitive_and_memory_states2_0B9_
FNDA:2,_RNCNvNtNtNtCs1xmhvdYWKG8_9neuralnet4core5brain5testss_47brain_dump_separates_cognitive_and_memory_states_0B9_
FNDA:15,_RNvNtNtNtCs1xmhvdYWKG8_9neuralnet4core5brain5tests17snapshot_test_dir
FNDA:10,_RNvNtNtNtCs1xmhvdYWKG8_9neuralnet4core5brain5tests25cleanup_snapshot_test_dir
FNDA:1,_RNvNtNtNtCs1xmhvdYWKG8_9neuralnet4core5brain5testss_37brain_snapshot_writes_v2_magic_header
FNDA:1,_RNvNtNtNtCs1xmhvdYWKG8_9neuralnet4core5brain5testss_38brain_rejects_missing_truth_image_file
FNDA:1,_RNvNtNtNtCs1xmhvdYWKG8_9neuralnet4core5brain5testss_39brain_absorbs_truth_into_memory_network
FNDA:1,_RNvNtNtNtCs1xmhvdYWKG8_9neuralnet4core5brain5testss_39brain_snapshot_instances_do_not_collide
FNDA:1,_RNvNtNtNtCs1xmhvdYWKG8_9neuralnet4core5brain5testss_40brain_rejects_empty_questions_as_invalid
FNDA:1,_RNvNtNtNtCs1xmhvdYWKG8_9neuralnet4core5brain5testss_42brain_routes_learning_to_cognitive_network
FNDA:1,_RNvNtNtNtCs1xmhvdYWKG8_9neuralnet4core5brain5testss_43brain_auto_snapshot_batches_by_insert_count
FNDA:1,_RNvNtNtNtCs1xmhvdYWKG8_9neuralnet4core5brain5testss_44brain_recommends_store_for_confident_matches
FNDA:1,_RNvNtNtNtCs1xmhvdYWKG8_9neuralnet4core5brain5testss_45brain_absorbs_truth_image_into_memory_network
FNDA:1,_RNvNtNtNtCs1xmhvdYWKG8_9neuralnet4core5brain5testss_46brain_auto_snapshot_flush_persists_dirty_state
FNDA:1,_RNvNtNtNtCs1xmhvdYWKG8_9neuralnet4core5brain5testss_47brain_dump_separates_cognitive_and_memory_state
FNDA:1,_RNvNtNtNtCs1xmhvdYWKG8_9neuralnet4core5brain5testss_55brain_returns_negative_score_when_network_cannot_answer
FNDA:1,_RNvNtNtNtCs1xmhvdYWKG8_9neuralnet4core5brain5testss_64brain_snapshot_round_trip_restores_cognitive_and_memory_networks
FNDA:1,_RNvNtNtNtCs1xmhvdYWKG8_9neuralnet4core5brain5testss_70brain_classifier_ready_input_uses_cnn_feature_tokens_for_square_images
FNDA:1,_RNvNtNtNtCs1xmhvdYWKG8_9neuralnet4core5brain5testss_79brain_classifier_ready_input_falls_back_when_cnn_extractor_cannot_process_image
FNDA:0,_RNCNvMNtNtCs1xmhvdYWKG8_9neuralnet4core5brainNtB4_15QueryScoreCache9touch_key0B8_
FNDA:3,_RNCNvMs_NtNtCs1xmhvdYWKG8_9neuralnet4core5brainNtB6_15MultiModalBrain19format_network_dump0Ba_
FNDA:490,_RNCNvNtNtCs1xmhvdYWKG8_9neuralnet4core5brain20sanitize_instance_id0B7_
FNDA:0,_RNCNvNtNtCs1xmhvdYWKG8_9neuralnet4core5brain28encode_brain_snapshot_bundle0B7_
FNDA:30,_RNCNvNtNtCs1xmhvdYWKG8_9neuralnet4core5brain33snapshot_bundle_path_for_instance0B7_
FNDA:19,_RNCNvNtNtCs1xmhvdYWKG8_9neuralnet4core5brain33transaction_log_path_for_instance0B7_
FNDA:0,_RNCNvNtNtCs1xmhvdYWKG8_9neuralnet4core5brain36load_brain_snapshot_bundle_from_file0B7_
FNDA:49,_RNCNvNtNtCs1xmhvdYWKG8_9neuralnet4core5brain37snapshot_component_paths_for_instance0B7_
FNDA:0,_RNCNvNtNtCs1xmhvdYWKG8_9neuralnet4core5brain37snapshot_component_paths_for_instances0_0B7_
FNDA:0,_RNCNvNtNtCs1xmhvdYWKG8_9neuralnet4core5brain37snapshot_component_paths_for_instances_0B7_
FNDA:39,_RNvMNtNtCs1xmhvdYWKG8_9neuralnet4core5brainNtB2_15QueryScoreCache13with_capacity
FNDA:0,_RNvMNtNtCs1xmhvdYWKG8_9neuralnet4core5brainNtB2_15QueryScoreCache3get
FNDA:0,_RNvMNtNtCs1xmhvdYWKG8_9neuralnet4core5brainNtB2_15QueryScoreCache5clear
FNDA:0,_RNvMNtNtCs1xmhvdYWKG8_9neuralnet4core5brainNtB2_15QueryScoreCache6insert
FNDA:0,_RNvMNtNtCs1xmhvdYWKG8_9neuralnet4core5brainNtB2_15QueryScoreCache9touch_key
FNDA:3,_RNvMs_NtNtCs1xmhvdYWKG8_9neuralnet4core5brainNtB4_15MultiModalBrain10classifier
FNDA:2,_RNvMs_NtNtCs1xmhvdYWKG8_9neuralnet4core5brainNtB4_15MultiModalBrain10dump_brain
FNDA:10,_RNvMs_NtNtCs1xmhvdYWKG8_9neuralnet4core5brainNtB4_15MultiModalBrain11insert_text
FNDA:8,_RNvMs_NtNtCs1xmhvdYWKG8_9neuralnet4core5brainNtB4_15MultiModalBrain12absorb_truth
FNDA:52,_RNvMs_NtNtCs1xmhvdYWKG8_9neuralnet4core5brainNtB4_15MultiModalBrain14classifier_mut
FNDA:7,_RNvMs_NtNtCs1xmhvdYWKG8_9neuralnet4core5brainNtB4_15MultiModalBrain14memory_network
FNDA:39,_RNvMs_NtNtCs1xmhvdYWKG8_9neuralnet4core5brainNtB4_15MultiModalBrain14new_multimodal
FNDA:0,_RNvMs_NtNtCs1xmhvdYWKG8_9neuralnet4core5brainNtB4_15MultiModalBrain15query_cache_key
FNDA:5,_RNvMs_NtNtCs1xmhvdYWKG8_9neuralnet4core5brainNtB4_15MultiModalBrain16absorb_true_text
FNDA:72,_RNvMs_NtNtCs1xmhvdYWKG8_9neuralnet4core5brainNtB4_15MultiModalBrain16classify_pattern
FNDA:7,_RNvMs_NtNtCs1xmhvdYWKG8_9neuralnet4core5brainNtB4_15MultiModalBrain17cognitive_network
FNDA:1,_RNvMs_NtNtCs1xmhvdYWKG8_9neuralnet4core5brainNtB4_15MultiModalBrain17format_brain_dump
FNDA:59,_RNvMs_NtNtCs1xmhvdYWKG8_9neuralnet4core5brainNtB4_15MultiModalBrain17insert_multimodal
FNDA:1,_RNvMs_NtNtCs1xmhvdYWKG8_9neuralnet4core5brainNtB4_15MultiModalBrain18insert_image_bytes
FNDA:2,_RNvMs_NtNtCs1xmhvdYWKG8_9neuralnet4core5brainNtB4_15MultiModalBrain19dump_memory_network
FNDA:11,_RNvMs_NtNtCs1xmhvdYWKG8_9neuralnet4core5brainNtB4_15MultiModalBrain19enumerate_text_path
FNDA:2,_RNvMs_NtNtCs1xmhvdYWKG8_9neuralnet4core5brainNtB4_15MultiModalBrain19flush_auto_snapshot
FNDA:2,_RNvMs_NtNtCs1xmhvdYWKG8_9neuralnet4core5brainNtB4_15MultiModalBrain19format_network_dump
FNDA:2,_RNvMs_NtNtCs1xmhvdYWKG8_9neuralnet4core5brainNtB4_15MultiModalBrain21flush_transaction_log
FNDA:125,_RNvMs_NtNtCs1xmhvdYWKG8_9neuralnet4core5brainNtB4_15MultiModalBrain22classifier_ready_input
FNDA:2,_RNvMs_NtNtCs1xmhvdYWKG8_9neuralnet4core5brainNtB4_15MultiModalBrain22classify_pattern_top_k
FNDA:2,_RNvMs_NtNtCs1xmhvdYWKG8_9neuralnet4core5brainNtB4_15MultiModalBrain22dump_cognitive_network
FNDA:71,_RNvMs_NtNtCs1xmhvdYWKG8_9neuralnet4core5brainNtB4_15MultiModalBrain22invalidate_query_cache
FNDA:1,_RNvMs_NtNtCs1xmhvdYWKG8_9neuralnet4core5brainNtB4_15MultiModalBrain23absorb_true_image_bytes
FNDA:3,_RNvMs_NtNtCs1xmhvdYWKG8_9neuralnet4core5brainNtB4_15MultiModalBrain23decide_question_storage
FNDA:2,_RNvMs_NtNtCs1xmhvdYWKG8_9neuralnet4core5brainNtB4_15MultiModalBrain24auto_snapshot_last_error
FNDA:10,_RNvMs_NtNtCs1xmhvdYWKG8_9neuralnet4core5brainNtB4_15MultiModalBrain24snapshot_instance_in_dir
FNDA:14,_RNvMs_NtNtCs1xmhvdYWKG8_9neuralnet4core5brainNtB4_15MultiModalBrain25enumerate_multimodal_path
FNDA:2,_RNvMs_NtNtCs1xmhvdYWKG8_9neuralnet4core5brainNtB4_15MultiModalBrain26auto_snapshot_target_paths
FNDA:3,_RNvMs_NtNtCs1xmhvdYWKG8_9neuralnet4core5brainNtB4_15MultiModalBrain26enumerate_image_bytes_path
FNDA:1,_RNvMs_NtNtCs1xmhvdYWKG8_9neuralnet4core5brainNtB4_15MultiModalBrain27absorb_true_image_from_file
FNDA:2,_RNvMs_NtNtCs1xmhvdYWKG8_9neuralnet4core5brainNtB4_15MultiModalBrain27enable_auto_snapshot_in_dir
FNDA:7,_RNvMs_NtNtCs1xmhvdYWKG8_9neuralnet4core5brainNtB4_15MultiModalBrain27evaluate_question_fuzziness
FNDA:67,_RNvMs_NtNtCs1xmhvdYWKG8_9neuralnet4core5brainNtB4_15MultiModalBrain28append_transaction_operation
FNDA:2,_RNvMs_NtNtCs1xmhvdYWKG8_9neuralnet4core5brainNtB4_15MultiModalBrain28submit_snapshot_bundle_write
FNDA:69,_RNvMs_NtNtCs1xmhvdYWKG8_9neuralnet4core5brainNtB4_15MultiModalBrain28transaction_log_target_paths
FNDA:4,_RNvMs_NtNtCs1xmhvdYWKG8_9neuralnet4core5brainNtB4_15MultiModalBrain29auto_snapshot_pending_inserts
FNDA:4,_RNvMs_NtNtCs1xmhvdYWKG8_9neuralnet4core5brainNtB4_15MultiModalBrain29enable_default_cnn_image_path
FNDA:7,_RNvMs_NtNtCs1xmhvdYWKG8_9neuralnet4core5brainNtB4_15MultiModalBrain29load_snapshot_instance_in_dir
FNDA:67,_RNvMs_NtNtCs1xmhvdYWKG8_9neuralnet4core5brainNtB4_15MultiModalBrain32maybe_auto_snapshot_after_insert
FNDA:9,_RNvMs_NtNtCs1xmhvdYWKG8_9neuralnet4core5brainNtB4_15MultiModalBrain38configure_transaction_log_for_instance
FNDA:11,_RNvMs_NtNtCs1xmhvdYWKG8_9neuralnet4core5brainNtB4_15MultiModalBrain40snapshot_bundle_path_for_instance_in_dir
FNDA:49,_RNvNtNtCs1xmhvdYWKG8_9neuralnet4core5brain20sanitize_instance_id
FNDA:49,_RNvNtNtCs1xmhvdYWKG8_9neuralnet4core5brain23fingerprint_instance_id
FNDA:0,_RNvNtNtCs1xmhvdYWKG8_9neuralnet4core5brain27apply_transaction_operation
FNDA:12,_RNvNtNtCs1xmhvdYWKG8_9neuralnet4core5brain28encode_brain_snapshot_bundle
FNDA:7,_RNvNtNtCs1xmhvdYWKG8_9neuralnet4core5brain32load_snapshot_status_from_bundle
FNDA:30,_RNvNtNtCs1xmhvdYWKG8_9neuralnet4core5brain33snapshot_bundle_path_for_instance
FNDA:19,_RNvNtNtCs1xmhvdYWKG8_9neuralnet4core5brain33transaction_log_path_for_instance
FNDA:10,_RNvNtNtCs1xmhvdYWKG8_9neuralnet4core5brain34save_brain_snapshot_bundle_to_file
FNDA:7,_RNvNtNtCs1xmhvdYWKG8_9neuralnet4core5brain36load_brain_snapshot_bundle_from_file
FNDA:49,_RNvNtNtCs1xmhvdYWKG8_9neuralnet4core5brain37snapshot_component_paths_for_instance
FNDA:7,_RNvNtNtCs1xmhvdYWKG8_9neuralnet4core5brain44load_snapshot_status_with_transaction_replay
FNF:104
FNH:79
DA:91,39
DA:92,39
DA:93,39
DA:94,39
DA:95,39
DA:96,39
DA:97,39
DA:99,0
DA:100,0
DA:101,0
DA:102,0
DA:103,0
DA:105,0
DA:106,0
DA:107,0
DA:108,0
DA:109,0
DA:110,0
DA:112,0
DA:113,0
DA:115,0
DA:116,0
DA:117,0
DA:118,0
DA:120,0
DA:122,0
DA:123,0
DA:124,0
DA:125,0
DA:127,0
DA:128,0
DA:129,0
DA:130,0
DA:131,0
DA:132,0
DA:158,39
DA:159,39
DA:160,39
DA:161,39
DA:162,39
DA:163,39
DA:164,39
DA:165,39
DA:166,39
DA:167,39
DA:168,39
DA:169,39
DA:171,0
DA:172,0
DA:173,0
DA:174,0
DA:176,0
DA:177,0
DA:178,0
DA:179,0
DA:181,0
DA:182,0
DA:183,0
DA:184,0
DA:185,0
DA:186,0
DA:187,0
DA:188,0
DA:189,0
DA:190,0
DA:192,2
DA:193,2
DA:194,2
DA:195,2
DA:196,2
DA:197,2
DA:199,2
DA:200,2
DA:201,2
DA:202,2
DA:203,2
DA:204,2
DA:205,2
DA:206,2
DA:207,2
DA:209,0
DA:210,0
DA:211,0
DA:212,0
DA:214,71
DA:215,71
DA:216,71
DA:217,0
DA:218,0
DA:219,0
DA:220,71
DA:222,2
DA:223,2
DA:224,2
DA:225,0
DA:227,0
DA:228,2
DA:230,2
DA:232,2
DA:233,0
DA:236,2
DA:237,2
DA:238,0
DA:239,0
DA:240,0
DA:243,2
DA:244,2
DA:246,2
DA:247,2
DA:248,2
DA:249,2
DA:250,2
DA:251,2
DA:252,0
DA:253,0
DA:255,2
DA:256,2
DA:258,4
DA:259,4
DA:260,4
DA:262,2
DA:263,2
DA:264,2
DA:266,9
DA:267,9
DA:268,9
DA:269,9
DA:270,9
DA:271,9
DA:272,9
DA:273,9
DA:275,2
DA:277,2
DA:278,0
DA:279,2
DA:281,2
DA:282,0
DA:285,2
DA:286,2
DA:287,0
DA:288,2
DA:290,2
DA:291,2
DA:292,2
DA:294,2
DA:296,2
DA:298,2
DA:300,2
DA:301,2
DA:303,0
DA:306,2
DA:307,2
DA:309,2
DA:311,69
DA:313,69
DA:315,13
DA:316,13
DA:318,0
DA:321,13
DA:322,13
DA:324,69
DA:326,67
DA:328,67
DA:329,0
DA:330,67
DA:332,67
DA:333,56
DA:336,11
DA:337,11
DA:338,11
DA:339,11
DA:341,67
DA:343,0
DA:345,0
DA:347,0
DA:348,0
DA:349,0
DA:350,0
DA:352,0
DA:356,0
DA:357,0
DA:358,0
DA:359,0
DA:360,0
DA:361,0
DA:362,0
DA:363,0
DA:364,0
DA:365,0
DA:366,0
DA:367,0
DA:369,0
DA:373,0
DA:375,2
DA:376,2
DA:377,2
DA:378,2
DA:379,2
DA:381,2
DA:382,2
DA:384,2
DA:385,2
DA:387,2
DA:388,2
DA:390,67
DA:391,67
DA:392,64
DA:393,3
DA:395,3
DA:399,3
DA:400,3
DA:401,3
DA:402,67
DA:404,4
DA:405,4
DA:406,4
DA:408,0
DA:409,0
DA:410,0
DA:412,0
DA:413,0
DA:414,0
DA:416,0
DA:417,0
DA:418,0
DA:420,125
DA:421,22
DA:422,125
DA:423,22
DA:425,21
DA:426,21
DA:427,21
DA:428,21
DA:429,104
DA:431,104
DA:432,125
DA:434,7
DA:435,7
DA:436,7
DA:438,7
DA:439,7
DA:440,7
DA:442,3
DA:443,3
DA:444,3
DA:446,52
DA:447,52
DA:448,52
DA:450,72
DA:451,72
DA:452,72
DA:453,72
DA:455,2
DA:456,2
DA:457,2
DA:458,2
DA:459,2
DA:460,2
DA:461,2
DA:462,2
DA:464,8
DA:465,8
DA:466,8
DA:467,8
DA:468,8
DA:469,8
DA:470,8
DA:471,8
DA:473,8
DA:474,8
DA:475,8
DA:476,8
DA:477,8
DA:478,8
DA:480,8
DA:482,8
DA:483,8
DA:485,5
DA:486,5
DA:487,5
DA:488,5
DA:489,5
DA:490,5
DA:491,5
DA:492,5
DA:493,5
DA:494,5
DA:496,5
DA:498,1
DA:499,1
DA:500,1
DA:501,1
DA:502,1
DA:503,1
DA:504,1
DA:505,1
DA:506,1
DA:507,1
DA:509,1
DA:511,1
DA:512,1
DA:513,1
DA:514,1
DA:515,1
DA:516,1
DA:517,1
DA:518,0
DA:519,0
DA:520,1
DA:522,0
DA:523,0
DA:524,0
DA:525,0
DA:526,0
DA:527,0
DA:529,0
DA:530,0
DA:531,0
DA:532,0
DA:533,0
DA:535,10
DA:536,10
DA:537,10
DA:538,10
DA:539,10
DA:541,0
DA:542,0
DA:543,0
DA:544,0
DA:546,7
DA:547,7
DA:548,7
DA:549,7
DA:550,7
DA:551,7
DA:552,7
DA:553,7
DA:555,11
DA:556,11
DA:557,11
DA:558,11
DA:559,11
DA:560,11
DA:561,11
DA:563,0
DA:564,0
DA:565,0
DA:566,0
DA:567,0
DA:568,0
DA:569,0
DA:571,2
DA:572,2
DA:573,2
DA:574,2
DA:575,2
DA:576,2
DA:578,2
DA:579,2
DA:580,2
DA:581,2
DA:582,2
DA:583,2
DA:585,2
DA:586,2
DA:587,2
DA:588,2
DA:589,2
DA:590,2
DA:592,1
DA:593,1
DA:594,1
DA:596,1
DA:598,1
DA:599,1
DA:601,1
DA:602,1
DA:604,1
DA:605,1
DA:607,2
DA:608,2
DA:609,2
DA:612,2
DA:615,5
DA:616,5
DA:617,5
DA:618,5
DA:619,5
DA:620,5
DA:622,5
DA:627,5
DA:630,5
DA:634,2
DA:635,2
DA:637,59
DA:638,59
DA:639,59
DA:640,59
DA:641,59
DA:642,59
DA:643,59
DA:644,59
DA:646,59
DA:647,59
DA:648,59
DA:649,59
DA:650,59
DA:651,59
DA:653,59
DA:655,59
DA:656,59
DA:658,14
DA:659,14
DA:660,14
DA:661,14
DA:662,14
DA:664,14
DA:665,6
DA:666,8
DA:668,8
DA:669,14
DA:671,10
DA:672,10
DA:673,10
DA:674,10
DA:675,10
DA:676,10
DA:677,10
DA:678,10
DA:679,10
DA:680,10
DA:682,10
DA:684,11
DA:685,11
DA:686,11
DA:687,11
DA:688,11
DA:689,11
DA:691,1
DA:692,1
DA:693,1
DA:694,1
DA:695,1
DA:696,1
DA:697,1
DA:698,1
DA:699,1
DA:700,1
DA:702,1
DA:704,3
DA:705,3
DA:706,3
DA:707,3
DA:708,3
DA:709,3
DA:711,7
DA:712,7
DA:713,7
DA:715,7
DA:716,1
DA:717,6
DA:719,6
DA:720,0
DA:722,0
DA:723,0
DA:724,0
DA:725,0
DA:726,0
DA:727,0
DA:728,0
DA:730,0
DA:732,0
DA:733,0
DA:734,0
DA:735,0
DA:736,0
DA:737,0
DA:738,0
DA:739,0
DA:741,0
DA:742,0
DA:743,0
DA:744,0
DA:745,0
DA:746,0
DA:747,0
DA:749,7
DA:751,3
DA:753,3
DA:755,3
DA:756,2
DA:757,1
DA:759,1
DA:760,1
DA:762,0
DA:765,3
DA:767,0
DA:768,0
DA:769,0
DA:770,0
DA:771,0
DA:772,0
DA:774,0
DA:775,0
DA:777,0
DA:779,0
DA:783,10
DA:785,10
DA:786,10
DA:788,10
DA:790,12
DA:792,12
DA:793,12
DA:794,12
DA:795,12
DA:796,12
DA:798,12
DA:799,0
DA:800,0
DA:801,0
DA:803,0
DA:805,12
DA:806,12
DA:807,12
DA:808,12
DA:810,12
DA:812,7
DA:813,7
DA:814,7
DA:815,7
DA:817,7
DA:818,5
DA:819,2
DA:820,0
DA:823,5
DA:824,5
DA:826,1
DA:827,1
DA:828,1
DA:829,1
DA:830,1
DA:831,1
DA:832,1
DA:833,4
DA:835,4
DA:836,4
DA:837,0
DA:838,0
DA:839,0
DA:841,0
DA:844,0
DA:846,4
DA:847,4
DA:848,4
DA:850,4
DA:851,4
DA:852,4
DA:853,4
DA:854,4
DA:856,4
DA:858,7
DA:860,7
DA:861,7
DA:862,7
DA:863,7
DA:864,7
DA:866,7
DA:867,7
DA:868,4
DA:869,4
DA:870,4
DA:871,4
DA:872,4
DA:873,2
DA:874,2
DA:875,2
DA:876,2
DA:877,2
DA:878,1
DA:881,7
DA:883,7
DA:884,7
DA:885,7
DA:886,7
DA:887,7
DA:888,7
DA:890,6
DA:891,6
DA:893,6
DA:894,6
DA:895,0
DA:896,0
DA:897,6
DA:899,6
DA:900,7
DA:902,0
DA:903,0
DA:905,0
DA:906,0
DA:907,0
DA:908,0
DA:909,0
DA:910,0
DA:911,0
DA:912,0
DA:913,0
DA:914,0
DA:915,0
DA:916,0
DA:917,0
DA:918,0
DA:919,0
DA:922,0
DA:923,0
DA:925,49
DA:927,49
DA:928,49
DA:929,490
DA:930,490
DA:931,490
DA:933,0
DA:935,490
DA:936,49
DA:938,49
DA:940,49
DA:943,49
DA:945,490
DA:946,490
DA:947,490
DA:948,490
DA:950,49
DA:951,49
DA:953,0
DA:954,0
DA:955,0
DA:956,0
DA:958,0
DA:959,0
DA:961,0
DA:963,30
DA:965,30
DA:966,30
DA:967,30
DA:968,30
DA:969,30
DA:970,30
DA:972,30
DA:973,30
DA:975,0
DA:978,30
DA:979,30
DA:980,30
DA:982,30
DA:984,19
DA:986,19
DA:987,19
DA:988,19
DA:989,19
DA:990,19
DA:991,19
DA:993,19
DA:994,19
DA:996,0
DA:999,19
DA:1000,19
DA:1001,19
DA:1003,19
DA:1005,49
DA:1006,49
DA:1007,49
DA:1008,49
DA:1010,49
DA:1011,49
DA:1012,0
DA:1014,49
DA:1017,49
DA:1018,49
DA:1020,49
DA:1021,49
DA:1022,0
DA:1023,49
DA:1024,49
DA:1025,0
DA:1026,49
DA:1028,49
DA:1029,49
DA:1031,49
DA:1032,49
DA:1033,49
DA:1035,49
DA:1036,49
DA:1038,49
DA:1039,49
DA:1041,49
DA:1042,0
DA:1044,0
DA:1045,0
DA:1046,0
DA:1048,0
DA:1049,0
DA:1051,0
DA:1052,0
DA:1054,0
DA:1055,0
DA:1057,0
DA:1058,0
DA:1059,0
DA:1060,0
DA:1061,0
DA:1062,0
DA:1064,0
DA:1065,0
DA:1066,0
DA:1067,0
DA:1069,0
DA:1070,0
DA:1072,0
DA:1073,0
DA:1075,0
DA:1076,0
DA:1078,0
DA:1080,49
DA:1090,15
DA:1091,15
DA:1092,15
DA:1093,15
DA:1094,15
DA:1096,10
DA:1097,10
DA:1098,10
DA:1101,1
DA:1102,1
DA:1103,1
DA:1104,1
DA:1105,1
DA:1107,1
DA:1108,1
DA:1110,1
DA:1111,1
DA:1113,1
DA:1114,1
DA:1115,1
DA:1116,1
DA:1117,1
DA:1118,1
DA:1119,1
DA:1121,1
DA:1122,1
DA:1125,1
DA:1126,1
DA:1127,1
DA:1129,1
DA:1131,1
DA:1133,1
DA:1134,1
DA:1135,1
DA:1136,1
DA:1137,1
DA:1138,1
DA:1140,1
DA:1141,1
DA:1144,1
DA:1145,1
DA:1146,1
DA:1147,1
DA:1149,1
DA:1151,1
DA:1152,1
DA:1153,1
DA:1155,1
DA:1156,1
DA:1157,1
DA:1158,1
DA:1159,1
DA:1160,1
DA:1161,1
DA:1163,1
DA:1164,1
DA:1167,1
DA:1168,1
DA:1170,1
DA:1171,1
DA:1172,1
DA:1173,1
DA:1174,1
DA:1176,1
DA:1177,1
DA:1178,1
DA:1179,1
DA:1182,1
DA:1185,1
DA:1186,1
DA:1187,1
DA:1188,1
DA:1190,1
DA:1191,1
DA:1193,1
DA:1194,1
DA:1195,1
DA:1196,1
DA:1197,1
DA:1198,1
DA:1200,1
DA:1201,1
DA:1204,1
DA:1205,1
DA:1206,1
DA:1207,1
DA:1209,1
DA:1210,1
DA:1211,1
DA:1214,1
DA:1217,1
DA:1218,1
DA:1219,1
DA:1221,1
DA:1223,1
DA:1224,1
DA:1226,1
DA:1227,1
DA:1230,1
DA:1231,1
DA:1232,1
DA:1234,1
DA:1235,1
DA:1237,1
DA:1239,1
DA:1240,1
DA:1241,1
DA:1242,1
DA:1243,1
DA:1244,1
DA:1245,1
DA:1247,1
DA:1248,1
DA:1249,1
DA:1250,1
DA:1251,2
DA:1253,1
DA:1254,1
DA:1255,1
DA:1256,1
DA:1257,1
DA:1259,1
DA:1260,1
DA:1261,1
DA:1262,1
DA:1263,2
DA:1265,3
DA:1266,1
DA:1267,1
DA:1270,1
DA:1271,1
DA:1272,1
DA:1274,1
DA:1275,1
DA:1277,1
DA:1278,1
DA:1279,1
DA:1280,1
DA:1282,0
DA:1284,1
DA:1287,1
DA:1288,1
DA:1289,1
DA:1291,1
DA:1292,1
DA:1294,1
DA:1295,1
DA:1298,1
DA:1299,1
DA:1300,1
DA:1301,1
DA:1302,1
DA:1303,1
DA:1305,1
DA:1306,1
DA:1307,1
DA:1308,1
DA:1309,1
DA:1311,1
DA:1312,1
DA:1313,1
DA:1314,1
DA:1316,1
DA:1317,1
DA:1318,1
DA:1319,1
DA:1321,1
DA:1322,1
DA:1323,1
DA:1324,1
DA:1325,1
DA:1326,1
DA:1327,1
DA:1328,1
DA:1329,1
DA:1330,1
DA:1332,1
DA:1333,1
DA:1336,1
DA:1337,1
DA:1338,1
DA:1339,1
DA:1341,1
DA:1342,1
DA:1343,1
DA:1345,1
DA:1346,1
DA:1347,1
DA:1348,1
DA:1350,1
DA:1351,1
DA:1353,1
DA:1354,1
DA:1356,1
DA:1357,1
DA:1360,1
DA:1361,1
DA:1362,1
DA:1363,1
DA:1365,1
DA:1366,1
DA:1368,1
DA:1369,1
DA:1371,1
DA:1373,1
DA:1374,1
DA:1376,1
DA:1378,1
DA:1379,1
DA:1380,1
DA:1381,1
DA:1382,1
DA:1383,1
DA:1384,1
DA:1386,1
DA:1387,1
DA:1390,1
DA:1391,1
DA:1392,1
DA:1393,1
DA:1395,1
DA:1396,1
DA:1398,1
DA:1399,1
DA:1401,1
DA:1402,1
DA:1403,1
DA:1405,1
DA:1406,1
DA:1407,1
DA:1409,1
DA:1410,1
DA:1411,1
DA:1412,1
DA:1414,1
DA:1415,1
DA:1418,1
DA:1419,1
DA:1420,1
DA:1421,1
DA:1422,1
DA:1423,1
DA:1424,1
DA:1426,1
DA:1427,1
DA:1428,1
DA:1429,1
DA:1430,1
DA:1431,1
DA:1433,1
DA:1434,1
DA:1435,1
DA:1436,1
DA:1437,1
DA:1438,1
DA:1440,1
DA:1441,1
DA:1442,1
DA:1443,1
DA:1445,1
DA:1446,1
DA:1447,1
DA:1448,1
DA:1450,1
DA:1451,1
DA:1452,1
DA:1454,1
DA:1455,1
DA:1456,1
DA:1457,1
DA:1458,1
BRF:0
BRH:0
LF:1011
LH:775
end_of_record
SF:/Users/samcolak/Source Code/rust/neuron_server/library/neuralnet/src/core/integration.rs
FN:141,_RNvNtNtNtCs1xmhvdYWKG8_9neuralnet4core11integration5tests19checkpoint_test_dir
FN:103,_RNvNtNtNtCs1xmhvdYWKG8_9neuralnet4core11integration5tests26vertical_stripes_image_8x8
FN:147,_RNvNtNtNtCs1xmhvdYWKG8_9neuralnet4core11integration5tests27cleanup_checkpoint_test_dir
FN:131,_RNvNtNtNtCs1xmhvdYWKG8_9neuralnet4core11integration5tests27diagonal_gradient_image_8x8
FN:117,_RNvNtNtNtCs1xmhvdYWKG8_9neuralnet4core11integration5tests28horizontal_stripes_image_8x8
FN:198,_RNvNtNtNtCs1xmhvdYWKG8_9neuralnet4core11integration5testss_56resume_pipeline_marks_checkpoint_source_when_best_exists
FN:152,_RNvNtNtNtCs1xmhvdYWKG8_9neuralnet4core11integration5testss_60supervised_pipeline_reports_final_eval_and_probe_predictions
FN:259,_RNvNtNtNtCs1xmhvdYWKG8_9neuralnet4core11integration5testss_69supervised_pipeline_with_cnn_image_path_improves_image_classification
FN:45,_RNCNvMNtNtCs1xmhvdYWKG8_9neuralnet4core11integrationNtNtB6_5brain15MultiModalBrain23run_supervised_pipeline0B8_
FN:59,_RNCNvMNtNtCs1xmhvdYWKG8_9neuralnet4core11integrationNtNtB6_5brain15MultiModalBrain23run_supervised_pipelines_0B8_
FN:192,_RNCNvNtNtNtCs1xmhvdYWKG8_9neuralnet4core11integration5testss_60supervised_pipeline_reports_final_eval_and_probe_predictions0B9_
FN:309,_RNCNvNtNtNtCs1xmhvdYWKG8_9neuralnet4core11integration5testss_69supervised_pipeline_with_cnn_image_path_improves_image_classification0B9_
FN:324,_RNCNvNtNtNtCs1xmhvdYWKG8_9neuralnet4core11integration5testss_69supervised_pipeline_with_cnn_image_path_improves_image_classifications0_0B9_
FN:317,_RNCNvNtNtNtCs1xmhvdYWKG8_9neuralnet4core11integration5testss_69supervised_pipeline_with_cnn_image_path_improves_image_classifications_0B9_
FN:24,_RNvMNtNtCs1xmhvdYWKG8_9neuralnet4core11integrationNtNtB4_5brain15MultiModalBrain23run_supervised_pipeline
FN:72,_RNvMNtNtCs1xmhvdYWKG8_9neuralnet4core11integrationNtNtB4_5brain15MultiModalBrain35resume_then_run_supervised_pipeline
FNDA:3,_RNvNtNtNtCs1xmhvdYWKG8_9neuralnet4core11integration5tests19checkpoint_test_dir
FNDA:1,_RNvNtNtNtCs1xmhvdYWKG8_9neuralnet4core11integration5tests26vertical_stripes_image_8x8
FNDA:2,_RNvNtNtNtCs1xmhvdYWKG8_9neuralnet4core11integration5tests27cleanup_checkpoint_test_dir
FNDA:1,_RNvNtNtNtCs1xmhvdYWKG8_9neuralnet4core11integration5tests27diagonal_gradient_image_8x8
FNDA:1,_RNvNtNtNtCs1xmhvdYWKG8_9neuralnet4core11integration5tests28horizontal_stripes_image_8x8
FNDA:1,_RNvNtNtNtCs1xmhvdYWKG8_9neuralnet4core11integration5testss_56resume_pipeline_marks_checkpoint_source_when_best_exists
FNDA:1,_RNvNtNtNtCs1xmhvdYWKG8_9neuralnet4core11integration5testss_60supervised_pipeline_reports_final_eval_and_probe_predictions
FNDA:1,_RNvNtNtNtCs1xmhvdYWKG8_9neuralnet4core11integration5testss_69supervised_pipeline_with_cnn_image_path_improves_image_classification
FNDA:10,_RNCNvMNtNtCs1xmhvdYWKG8_9neuralnet4core11integrationNtNtB6_5brain15MultiModalBrain23run_supervised_pipeline0B8_
FNDA:4,_RNCNvMNtNtCs1xmhvdYWKG8_9neuralnet4core11integrationNtNtB6_5brain15MultiModalBrain23run_supervised_pipelines_0B8_
FNDA:1,_RNCNvNtNtNtCs1xmhvdYWKG8_9neuralnet4core11integration5testss_60supervised_pipeline_reports_final_eval_and_probe_predictions0B9_
FNDA:1,_RNCNvNtNtNtCs1xmhvdYWKG8_9neuralnet4core11integration5testss_69supervised_pipeline_with_cnn_image_path_improves_image_classification0B9_
FNDA:1,_RNCNvNtNtNtCs1xmhvdYWKG8_9neuralnet4core11integration5testss_69supervised_pipeline_with_cnn_image_path_improves_image_classifications0_0B9_
FNDA:1,_RNCNvNtNtNtCs1xmhvdYWKG8_9neuralnet4core11integration5testss_69supervised_pipeline_with_cnn_image_path_improves_image_classifications_0B9_
FNDA:4,_RNvMNtNtCs1xmhvdYWKG8_9neuralnet4core11integrationNtNtB4_5brain15MultiModalBrain23run_supervised_pipeline
FNDA:1,_RNvMNtNtCs1xmhvdYWKG8_9neuralnet4core11integrationNtNtB4_5brain15MultiModalBrain35resume_then_run_supervised_pipeline
FNF:16
FNH:16
DA:24,4
DA:25,4
DA:26,4
DA:27,4
DA:28,4
DA:29,4
DA:30,4
DA:31,4
DA:33,4
DA:34,4
DA:35,4
DA:36,4
DA:37,4
DA:40,4
DA:41,0
DA:43,4
DA:44,4
DA:45,10
DA:46,10
DA:47,10
DA:48,10
DA:50,10
DA:51,4
DA:53,4
DA:56,4
DA:57,4
DA:58,4
DA:59,4
DA:60,4
DA:61,4
DA:62,4
DA:64,4
DA:65,4
DA:66,4
DA:67,4
DA:68,4
DA:70,4
DA:72,1
DA:73,1
DA:74,1
DA:75,1
DA:76,1
DA:77,1
DA:78,1
DA:79,1
DA:80,1
DA:82,1
DA:83,1
DA:85,1
DA:86,1
DA:87,1
DA:88,1
DA:89,1
DA:90,1
DA:93,1
DA:103,1
DA:104,1
DA:105,8
DA:106,64
DA:107,64
DA:108,32
DA:109,32
DA:110,32
DA:111,32
DA:114,1
DA:115,1
DA:117,1
DA:118,1
DA:119,8
DA:120,64
DA:121,64
DA:122,32
DA:123,32
DA:124,32
DA:125,32
DA:128,1
DA:129,1
DA:131,1
DA:132,1
DA:133,8
DA:134,64
DA:135,64
DA:136,64
DA:138,1
DA:139,1
DA:141,3
DA:142,3
DA:143,3
DA:144,3
DA:145,3
DA:147,2
DA:148,2
DA:149,2
DA:152,1
DA:153,1
DA:154,1
DA:156,1
DA:157,1
DA:158,1
DA:161,1
DA:162,1
DA:163,1
DA:164,1
DA:167,1
DA:168,1
DA:169,1
DA:172,1
DA:173,1
DA:174,1
DA:175,1
DA:177,1
DA:178,1
DA:179,1
DA:180,1
DA:181,1
DA:182,1
DA:185,1
DA:186,1
DA:187,1
DA:188,1
DA:189,1
DA:190,1
DA:191,1
DA:192,1
DA:193,1
DA:195,1
DA:198,1
DA:199,1
DA:200,1
DA:202,1
DA:203,1
DA:204,1
DA:206,1
DA:207,1
DA:208,1
DA:211,1
DA:212,1
DA:213,1
DA:216,1
DA:217,1
DA:218,1
DA:219,1
DA:220,1
DA:221,1
DA:222,1
DA:224,1
DA:225,1
DA:226,1
DA:227,1
DA:228,1
DA:229,1
DA:230,1
DA:232,1
DA:233,1
DA:234,1
DA:235,1
DA:236,1
DA:237,1
DA:238,1
DA:239,1
DA:241,1
DA:242,1
DA:243,1
DA:244,1
DA:245,1
DA:246,1
DA:247,1
DA:250,1
DA:252,1
DA:255,1
DA:256,1
DA:259,1
DA:260,1
DA:261,1
DA:262,1
DA:264,1
DA:265,1
DA:266,1
DA:267,1
DA:269,1
DA:270,1
DA:271,1
DA:273,1
DA:274,1
DA:275,1
DA:278,1
DA:279,1
DA:280,1
DA:281,1
DA:284,1
DA:285,1
DA:286,1
DA:289,1
DA:290,1
DA:291,1
DA:292,1
DA:294,1
DA:295,1
DA:296,1
DA:297,1
DA:298,1
DA:299,1
DA:302,1
DA:303,1
DA:304,1
DA:305,1
DA:306,1
DA:307,1
DA:308,1
DA:309,1
DA:312,1
DA:313,1
DA:314,1
DA:315,1
DA:316,1
DA:317,1
DA:320,1
DA:321,1
DA:322,1
DA:323,1
DA:324,1
DA:325,1
DA:327,1
BRF:0
BRH:0
LF:228
LH:227
end_of_record
SF:/Users/samcolak/Source Code/rust/neuron_server/library/neuralnet/src/core/model.rs
FN:51,_RNvXs_NtNtCs1xmhvdYWKG8_9neuralnet4core5modelNtNtB6_5brain15MultiModalBrainNtB4_14TrainableModel11train_epoch
FN:167,_RNvXs_NtNtCs1xmhvdYWKG8_9neuralnet4core5modelNtNtB6_5brain15MultiModalBrainNtB4_14TrainableModel15load_checkpoint
FN:161,_RNvXs_NtNtCs1xmhvdYWKG8_9neuralnet4core5modelNtNtB6_5brain15MultiModalBrainNtB4_14TrainableModel15save_checkpoint
FN:96,_RNvXs_NtNtCs1xmhvdYWKG8_9neuralnet4core5modelNtNtB6_5brain15MultiModalBrainNtB4_14TrainableModel16evaluate_dataset
FN:23,_RNvMNtNtCs1xmhvdYWKG8_9neuralnet4core5modelNtB2_16SupervisedSample3new
FN:199,_RNvNtNtCs1xmhvdYWKG8_9neuralnet4core5model34increment_confusion_count_borrowed
FNDA:18,_RNvXs_NtNtCs1xmhvdYWKG8_9neuralnet4core5modelNtNtB6_5brain15MultiModalBrainNtB4_14TrainableModel11train_epoch
FNDA:4,_RNvXs_NtNtCs1xmhvdYWKG8_9neuralnet4core5modelNtNtB6_5brain15MultiModalBrainNtB4_14TrainableModel15load_checkpoint
FNDA:6,_RNvXs_NtNtCs1xmhvdYWKG8_9neuralnet4core5modelNtNtB6_5brain15MultiModalBrainNtB4_14TrainableModel15save_checkpoint
FNDA:18,_RNvXs_NtNtCs1xmhvdYWKG8_9neuralnet4core5modelNtNtB6_5brain15MultiModalBrainNtB4_14TrainableModel16evaluate_dataset
FNDA:65,_RNvMNtNtCs1xmhvdYWKG8_9neuralnet4core5modelNtB2_16SupervisedSample3new
FNDA:45,_RNvNtNtCs1xmhvdYWKG8_9neuralnet4core5model34increment_confusion_count_borrowed
FNF:6
FNH:6
DA:23,65
DA:24,65
DA:25,65
DA:26,65
DA:27,65
DA:28,65
DA:51,18
DA:52,18
DA:53,18
DA:54,18
DA:55,18
DA:56,18
DA:57,18
DA:58,18
DA:59,36
DA:60,36
DA:61,36
DA:62,0
DA:63,36
DA:64,36
DA:67,18
DA:68,18
DA:69,18
DA:70,18
DA:72,36
DA:73,36
DA:74,36
DA:75,36
DA:76,36
DA:77,36
DA:78,36
DA:79,36
DA:80,36
DA:81,36
DA:82,36
DA:83,36
DA:84,36
DA:86,36
DA:87,36
DA:88,36
DA:91,18
DA:92,18
DA:94,18
DA:96,18
DA:98,18
DA:100,0
DA:103,18
DA:104,18
DA:105,18
DA:106,18
DA:108,45
DA:109,45
DA:110,45
DA:111,0
DA:112,0
DA:113,45
DA:115,45
DA:116,45
DA:117,0
DA:118,45
DA:119,45
DA:120,45
DA:122,45
DA:123,36
DA:124,36
DA:125,36
DA:126,36
DA:127,36
DA:128,36
DA:129,36
DA:130,36
DA:131,36
DA:132,0
DA:133,0
DA:134,0
DA:135,0
DA:136,0
DA:137,0
DA:138,0
DA:139,9
DA:140,9
DA:141,9
DA:142,9
DA:143,9
DA:144,9
DA:145,9
DA:146,9
DA:150,18
DA:151,18
DA:152,18
DA:154,18
DA:155,18
DA:159,18
DA:161,6
DA:162,6
DA:163,6
DA:164,6
DA:165,6
DA:167,4
DA:169,4
DA:171,3
DA:172,3
DA:173,3
DA:174,3
DA:175,3
DA:176,1
DA:177,2
DA:178,2
DA:179,2
DA:180,2
DA:181,2
DA:182,2
DA:183,2
DA:184,2
DA:185,0
DA:186,0
DA:187,0
DA:188,0
DA:189,0
DA:190,0
DA:191,0
DA:192,0
DA:195,4
DA:199,45
DA:200,45
DA:201,45
DA:202,45
DA:203,45
DA:204,45
DA:205,0
DA:206,45
DA:207,45
DA:208,45
DA:209,45
DA:210,45
DA:211,45
BRF:0
BRH:0
LF:136
LH:115
end_of_record
SF:/Users/samcolak/Source Code/rust/neuron_server/library/neuralnet/src/core/neuralnet.rs
FN:54,_RINvNtNtCs1xmhvdYWKG8_9neuralnet4core9neuralnet29collect_children_from_networkpEB6_
FN:61,_RNCINvNtNtCs1xmhvdYWKG8_9neuralnet4core9neuralnet29collect_children_from_networkpE0B8_
FN:351,_RNCNvMs_NtNtCs1xmhvdYWKG8_9neuralnet4core9neuralnetINtB6_13NeuralNetworkppE20connected_uid_by_key0Ba_
FN:312,_RNCNvMs_NtNtCs1xmhvdYWKG8_9neuralnet4core9neuralnetINtB6_13NeuralNetworkppE21has_direct_connection0Ba_
FN:321,_RNCNvMs_NtNtCs1xmhvdYWKG8_9neuralnet4core9neuralnetINtB6_13NeuralNetworkppE24direct_connection_weight0Ba_
FN:337,_RNCNvMs_NtNtCs1xmhvdYWKG8_9neuralnet4core9neuralnetINtB6_13NeuralNetworkppE28best_connected_candidate_uid0Ba_
FN:339,_RNCNvMs_NtNtCs1xmhvdYWKG8_9neuralnet4core9neuralnetINtB6_13NeuralNetworkppE28best_connected_candidate_uids0_0Ba_
FN:136,_RNvMs_NtNtCs1xmhvdYWKG8_9neuralnet4core9neuralnetINtB4_13NeuralNetworkppE10controllerB8_
FN:383,_RNvMs_NtNtCs1xmhvdYWKG8_9neuralnet4core9neuralnetINtB4_13NeuralNetworkppE13dendrites_mutB8_
FN:223,_RNvMs_NtNtCs1xmhvdYWKG8_9neuralnet4core9neuralnetINtB4_13NeuralNetworkppE18enumerate_childrenB8_
FN:342,_RNvMs_NtNtCs1xmhvdYWKG8_9neuralnet4core9neuralnetINtB4_13NeuralNetworkppE20connected_uid_by_keyB8_
FN:309,_RNvMs_NtNtCs1xmhvdYWKG8_9neuralnet4core9neuralnetINtB4_13NeuralNetworkppE21has_direct_connectionB8_
FN:316,_RNvMs_NtNtCs1xmhvdYWKG8_9neuralnet4core9neuralnetINtB4_13NeuralNetworkppE24direct_connection_weightB8_
FN:325,_RNvMs_NtNtCs1xmhvdYWKG8_9neuralnet4core9neuralnetINtB4_13NeuralNetworkppE28best_connected_candidate_uidB8_
FN:45,_RNvMNtNtCs1xmhvdYWKG8_9neuralnet4core9neuralnetNtB2_15CandidateUidSet8as_slice
FN:41,_RNvMNtNtCs1xmhvdYWKG8_9neuralnet4core9neuralnetNtB2_15CandidateUidSet8is_empty
FN:219,_RNCNvMs_NtNtCs1xmhvdYWKG8_9neuralnet4core9neuralnetINtB6_13NeuralNetworkNtNtNtBa_7helpers21multimodal_controller20MultiModalControllerNtNtNtBa_9dendrites19multimodal_dendrite18MultimodalDendriteE20all_dendrites_sorted0Ba_
FN:85,_RNCNvMs_NtNtCs1xmhvdYWKG8_9neuralnet4core9neuralnetINtB6_13NeuralNetworkNtNtNtBa_7helpers21multimodal_controller20MultiModalControllerNtNtNtBa_9dendrites19multimodal_dendrite18MultimodalDendriteE26best_match_score_for_token0Ba_
FN:210,_RNCNvMs_NtNtCs1xmhvdYWKG8_9neuralnet4core9neuralnetINtB6_13NeuralNetworkNtNtNtBa_7helpers21multimodal_controller20MultiModalControllerNtNtNtBa_9dendrites19multimodal_dendrite18MultimodalDendriteE31fuzzy_success_score_for_content0Ba_
FN:227,_RNvMs_NtNtCs1xmhvdYWKG8_9neuralnet4core9neuralnetINtB4_13NeuralNetworkNtNtNtB8_7helpers21multimodal_controller20MultiModalControllerNtNtNtB8_9dendrites19multimodal_dendrite18MultimodalDendriteE15with_controllerB8_
FN:132,_RNvMs_NtNtCs1xmhvdYWKG8_9neuralnet4core9neuralnetINtB4_13NeuralNetworkNtNtNtB8_7helpers21multimodal_controller20MultiModalControllerNtNtNtB8_9dendrites19multimodal_dendrite18MultimodalDendriteE16tokenize_contentB8_
FN:373,_RNvMs_NtNtCs1xmhvdYWKG8_9neuralnet4core9neuralnetINtB4_13NeuralNetworkNtNtNtB8_7helpers21multimodal_controller20MultiModalControllerNtNtNtB8_9dendrites19multimodal_dendrite18MultimodalDendriteE17connect_dendritesB8_
FN:303,_RNvMs_NtNtCs1xmhvdYWKG8_9neuralnet4core9neuralnetINtB4_13NeuralNetworkNtNtNtB8_7helpers21multimodal_controller20MultiModalControllerNtNtNtB8_9dendrites19multimodal_dendrite18MultimodalDendriteE18ensure_token_indexB8_
FN:264,_RNvMs_NtNtCs1xmhvdYWKG8_9neuralnet4core9neuralnetINtB4_13NeuralNetworkNtNtNtB8_7helpers21multimodal_controller20MultiModalControllerNtNtNtB8_9dendrites19multimodal_dendrite18MultimodalDendriteE19rebuild_token_indexB8_
FN:128,_RNvMs_NtNtCs1xmhvdYWKG8_9neuralnet4core9neuralnetINtB4_13NeuralNetworkNtNtNtB8_7helpers21multimodal_controller20MultiModalControllerNtNtNtB8_9dendrites19multimodal_dendrite18MultimodalDendriteE19token_key_for_indexB8_
FN:217,_RNvMs_NtNtCs1xmhvdYWKG8_9neuralnet4core9neuralnetINtB4_13NeuralNetworkNtNtNtB8_7helpers21multimodal_controller20MultiModalControllerNtNtNtB8_9dendrites19multimodal_dendrite18MultimodalDendriteE20all_dendrites_sortedB8_
FN:236,_RNvMs_NtNtCs1xmhvdYWKG8_9neuralnet4core9neuralnetINtB4_13NeuralNetworkNtNtNtB8_7helpers21multimodal_controller20MultiModalControllerNtNtNtB8_9dendrites19multimodal_dendrite18MultimodalDendriteE20index_dendrite_tokenB8_
FN:140,_RNvMs_NtNtCs1xmhvdYWKG8_9neuralnet4core9neuralnetINtB4_13NeuralNetworkNtNtNtB8_7helpers21multimodal_controller20MultiModalControllerNtNtNtB8_9dendrites19multimodal_dendrite18MultimodalDendriteE24candidate_uids_for_tokenB8_
FN:360,_RNvMs_NtNtCs1xmhvdYWKG8_9neuralnet4core9neuralnetINtB4_13NeuralNetworkNtNtNtB8_7helpers21multimodal_controller20MultiModalControllerNtNtNtB8_9dendrites19multimodal_dendrite18MultimodalDendriteE25insert_dendrite_and_indexB8_
FN:80,_RNvMs_NtNtCs1xmhvdYWKG8_9neuralnet4core9neuralnetINtB4_13NeuralNetworkNtNtNtB8_7helpers21multimodal_controller20MultiModalControllerNtNtNtB8_9dendrites19multimodal_dendrite18MultimodalDendriteE26best_match_score_for_tokenB8_
FN:297,_RNvMs_NtNtCs1xmhvdYWKG8_9neuralnet4core9neuralnetINtB4_13NeuralNetworkNtNtNtB8_7helpers21multimodal_controller20MultiModalControllerNtNtNtB8_9dendrites19multimodal_dendrite18MultimodalDendriteE26rebuild_connection_indexesB8_
FN:182,_RNvMs_NtNtCs1xmhvdYWKG8_9neuralnet4core9neuralnetINtB4_13NeuralNetworkNtNtNtB8_7helpers21multimodal_controller20MultiModalControllerNtNtNtB8_9dendrites19multimodal_dendrite18MultimodalDendriteE31fuzzy_success_score_for_contentB8_
FN:379,_RNvMs_NtNtCs1xmhvdYWKG8_9neuralnet4core9neuralnetINtB4_13NeuralNetworkNtNtNtB8_7helpers21multimodal_controller20MultiModalControllerNtNtNtB8_9dendrites19multimodal_dendrite18MultimodalDendriteE9dendritesB8_
FNDA:0,_RINvNtNtCs1xmhvdYWKG8_9neuralnet4core9neuralnet29collect_children_from_networkpEB6_
FNDA:0,_RNCINvNtNtCs1xmhvdYWKG8_9neuralnet4core9neuralnet29collect_children_from_networkpE0B8_
FNDA:0,_RNCNvMs_NtNtCs1xmhvdYWKG8_9neuralnet4core9neuralnetINtB6_13NeuralNetworkppE20connected_uid_by_key0Ba_
FNDA:0,_RNCNvMs_NtNtCs1xmhvdYWKG8_9neuralnet4core9neuralnetINtB6_13NeuralNetworkppE21has_direct_connection0Ba_
FNDA:0,_RNCNvMs_NtNtCs1xmhvdYWKG8_9neuralnet4core9neuralnetINtB6_13NeuralNetworkppE24direct_connection_weight0Ba_
FNDA:0,_RNCNvMs_NtNtCs1xmhvdYWKG8_9neuralnet4core9neuralnetINtB6_13NeuralNetworkppE28best_connected_candidate_uid0Ba_
FNDA:0,_RNCNvMs_NtNtCs1xmhvdYWKG8_9neuralnet4core9neuralnetINtB6_13NeuralNetworkppE28best_connected_candidate_uids0_0Ba_
FNDA:0,_RNvMs_NtNtCs1xmhvdYWKG8_9neuralnet4core9neuralnetINtB4_13NeuralNetworkppE10controllerB8_
FNDA:0,_RNvMs_NtNtCs1xmhvdYWKG8_9neuralnet4core9neuralnetINtB4_13NeuralNetworkppE13dendrites_mutB8_
FNDA:0,_RNvMs_NtNtCs1xmhvdYWKG8_9neuralnet4core9neuralnetINtB4_13NeuralNetworkppE18enumerate_childrenB8_
FNDA:0,_RNvMs_NtNtCs1xmhvdYWKG8_9neuralnet4core9neuralnetINtB4_13NeuralNetworkppE20connected_uid_by_keyB8_
FNDA:0,_RNvMs_NtNtCs1xmhvdYWKG8_9neuralnet4core9neuralnetINtB4_13NeuralNetworkppE21has_direct_connectionB8_
FNDA:0,_RNvMs_NtNtCs1xmhvdYWKG8_9neuralnet4core9neuralnetINtB4_13NeuralNetworkppE24direct_connection_weightB8_
FNDA:0,_RNvMs_NtNtCs1xmhvdYWKG8_9neuralnet4core9neuralnetINtB4_13NeuralNetworkppE28best_connected_candidate_uidB8_
FNDA:517,_RNvMNtNtCs1xmhvdYWKG8_9neuralnet4core9neuralnetNtB2_15CandidateUidSet8as_slice
FNDA:80,_RNvMNtNtCs1xmhvdYWKG8_9neuralnet4core9neuralnetNtB2_15CandidateUidSet8is_empty
FNDA:313,_RNCNvMs_NtNtCs1xmhvdYWKG8_9neuralnet4core9neuralnetINtB6_13NeuralNetworkNtNtNtBa_7helpers21multimodal_controller20MultiModalControllerNtNtNtBa_9dendrites19multimodal_dendrite18MultimodalDendriteE20all_dendrites_sorted0Ba_
FNDA:19,_RNCNvMs_NtNtCs1xmhvdYWKG8_9neuralnet4core9neuralnetINtB6_13NeuralNetworkNtNtNtBa_7helpers21multimodal_controller20MultiModalControllerNtNtNtBa_9dendrites19multimodal_dendrite18MultimodalDendriteE26best_match_score_for_token0Ba_
FNDA:2,_RNCNvMs_NtNtCs1xmhvdYWKG8_9neuralnet4core9neuralnetINtB6_13NeuralNetworkNtNtNtBa_7helpers21multimodal_controller20MultiModalControllerNtNtNtBa_9dendrites19multimodal_dendrite18MultimodalDendriteE31fuzzy_success_score_for_content0Ba_
FNDA:80,_RNvMs_NtNtCs1xmhvdYWKG8_9neuralnet4core9neuralnetINtB4_13NeuralNetworkNtNtNtB8_7helpers21multimodal_controller20MultiModalControllerNtNtNtB8_9dendrites19multimodal_dendrite18MultimodalDendriteE15with_controllerB8_
FNDA:108,_RNvMs_NtNtCs1xmhvdYWKG8_9neuralnet4core9neuralnetINtB4_13NeuralNetworkNtNtNtB8_7helpers21multimodal_controller20MultiModalControllerNtNtNtB8_9dendrites19multimodal_dendrite18MultimodalDendriteE16tokenize_contentB8_
FNDA:264,_RNvMs_NtNtCs1xmhvdYWKG8_9neuralnet4core9neuralnetINtB4_13NeuralNetworkNtNtNtB8_7helpers21multimodal_controller20MultiModalControllerNtNtNtB8_9dendrites19multimodal_dendrite18MultimodalDendriteE17connect_dendritesB8_
FNDA:78,_RNvMs_NtNtCs1xmhvdYWKG8_9neuralnet4core9neuralnetINtB4_13NeuralNetworkNtNtNtB8_7helpers21multimodal_controller20MultiModalControllerNtNtNtB8_9dendrites19multimodal_dendrite18MultimodalDendriteE18ensure_token_indexB8_
FNDA:0,_RNvMs_NtNtCs1xmhvdYWKG8_9neuralnet4core9neuralnetINtB4_13NeuralNetworkNtNtNtB8_7helpers21multimodal_controller20MultiModalControllerNtNtNtB8_9dendrites19multimodal_dendrite18MultimodalDendriteE19rebuild_token_indexB8_
FNDA:458,_RNvMs_NtNtCs1xmhvdYWKG8_9neuralnet4core9neuralnetINtB4_13NeuralNetworkNtNtNtB8_7helpers21multimodal_controller20MultiModalControllerNtNtNtB8_9dendrites19multimodal_dendrite18MultimodalDendriteE19token_key_for_indexB8_
FNDA:18,_RNvMs_NtNtCs1xmhvdYWKG8_9neuralnet4core9neuralnetINtB4_13NeuralNetworkNtNtNtB8_7helpers21multimodal_controller20MultiModalControllerNtNtNtB8_9dendrites19multimodal_dendrite18MultimodalDendriteE20all_dendrites_sortedB8_
FNDA:215,_RNvMs_NtNtCs1xmhvdYWKG8_9neuralnet4core9neuralnetINtB4_13NeuralNetworkNtNtNtB8_7helpers21multimodal_controller20MultiModalControllerNtNtNtB8_9dendrites19multimodal_dendrite18MultimodalDendriteE20index_dendrite_tokenB8_
FNDA:439,_RNvMs_NtNtCs1xmhvdYWKG8_9neuralnet4core9neuralnetINtB4_13NeuralNetworkNtNtNtB8_7helpers21multimodal_controller20MultiModalControllerNtNtNtB8_9dendrites19multimodal_dendrite18MultimodalDendriteE24candidate_uids_for_tokenB8_
FNDA:215,_RNvMs_NtNtCs1xmhvdYWKG8_9neuralnet4core9neuralnetINtB4_13NeuralNetworkNtNtNtB8_7helpers21multimodal_controller20MultiModalControllerNtNtNtB8_9dendrites19multimodal_dendrite18MultimodalDendriteE25insert_dendrite_and_indexB8_
FNDA:19,_RNvMs_NtNtCs1xmhvdYWKG8_9neuralnet4core9neuralnetINtB4_13NeuralNetworkNtNtNtB8_7helpers21multimodal_controller20MultiModalControllerNtNtNtB8_9dendrites19multimodal_dendrite18MultimodalDendriteE26best_match_score_for_tokenB8_
FNDA:8,_RNvMs_NtNtCs1xmhvdYWKG8_9neuralnet4core9neuralnetINtB4_13NeuralNetworkNtNtNtB8_7helpers21multimodal_controller20MultiModalControllerNtNtNtB8_9dendrites19multimodal_dendrite18MultimodalDendriteE26rebuild_connection_indexesB8_
FNDA:13,_RNvMs_NtNtCs1xmhvdYWKG8_9neuralnet4core9neuralnetINtB4_13NeuralNetworkNtNtNtB8_7helpers21multimodal_controller20MultiModalControllerNtNtNtB8_9dendrites19multimodal_dendrite18MultimodalDendriteE31fuzzy_success_score_for_contentB8_
FNDA:17,_RNvMs_NtNtCs1xmhvdYWKG8_9neuralnet4core9neuralnetINtB4_13NeuralNetworkNtNtNtB8_7helpers21multimodal_controller20MultiModalControllerNtNtNtB8_9dendrites19multimodal_dendrite18MultimodalDendriteE9dendritesB8_
FNF:33
FNH:18
DA:41,80
DA:42,80
DA:43,80
DA:45,517
DA:46,517
DA:47,244
DA:48,273
DA:50,517
DA:54,0
DA:55,0
DA:56,0
DA:58,0
DA:59,0
DA:61,0
DA:62,0
DA:63,0
DA:64,0
DA:65,0
DA:66,0
DA:67,0
DA:71,0
DA:72,0
DA:80,19
DA:82,19
DA:83,19
DA:84,19
DA:85,19
DA:87,19
DA:88,0
DA:90,0
DA:91,0
DA:94,0
DA:95,0
DA:98,0
DA:100,0
DA:102,0
DA:103,0
DA:107,0
DA:108,0
DA:109,0
DA:111,0
DA:114,0
DA:115,0
DA:116,0
DA:117,0
DA:118,0
DA:119,0
DA:120,0
DA:124,0
DA:126,19
DA:128,458
DA:129,458
DA:130,458
DA:132,108
DA:133,108
DA:134,108
DA:136,0
DA:137,0
DA:138,0
DA:140,439
DA:142,439
DA:143,166
DA:144,273
DA:146,273
DA:147,0
DA:150,273
DA:151,225
DA:154,48
DA:156,48
DA:157,48
DA:158,0
DA:162,48
DA:163,0
DA:164,0
DA:166,48
DA:169,48
DA:171,48
DA:172,48
DA:173,48
DA:174,0
DA:175,48
DA:176,0
DA:179,48
DA:180,439
DA:182,13
DA:183,13
DA:185,13
DA:186,11
DA:187,2
DA:189,2
DA:191,19
DA:192,19
DA:193,19
DA:194,0
DA:195,19
DA:197,19
DA:198,19
DA:199,0
DA:200,0
DA:201,19
DA:203,19
DA:206,2
DA:207,0
DA:208,2
DA:210,2
DA:211,0
DA:212,2
DA:214,2
DA:215,13
DA:217,18
DA:218,18
DA:219,313
DA:220,18
DA:221,18
DA:223,0
DA:224,0
DA:225,0
DA:227,80
DA:228,80
DA:229,80
DA:230,80
DA:231,80
DA:232,80
DA:233,80
DA:234,80
DA:236,215
DA:237,215
DA:238,215
DA:239,0
DA:240,215
DA:242,215
DA:244,215
DA:245,0
DA:246,215
DA:248,215
DA:250,215
DA:251,215
DA:252,215
DA:253,215
DA:255,215
DA:256,215
DA:257,215
DA:258,215
DA:259,215
DA:260,215
DA:261,0
DA:262,215
DA:264,0
DA:265,0
DA:266,0
DA:268,0
DA:270,0
DA:271,0
DA:272,0
DA:273,0
DA:275,0
DA:277,0
DA:278,0
DA:279,0
DA:281,0
DA:283,0
DA:284,0
DA:285,0
DA:286,0
DA:288,0
DA:289,0
DA:290,0
DA:291,0
DA:292,0
DA:293,0
DA:295,0
DA:297,8
DA:298,19
DA:299,19
DA:300,19
DA:301,8
DA:303,78
DA:304,78
DA:305,0
DA:306,78
DA:307,78
DA:309,0
DA:310,0
DA:311,0
DA:312,0
DA:313,0
DA:314,0
DA:316,0
DA:317,0
DA:318,0
DA:319,0
DA:320,0
DA:321,0
DA:322,0
DA:323,0
DA:325,0
DA:326,0
DA:327,0
DA:328,0
DA:329,0
DA:330,0
DA:331,0
DA:332,0
DA:334,0
DA:335,0
DA:336,0
DA:337,0
DA:338,0
DA:339,0
DA:340,0
DA:342,0
DA:343,0
DA:344,0
DA:345,0
DA:347,0
DA:348,0
DA:349,0
DA:351,0
DA:352,0
DA:353,0
DA:355,0
DA:357,0
DA:358,0
DA:360,215
DA:361,215
DA:362,215
DA:363,215
DA:364,215
DA:365,215
DA:366,215
DA:367,215
DA:368,215
DA:369,215
DA:370,215
DA:371,215
DA:373,264
DA:374,264
DA:375,264
DA:376,264
DA:377,264
DA:379,17
DA:380,17
DA:381,17
DA:383,0
DA:384,0
DA:385,0
BRF:0
BRH:0
LF:255
LH:124
end_of_record
SF:/Users/samcolak/Source Code/rust/neuron_server/library/neuralnet/src/core/nodenet.rs
FN:178,_RNvYNtNtNtCs1xmhvdYWKG8_9neuralnet9dendrites19multimodal_dendrite18MultimodalDendriteNtNtNtB8_4core7nodenet11NetworkNode9unique_idB8_
FN:240,_RNvNtNtNtCs1xmhvdYWKG8_9neuralnet4core7nodenet5testss_41metadata_review_check_fails_without_owner
FN:231,_RNvNtNtNtCs1xmhvdYWKG8_9neuralnet4core7nodenet5testss_59metadata_review_check_requires_source_owner_and_usage_terms
FN:74,_RNvMs0_NtNtCs1xmhvdYWKG8_9neuralnet4core7nodenetNtB5_11NodePayload6as_str
FN:128,_RNvMs3_NtNtCs1xmhvdYWKG8_9neuralnet4core7nodenetNtB5_12NodeMetadata10provenance
FN:167,_RNvMs3_NtNtCs1xmhvdYWKG8_9neuralnet4core7nodenetNtB5_12NodeMetadata24push_transformation_step
FN:56,_RNvXs_NtNtCs1xmhvdYWKG8_9neuralnet4core7nodenetNtB4_11NodePayloadNtNtCse2qo0L34Llq_4core7default7Default7default
FN:29,_RNvMNtNtCs1xmhvdYWKG8_9neuralnet4core7nodenetNtB2_17ContentProvenance23has_minimum_attribution
FN:63,_RNvMs0_NtNtCs1xmhvdYWKG8_9neuralnet4core7nodenetNtB5_11NodePayload4text
FN:67,_RNvMs0_NtNtCs1xmhvdYWKG8_9neuralnet4core7nodenetNtB5_11NodePayload7as_text
FN:124,_RNvMs3_NtNtCs1xmhvdYWKG8_9neuralnet4core7nodenetNtB5_12NodeMetadata14set_provenance
FN:153,_RNvMs3_NtNtCs1xmhvdYWKG8_9neuralnet4core7nodenetNtB5_12NodeMetadata16with_usage_terms
FN:139,_RNvMs3_NtNtCs1xmhvdYWKG8_9neuralnet4core7nodenetNtB5_12NodeMetadata17with_source_owner
FN:132,_RNvMs3_NtNtCs1xmhvdYWKG8_9neuralnet4core7nodenetNtB5_12NodeMetadata33has_minimum_provenance_for_review
FN:118,_RNvMs3_NtNtCs1xmhvdYWKG8_9neuralnet4core7nodenetNtB5_12NodeMetadata3get
FN:100,_RNvMs3_NtNtCs1xmhvdYWKG8_9neuralnet4core7nodenetNtB5_12NodeMetadata3new
FN:113,_RNvMs3_NtNtCs1xmhvdYWKG8_9neuralnet4core7nodenetNtB5_12NodeMetadata3set
FN:107,_RNvMs3_NtNtCs1xmhvdYWKG8_9neuralnet4core7nodenetNtB5_12NodeMetadata9with_lang
FN:81,_RNvXs1_NtNtCs1xmhvdYWKG8_9neuralnet4core7nodenetNtB5_11NodePayloadNtNtCse2qo0L34Llq_4core3fmt7Display3fmt
FN:93,_RNvXs2_NtNtCs1xmhvdYWKG8_9neuralnet4core7nodenetNtB5_11NodePayloadINtNtCse2qo0L34Llq_4core3cmp9PartialEqReE2eq
FNDA:215,_RNvYNtNtNtCs1xmhvdYWKG8_9neuralnet9dendrites19multimodal_dendrite18MultimodalDendriteNtNtNtB8_4core7nodenet11NetworkNode9unique_idB8_
FNDA:1,_RNvNtNtNtCs1xmhvdYWKG8_9neuralnet4core7nodenet5testss_41metadata_review_check_fails_without_owner
FNDA:1,_RNvNtNtNtCs1xmhvdYWKG8_9neuralnet4core7nodenet5testss_59metadata_review_check_requires_source_owner_and_usage_terms
FNDA:0,_RNvMs0_NtNtCs1xmhvdYWKG8_9neuralnet4core7nodenetNtB5_11NodePayload6as_str
FNDA:0,_RNvMs3_NtNtCs1xmhvdYWKG8_9neuralnet4core7nodenetNtB5_12NodeMetadata10provenance
FNDA:0,_RNvMs3_NtNtCs1xmhvdYWKG8_9neuralnet4core7nodenetNtB5_12NodeMetadata24push_transformation_step
FNDA:0,_RNvXs_NtNtCs1xmhvdYWKG8_9neuralnet4core7nodenetNtB4_11NodePayloadNtNtCse2qo0L34Llq_4core7default7Default7default
FNDA:2,_RNvMNtNtCs1xmhvdYWKG8_9neuralnet4core7nodenetNtB2_17ContentProvenance23has_minimum_attribution
FNDA:215,_RNvMs0_NtNtCs1xmhvdYWKG8_9neuralnet4core7nodenetNtB5_11NodePayload4text
FNDA:0,_RNvMs0_NtNtCs1xmhvdYWKG8_9neuralnet4core7nodenetNtB5_11NodePayload7as_text
FNDA:1,_RNvMs3_NtNtCs1xmhvdYWKG8_9neuralnet4core7nodenetNtB5_12NodeMetadata14set_provenance
FNDA:1,_RNvMs3_NtNtCs1xmhvdYWKG8_9neuralnet4core7nodenetNtB5_12NodeMetadata16with_usage_terms
FNDA:1,_RNvMs3_NtNtCs1xmhvdYWKG8_9neuralnet4core7nodenetNtB5_12NodeMetadata17with_source_owner
FNDA:2,_RNvMs3_NtNtCs1xmhvdYWKG8_9neuralnet4core7nodenetNtB5_12NodeMetadata33has_minimum_provenance_for_review
FNDA:5,_RNvMs3_NtNtCs1xmhvdYWKG8_9neuralnet4core7nodenetNtB5_12NodeMetadata3get
FNDA:39,_RNvMs3_NtNtCs1xmhvdYWKG8_9neuralnet4core7nodenetNtB5_12NodeMetadata3new
FNDA:39,_RNvMs3_NtNtCs1xmhvdYWKG8_9neuralnet4core7nodenetNtB5_12NodeMetadata3set
FNDA:39,_RNvMs3_NtNtCs1xmhvdYWKG8_9neuralnet4core7nodenetNtB5_12NodeMetadata9with_lang
FNDA:5,_RNvXs1_NtNtCs1xmhvdYWKG8_9neuralnet4core7nodenetNtB5_11NodePayloadNtNtCse2qo0L34Llq_4core3fmt7Display3fmt
FNDA:9,_RNvXs2_NtNtCs1xmhvdYWKG8_9neuralnet4core7nodenetNtB5_11NodePayloadINtNtCse2qo0L34Llq_4core3cmp9PartialEqReE2eq
FNF:20
FNH:15
DA:29,2
DA:30,2
DA:31,2
DA:32,1
DA:33,2
DA:56,0
DA:57,0
DA:58,0
DA:63,215
DA:64,215
DA:65,215
DA:67,0
DA:68,0
DA:69,0
DA:70,0
DA:72,0
DA:74,0
DA:75,0
DA:76,0
DA:81,5
DA:82,5
DA:83,5
DA:84,0
DA:85,0
DA:86,0
DA:89,5
DA:93,9
DA:94,9
DA:95,9
DA:100,39
DA:101,39
DA:102,39
DA:103,39
DA:104,39
DA:105,39
DA:107,39
DA:108,39
DA:109,39
DA:110,39
DA:111,39
DA:113,39
DA:114,39
DA:115,39
DA:116,39
DA:118,5
DA:119,5
DA:120,5
DA:121,5
DA:122,5
DA:124,1
DA:125,1
DA:126,1
DA:128,0
DA:129,0
DA:130,0
DA:132,2
DA:133,2
DA:134,2
DA:135,2
DA:136,2
DA:137,2
DA:139,1
DA:140,1
DA:141,1
DA:142,1
DA:143,1
DA:144,1
DA:145,1
DA:146,1
DA:147,1
DA:148,1
DA:149,1
DA:150,1
DA:151,1
DA:153,1
DA:154,1
DA:155,1
DA:156,1
DA:157,1
DA:158,1
DA:159,1
DA:160,1
DA:161,1
DA:162,1
DA:163,1
DA:164,1
DA:165,1
DA:167,0
DA:168,0
DA:169,0
DA:170,0
DA:171,0
DA:178,215
DA:179,215
DA:180,215
DA:231,1
DA:232,1
DA:233,1
DA:234,1
DA:236,1
DA:237,1
DA:240,1
DA:241,1
DA:242,1
DA:243,1
DA:244,1
DA:245,1
DA:246,1
DA:247,1
DA:248,1
DA:249,1
DA:250,1
DA:251,1
DA:252,1
DA:253,1
DA:254,1
DA:255,1
DA:256,1
DA:258,1
DA:259,1
BRF:0
BRH:0
LF:120
LH:98
end_of_record
SF:/Users/samcolak/Source Code/rust/neuron_server/library/neuralnet/src/core/snapshot_writer.rs
FN:109,_RNvMNtNtCs1xmhvdYWKG8_9neuralnet4core15snapshot_writerNtB2_19SnapshotWriteWorker20is_complete_at_least
FN:187,_RNvNtNtCs1xmhvdYWKG8_9neuralnet4core15snapshot_writer26is_snapshot_write_complete
FN:40,_RNCNvMNtNtCs1xmhvdYWKG8_9neuralnet4core15snapshot_writerNtB4_19SnapshotWriteWorker3new0B8_
FN:152,_RNCNvNtNtCs1xmhvdYWKG8_9neuralnet4core15snapshot_writer25run_snapshot_write_workers_0B7_
FN:202,_RNCNvNtNtCs1xmhvdYWKG8_9neuralnet4core15snapshot_writer28write_snapshot_bytes_to_path0B7_
FN:96,_RNvMNtNtCs1xmhvdYWKG8_9neuralnet4core15snapshot_writerNtB2_19SnapshotWriteWorker12latest_error
FN:72,_RNvMNtNtCs1xmhvdYWKG8_9neuralnet4core15snapshot_writerNtB2_19SnapshotWriteWorker17wait_for_at_least
FN:31,_RNvMNtNtCs1xmhvdYWKG8_9neuralnet4core15snapshot_writerNtB2_19SnapshotWriteWorker3new
FN:47,_RNvMNtNtCs1xmhvdYWKG8_9neuralnet4core15snapshot_writerNtB2_19SnapshotWriteWorker6submit
FN:175,_RNvNtNtCs1xmhvdYWKG8_9neuralnet4core15snapshot_writer21submit_snapshot_write
FN:179,_RNvNtNtCs1xmhvdYWKG8_9neuralnet4core15snapshot_writer23wait_for_snapshot_write
FN:129,_RNvNtNtCs1xmhvdYWKG8_9neuralnet4core15snapshot_writer25run_snapshot_write_worker
FN:183,_RNvNtNtCs1xmhvdYWKG8_9neuralnet4core15snapshot_writer27latest_snapshot_write_error
FN:191,_RNvNtNtCs1xmhvdYWKG8_9neuralnet4core15snapshot_writer28write_snapshot_bytes_to_path
FN:125,_RNvNtNtCs1xmhvdYWKG8_9neuralnet4core15snapshot_writer6worker
FNDA:0,_RNvMNtNtCs1xmhvdYWKG8_9neuralnet4core15snapshot_writerNtB2_19SnapshotWriteWorker20is_complete_at_least
FNDA:0,_RNvNtNtCs1xmhvdYWKG8_9neuralnet4core15snapshot_writer26is_snapshot_write_complete
FNDA:1,_RNCNvMNtNtCs1xmhvdYWKG8_9neuralnet4core15snapshot_writerNtB4_19SnapshotWriteWorker3new0B8_
FNDA:0,_RNCNvNtNtCs1xmhvdYWKG8_9neuralnet4core15snapshot_writer25run_snapshot_write_workers_0B7_
FNDA:12,_RNCNvNtNtCs1xmhvdYWKG8_9neuralnet4core15snapshot_writer28write_snapshot_bytes_to_path0B7_
FNDA:2,_RNvMNtNtCs1xmhvdYWKG8_9neuralnet4core15snapshot_writerNtB2_19SnapshotWriteWorker12latest_error
FNDA:2,_RNvMNtNtCs1xmhvdYWKG8_9neuralnet4core15snapshot_writerNtB2_19SnapshotWriteWorker17wait_for_at_least
FNDA:1,_RNvMNtNtCs1xmhvdYWKG8_9neuralnet4core15snapshot_writerNtB2_19SnapshotWriteWorker3new
FNDA:2,_RNvMNtNtCs1xmhvdYWKG8_9neuralnet4core15snapshot_writerNtB2_19SnapshotWriteWorker6submit
FNDA:2,_RNvNtNtCs1xmhvdYWKG8_9neuralnet4core15snapshot_writer21submit_snapshot_write
FNDA:2,_RNvNtNtCs1xmhvdYWKG8_9neuralnet4core15snapshot_writer23wait_for_snapshot_write
FNDA:1,_RNvNtNtCs1xmhvdYWKG8_9neuralnet4core15snapshot_writer25run_snapshot_write_worker
FNDA:2,_RNvNtNtCs1xmhvdYWKG8_9neuralnet4core15snapshot_writer27latest_snapshot_write_error
FNDA:12,_RNvNtNtCs1xmhvdYWKG8_9neuralnet4core15snapshot_writer28write_snapshot_bytes_to_path
FNDA:6,_RNvNtNtCs1xmhvdYWKG8_9neuralnet4core15snapshot_writer6worker
FNF:15
FNH:12
DA:31,1
DA:32,1
DA:33,1
DA:34,1
DA:35,1
DA:36,1
DA:38,1
DA:39,1
DA:40,1
DA:41,1
DA:43,1
DA:45,1
DA:47,2
DA:49,2
DA:50,2
DA:51,2
DA:52,2
DA:54,2
DA:55,2
DA:57,2
DA:58,2
DA:59,2
DA:60,2
DA:61,2
DA:62,2
DA:63,2
DA:64,2
DA:67,2
DA:68,2
DA:70,2
DA:72,2
DA:74,2
DA:75,2
DA:76,2
DA:77,2
DA:80,4
DA:81,2
DA:83,2
DA:84,0
DA:85,2
DA:86,2
DA:87,2
DA:89,2
DA:90,2
DA:91,2
DA:94,2
DA:96,2
DA:98,2
DA:99,2
DA:100,2
DA:101,2
DA:102,2
DA:103,2
DA:105,2
DA:107,2
DA:109,0
DA:111,0
DA:112,0
DA:113,0
DA:114,0
DA:116,0
DA:117,0
DA:120,0
DA:121,0
DA:125,6
DA:126,6
DA:127,6
DA:129,1
DA:131,2
DA:132,3
DA:133,3
DA:134,3
DA:135,3
DA:137,4
DA:138,2
DA:139,2
DA:140,2
DA:141,2
DA:143,2
DA:144,2
DA:145,2
DA:146,2
DA:147,2
DA:150,2
DA:151,2
DA:152,2
DA:154,2
DA:155,2
DA:156,2
DA:157,2
DA:158,2
DA:159,2
DA:160,2
DA:161,2
DA:162,2
DA:164,2
DA:165,0
DA:166,0
DA:167,0
DA:170,2
DA:175,2
DA:176,2
DA:177,2
DA:179,2
DA:180,2
DA:181,2
DA:183,2
DA:184,2
DA:185,2
DA:187,0
DA:188,0
DA:189,0
DA:191,12
DA:193,12
DA:194,12
DA:196,12
DA:197,0
DA:199,12
DA:201,12
DA:202,12
DA:203,12
DA:206,12
DA:207,12
DA:209,12
DA:211,12
BRF:0
BRH:0
LF:128
LH:110
end_of_record
SF:/Users/samcolak/Source Code/rust/neuron_server/library/neuralnet/src/core/transaction_log.rs
FN:148,_RNvMNtNtCs1xmhvdYWKG8_9neuralnet4core15transaction_logNtB2_20TransactionLogWorker12latest_error
FN:122,_RNvMNtNtCs1xmhvdYWKG8_9neuralnet4core15transaction_logNtB2_20TransactionLogWorker17wait_for_at_least
FN:76,_RNvMNtNtCs1xmhvdYWKG8_9neuralnet4core15transaction_logNtB2_20TransactionLogWorker3new
FN:94,_RNvMNtNtCs1xmhvdYWKG8_9neuralnet4core15transaction_logNtB2_20TransactionLogWorker6submit
FN:60,_RNvNtNtCs1xmhvdYWKG8_9neuralnet4core15transaction_log17wal_fsync_enabled
FN:224,_RNvNtNtCs1xmhvdYWKG8_9neuralnet4core15transaction_log18append_transaction
FN:232,_RNvNtNtCs1xmhvdYWKG8_9neuralnet4core15transaction_log18flush_transactions
FN:303,_RNvNtNtCs1xmhvdYWKG8_9neuralnet4core15transaction_log20append_record_to_log
FN:344,_RNvNtNtCs1xmhvdYWKG8_9neuralnet4core15transaction_log23rewrite_transaction_log
FN:236,_RNvNtNtCs1xmhvdYWKG8_9neuralnet4core15transaction_log24latest_transaction_error
FN:240,_RNvNtNtCs1xmhvdYWKG8_9neuralnet4core15transaction_log24truncate_transaction_log
FN:168,_RNvNtNtCs1xmhvdYWKG8_9neuralnet4core15transaction_log26run_transaction_log_worker
FN:244,_RNvNtNtCs1xmhvdYWKG8_9neuralnet4core15transaction_log33load_and_sanitize_transaction_log
FN:164,_RNvNtNtCs1xmhvdYWKG8_9neuralnet4core15transaction_log6worker
FN:65,_RNCNCNvNtNtCs1xmhvdYWKG8_9neuralnet4core15transaction_log17wal_fsync_enabled00B9_
FN:87,_RNCNvMNtNtCs1xmhvdYWKG8_9neuralnet4core15transaction_logNtB4_20TransactionLogWorker3new0B8_
FN:62,_RNCNvNtNtCs1xmhvdYWKG8_9neuralnet4core15transaction_log17wal_fsync_enabled0B7_
FN:311,_RNCNvNtNtCs1xmhvdYWKG8_9neuralnet4core15transaction_log20append_record_to_log0B7_
FN:373,_RNCNvNtNtCs1xmhvdYWKG8_9neuralnet4core15transaction_log23rewrite_transaction_log0B7_
FN:355,_RNCNvNtNtCs1xmhvdYWKG8_9neuralnet4core15transaction_log23rewrite_transaction_logs_0B7_
FN:197,_RNCNvNtNtCs1xmhvdYWKG8_9neuralnet4core15transaction_log26run_transaction_log_worker0B7_
FNDA:16,_RNvMNtNtCs1xmhvdYWKG8_9neuralnet4core15transaction_logNtB2_20TransactionLogWorker12latest_error
FNDA:2,_RNvMNtNtCs1xmhvdYWKG8_9neuralnet4core15transaction_logNtB2_20TransactionLogWorker17wait_for_at_least
FNDA:1,_RNvMNtNtCs1xmhvdYWKG8_9neuralnet4core15transaction_logNtB2_20TransactionLogWorker3new
FNDA:11,_RNvMNtNtCs1xmhvdYWKG8_9neuralnet4core15transaction_logNtB2_20TransactionLogWorker6submit
FNDA:13,_RNvNtNtCs1xmhvdYWKG8_9neuralnet4core15transaction_log17wal_fsync_enabled
FNDA:11,_RNvNtNtCs1xmhvdYWKG8_9neuralnet4core15transaction_log18append_transaction
FNDA:2,_RNvNtNtCs1xmhvdYWKG8_9neuralnet4core15transaction_log18flush_transactions
FNDA:11,_RNvNtNtCs1xmhvdYWKG8_9neuralnet4core15transaction_log20append_record_to_log
FNDA:2,_RNvNtNtCs1xmhvdYWKG8_9neuralnet4core15transaction_log23rewrite_transaction_log
FNDA:16,_RNvNtNtCs1xmhvdYWKG8_9neuralnet4core15transaction_log24latest_transaction_error
FNDA:2,_RNvNtNtCs1xmhvdYWKG8_9neuralnet4core15transaction_log24truncate_transaction_log
FNDA:1,_RNvNtNtCs1xmhvdYWKG8_9neuralnet4core15transaction_log26run_transaction_log_worker
FNDA:6,_RNvNtNtCs1xmhvdYWKG8_9neuralnet4core15transaction_log33load_and_sanitize_transaction_log
FNDA:29,_RNvNtNtCs1xmhvdYWKG8_9neuralnet4core15transaction_log6worker
FNDA:0,_RNCNCNvNtNtCs1xmhvdYWKG8_9neuralnet4core15transaction_log17wal_fsync_enabled00B9_
FNDA:1,_RNCNvMNtNtCs1xmhvdYWKG8_9neuralnet4core15transaction_logNtB4_20TransactionLogWorker3new0B8_
FNDA:1,_RNCNvNtNtCs1xmhvdYWKG8_9neuralnet4core15transaction_log17wal_fsync_enabled0B7_
FNDA:0,_RNCNvNtNtCs1xmhvdYWKG8_9neuralnet4core15transaction_log20append_record_to_log0B7_
FNDA:0,_RNCNvNtNtCs1xmhvdYWKG8_9neuralnet4core15transaction_log23rewrite_transaction_log0B7_
FNDA:2,_RNCNvNtNtCs1xmhvdYWKG8_9neuralnet4core15transaction_log23rewrite_transaction_logs_0B7_
FNDA:0,_RNCNvNtNtCs1xmhvdYWKG8_9neuralnet4core15transaction_log26run_transaction_log_worker0B7_
FNF:21
FNH:17
DA:60,13
DA:62,13
DA:63,1
DA:64,1
DA:65,1
DA:66,0
DA:67,0
DA:68,0
DA:69,1
DA:70,1
DA:72,13
DA:76,1
DA:78,1
DA:79,1
DA:80,1
DA:81,1
DA:83,1
DA:85,1
DA:86,1
DA:87,1
DA:88,1
DA:90,1
DA:92,1
DA:94,11
DA:96,11
DA:97,11
DA:98,11
DA:99,11
DA:101,11
DA:103,11
DA:104,11
DA:106,11
DA:107,11
DA:108,11
DA:109,11
DA:110,11
DA:111,11
DA:112,11
DA:113,11
DA:114,11
DA:115,11
DA:117,11
DA:118,11
DA:120,11
DA:122,2
DA:124,2
DA:125,2
DA:126,2
DA:127,2
DA:131,5
DA:132,3
DA:134,2
DA:135,0
DA:136,2
DA:137,2
DA:138,3
DA:140,3
DA:141,3
DA:142,3
DA:146,2
DA:148,16
DA:150,16
DA:151,16
DA:152,16
DA:153,16
DA:155,16
DA:157,2
DA:158,2
DA:160,16
DA:164,29
DA:165,29
DA:166,29
DA:168,1
DA:172,8
DA:174,9
DA:175,9
DA:176,9
DA:177,9
DA:179,14
DA:180,6
DA:181,6
DA:182,6
DA:183,6
DA:185,8
DA:187,8
DA:188,8
DA:189,8
DA:190,8
DA:194,11
DA:196,11
DA:197,11
DA:199,11
DA:200,11
DA:201,11
DA:202,11
DA:204,11
DA:205,11
DA:206,11
DA:207,11
DA:208,11
DA:210,11
DA:211,0
DA:212,0
DA:213,0
DA:216,11
DA:224,11
DA:225,11
DA:226,11
DA:227,11
DA:228,11
DA:229,11
DA:230,11
DA:232,2
DA:233,2
DA:234,2
DA:236,16
DA:237,16
DA:238,16
DA:240,2
DA:241,2
DA:242,2
DA:244,6
DA:246,6
DA:247,0
DA:248,6
DA:249,0
DA:252,0
DA:253,0
DA:254,0
DA:255,0
DA:256,0
DA:258,0
DA:259,0
DA:261,0
DA:262,0
DA:263,0
DA:264,0
DA:265,0
DA:266,0
DA:267,0
DA:268,0
DA:270,0
DA:271,0
DA:273,0
DA:275,0
DA:276,0
DA:277,0
DA:278,0
DA:280,0
DA:281,0
DA:282,0
DA:283,0
DA:285,0
DA:286,0
DA:287,0
DA:289,0
DA:290,0
DA:292,0
DA:293,0
DA:294,0
DA:298,0
DA:299,0
DA:301,6
DA:303,11
DA:305,11
DA:306,11
DA:308,11
DA:309,0
DA:311,11
DA:312,0
DA:313,0
DA:314,0
DA:316,0
DA:318,11
DA:319,0
DA:320,0
DA:321,0
DA:322,0
DA:323,11
DA:325,11
DA:326,11
DA:327,11
DA:328,7
DA:329,4
DA:331,11
DA:332,11
DA:333,11
DA:334,11
DA:336,11
DA:337,0
DA:338,11
DA:340,11
DA:342,11
DA:344,2
DA:346,2
DA:347,2
DA:349,2
DA:350,0
DA:352,2
DA:354,2
DA:355,2
DA:356,2
DA:359,2
DA:360,2
DA:361,2
DA:362,2
DA:363,2
DA:365,2
DA:367,2
DA:369,0
DA:370,0
DA:371,0
DA:373,0
DA:374,0
DA:375,0
DA:376,0
DA:378,0
DA:380,0
DA:381,0
DA:382,0
DA:386,2
DA:388,2
DA:389,0
DA:390,2
DA:392,2
DA:394,2
DA:396,2
BRF:0
BRH:0
LF:236
LH:162
end_of_record
SF:/Users/samcolak/Source Code/rust/neuron_server/library/neuralnet/src/dendrites/image_dendrite.rs
FN:25,_RNvMNtNtCs1xmhvdYWKG8_9neuralnet9dendrites14image_dendriteNtB2_13ImageDendrite3new
FN:43,_RNvMNtNtCs1xmhvdYWKG8_9neuralnet9dendrites14image_dendriteNtB2_13ImageDendrite7connect
FN:88,_RNvXs_NtNtCs1xmhvdYWKG8_9neuralnet9dendrites14image_dendriteNtB4_13ImageDendriteNtNtNtB8_4core7nodenet11NetworkNode11connections
FN:80,_RNvXs_NtNtCs1xmhvdYWKG8_9neuralnet9dendrites14image_dendriteNtB4_13ImageDendriteNtNtNtB8_4core7nodenet11NetworkNode14normalized_key
FN:96,_RNvXs_NtNtCs1xmhvdYWKG8_9neuralnet9dendrites14image_dendriteNtB4_13ImageDendriteNtNtNtB8_4core7nodenet11NetworkNode17has_connection_to
FN:84,_RNvXs_NtNtCs1xmhvdYWKG8_9neuralnet9dendrites14image_dendriteNtB4_13ImageDendriteNtNtNtB8_4core7nodenet11NetworkNode18set_normalized_key
FN:100,_RNvXs_NtNtCs1xmhvdYWKG8_9neuralnet9dendrites14image_dendriteNtB4_13ImageDendriteNtNtNtB8_4core7nodenet11NetworkNode24rebuild_connection_index
FN:72,_RNvXs_NtNtCs1xmhvdYWKG8_9neuralnet9dendrites14image_dendriteNtB4_13ImageDendriteNtNtNtB8_4core7nodenet11NetworkNode3uid
FN:76,_RNvXs_NtNtCs1xmhvdYWKG8_9neuralnet9dendrites14image_dendriteNtB4_13ImageDendriteNtNtNtB8_4core7nodenet11NetworkNode4data
FN:92,_RNvXs_NtNtCs1xmhvdYWKG8_9neuralnet9dendrites14image_dendriteNtB4_13ImageDendriteNtNtNtB8_4core7nodenet11NetworkNode7connect
FN:68,_RNvXs_NtNtCs1xmhvdYWKG8_9neuralnet9dendrites14image_dendriteNtB4_13ImageDendriteNtNtNtB8_4core7nodenet11NetworkNode8new_node
FNDA:0,_RNvMNtNtCs1xmhvdYWKG8_9neuralnet9dendrites14image_dendriteNtB2_13ImageDendrite3new
FNDA:0,_RNvMNtNtCs1xmhvdYWKG8_9neuralnet9dendrites14image_dendriteNtB2_13ImageDendrite7connect
FNDA:0,_RNvXs_NtNtCs1xmhvdYWKG8_9neuralnet9dendrites14image_dendriteNtB4_13ImageDendriteNtNtNtB8_4core7nodenet11NetworkNode11connections
FNDA:0,_RNvXs_NtNtCs1xmhvdYWKG8_9neuralnet9dendrites14image_dendriteNtB4_13ImageDendriteNtNtNtB8_4core7nodenet11NetworkNode14normalized_key
FNDA:0,_RNvXs_NtNtCs1xmhvdYWKG8_9neuralnet9dendrites14image_dendriteNtB4_13ImageDendriteNtNtNtB8_4core7nodenet11NetworkNode17has_connection_to
FNDA:0,_RNvXs_NtNtCs1xmhvdYWKG8_9neuralnet9dendrites14image_dendriteNtB4_13ImageDendriteNtNtNtB8_4core7nodenet11NetworkNode18set_normalized_key
FNDA:0,_RNvXs_NtNtCs1xmhvdYWKG8_9neuralnet9dendrites14image_dendriteNtB4_13ImageDendriteNtNtNtB8_4core7nodenet11NetworkNode24rebuild_connection_index
FNDA:0,_RNvXs_NtNtCs1xmhvdYWKG8_9neuralnet9dendrites14image_dendriteNtB4_13ImageDendriteNtNtNtB8_4core7nodenet11NetworkNode3uid
FNDA:0,_RNvXs_NtNtCs1xmhvdYWKG8_9neuralnet9dendrites14image_dendriteNtB4_13ImageDendriteNtNtNtB8_4core7nodenet11NetworkNode4data
FNDA:0,_RNvXs_NtNtCs1xmhvdYWKG8_9neuralnet9dendrites14image_dendriteNtB4_13ImageDendriteNtNtNtB8_4core7nodenet11NetworkNode7connect
FNDA:0,_RNvXs_NtNtCs1xmhvdYWKG8_9neuralnet9dendrites14image_dendriteNtB4_13ImageDendriteNtNtNtB8_4core7nodenet11NetworkNode8new_node
FNF:11
FNH:0
DA:25,0
DA:27,0
DA:28,0
DA:30,0
DA:31,0
DA:32,0
DA:33,0
DA:34,0
DA:35,0
DA:36,0
DA:37,0
DA:38,0
DA:39,0
DA:41,0
DA:43,0
DA:45,0
DA:46,0
DA:48,0
DA:49,0
DA:50,0
DA:52,0
DA:53,0
DA:54,0
DA:55,0
DA:56,0
DA:58,0
DA:59,0
DA:60,0
DA:62,0
DA:68,0
DA:69,0
DA:70,0
DA:72,0
DA:73,0
DA:74,0
DA:76,0
DA:77,0
DA:78,0
DA:80,0
DA:81,0
DA:82,0
DA:84,0
DA:85,0
DA:86,0
DA:88,0
DA:89,0
DA:90,0
DA:92,0
DA:93,0
DA:94,0
DA:96,0
DA:97,0
DA:98,0
DA:100,0
DA:101,0
DA:102,0
DA:103,0
DA:104,0
DA:105,0
BRF:0
BRH:0
LF:59
LH:0
end_of_record
SF:/Users/samcolak/Source Code/rust/neuron_server/library/neuralnet/src/dendrites/multimodal_dendrite.rs
FN:25,_RNvMNtNtCs1xmhvdYWKG8_9neuralnet9dendrites19multimodal_dendriteNtB2_18MultimodalDendrite3new
FN:49,_RNvMNtNtCs1xmhvdYWKG8_9neuralnet9dendrites19multimodal_dendriteNtB2_18MultimodalDendrite7connect
FN:94,_RNvXs_NtNtCs1xmhvdYWKG8_9neuralnet9dendrites19multimodal_dendriteNtB4_18MultimodalDendriteNtNtNtB8_4core7nodenet11NetworkNode11connections
FN:86,_RNvXs_NtNtCs1xmhvdYWKG8_9neuralnet9dendrites19multimodal_dendriteNtB4_18MultimodalDendriteNtNtNtB8_4core7nodenet11NetworkNode14normalized_key
FN:90,_RNvXs_NtNtCs1xmhvdYWKG8_9neuralnet9dendrites19multimodal_dendriteNtB4_18MultimodalDendriteNtNtNtB8_4core7nodenet11NetworkNode18set_normalized_key
FN:106,_RNvXs_NtNtCs1xmhvdYWKG8_9neuralnet9dendrites19multimodal_dendriteNtB4_18MultimodalDendriteNtNtNtB8_4core7nodenet11NetworkNode24rebuild_connection_index
FN:78,_RNvXs_NtNtCs1xmhvdYWKG8_9neuralnet9dendrites19multimodal_dendriteNtB4_18MultimodalDendriteNtNtNtB8_4core7nodenet11NetworkNode3uid
FN:82,_RNvXs_NtNtCs1xmhvdYWKG8_9neuralnet9dendrites19multimodal_dendriteNtB4_18MultimodalDendriteNtNtNtB8_4core7nodenet11NetworkNode4data
FN:98,_RNvXs_NtNtCs1xmhvdYWKG8_9neuralnet9dendrites19multimodal_dendriteNtB4_18MultimodalDendriteNtNtNtB8_4core7nodenet11NetworkNode7connect
FN:74,_RNvXs_NtNtCs1xmhvdYWKG8_9neuralnet9dendrites19multimodal_dendriteNtB4_18MultimodalDendriteNtNtNtB8_4core7nodenet11NetworkNode8new_node
FN:102,_RNvXs_NtNtCs1xmhvdYWKG8_9neuralnet9dendrites19multimodal_dendriteNtB4_18MultimodalDendriteNtNtNtB8_4core7nodenet11NetworkNode17has_connection_to
FNDA:215,_RNvMNtNtCs1xmhvdYWKG8_9neuralnet9dendrites19multimodal_dendriteNtB2_18MultimodalDendrite3new
FNDA:264,_RNvMNtNtCs1xmhvdYWKG8_9neuralnet9dendrites19multimodal_dendriteNtB2_18MultimodalDendrite7connect
FNDA:93,_RNvXs_NtNtCs1xmhvdYWKG8_9neuralnet9dendrites19multimodal_dendriteNtB4_18MultimodalDendriteNtNtNtB8_4core7nodenet11NetworkNode11connections
FNDA:526,_RNvXs_NtNtCs1xmhvdYWKG8_9neuralnet9dendrites19multimodal_dendriteNtB4_18MultimodalDendriteNtNtNtB8_4core7nodenet11NetworkNode14normalized_key
FNDA:0,_RNvXs_NtNtCs1xmhvdYWKG8_9neuralnet9dendrites19multimodal_dendriteNtB4_18MultimodalDendriteNtNtNtB8_4core7nodenet11NetworkNode18set_normalized_key
FNDA:19,_RNvXs_NtNtCs1xmhvdYWKG8_9neuralnet9dendrites19multimodal_dendriteNtB4_18MultimodalDendriteNtNtNtB8_4core7nodenet11NetworkNode24rebuild_connection_index
FNDA:841,_RNvXs_NtNtCs1xmhvdYWKG8_9neuralnet9dendrites19multimodal_dendriteNtB4_18MultimodalDendriteNtNtNtB8_4core7nodenet11NetworkNode3uid
FNDA:0,_RNvXs_NtNtCs1xmhvdYWKG8_9neuralnet9dendrites19multimodal_dendriteNtB4_18MultimodalDendriteNtNtNtB8_4core7nodenet11NetworkNode4data
FNDA:264,_RNvXs_NtNtCs1xmhvdYWKG8_9neuralnet9dendrites19multimodal_dendriteNtB4_18MultimodalDendriteNtNtNtB8_4core7nodenet11NetworkNode7connect
FNDA:215,_RNvXs_NtNtCs1xmhvdYWKG8_9neuralnet9dendrites19multimodal_dendriteNtB4_18MultimodalDendriteNtNtNtB8_4core7nodenet11NetworkNode8new_node
FNDA:0,_RNvXs_NtNtCs1xmhvdYWKG8_9neuralnet9dendrites19multimodal_dendriteNtB4_18MultimodalDendriteNtNtNtB8_4core7nodenet11NetworkNode17has_connection_to
FNF:11
FNH:8
DA:25,215
DA:27,215
DA:28,215
DA:30,215
DA:31,215
DA:32,215
DA:33,215
DA:34,215
DA:36,215
DA:37,215
DA:38,215
DA:39,215
DA:40,215
DA:41,215
DA:42,215
DA:43,215
DA:44,215
DA:45,215
DA:47,215
DA:49,264
DA:51,264
DA:52,97
DA:54,97
DA:55,97
DA:56,167
DA:58,167
DA:59,167
DA:60,167
DA:61,167
DA:62,167
DA:64,167
DA:65,167
DA:66,167
DA:68,264
DA:74,215
DA:75,215
DA:76,215
DA:78,841
DA:79,841
DA:80,841
DA:82,0
DA:83,0
DA:84,0
DA:86,526
DA:87,526
DA:88,526
DA:90,0
DA:91,0
DA:92,0
DA:94,93
DA:95,93
DA:96,93
DA:98,264
DA:99,264
DA:100,264
DA:102,0
DA:103,0
DA:104,0
DA:106,19
DA:107,19
DA:108,19
DA:109,11
DA:110,11
DA:111,19
BRF:0
BRH:0
LF:64
LH:55
end_of_record
SF:/Users/samcolak/Source Code/rust/neuron_server/library/neuralnet/src/dendrites/text_dendrite.rs
FN:38,_RNCNvNtNtCs1xmhvdYWKG8_9neuralnet9dendrites13text_dendrite18normalize_data_key0B7_
FN:71,_RNvMs_NtNtCs1xmhvdYWKG8_9neuralnet9dendrites13text_dendriteNtB4_12TextDendrite3new
FN:89,_RNvMs_NtNtCs1xmhvdYWKG8_9neuralnet9dendrites13text_dendriteNtB4_12TextDendrite7connect
FN:34,_RNvNtNtCs1xmhvdYWKG8_9neuralnet9dendrites13text_dendrite18normalize_data_key
FN:21,_RNvXNtNtCs1xmhvdYWKG8_9neuralnet9dendrites13text_dendriteNtB2_12DendriteTypeNtNtCse2qo0L34Llq_4core3fmt7Display3fmt
FN:134,_RNvXs0_NtNtCs1xmhvdYWKG8_9neuralnet9dendrites13text_dendriteNtB5_12TextDendriteNtNtNtB9_4core7nodenet11NetworkNode11connections
FN:126,_RNvXs0_NtNtCs1xmhvdYWKG8_9neuralnet9dendrites13text_dendriteNtB5_12TextDendriteNtNtNtB9_4core7nodenet11NetworkNode14normalized_key
FN:142,_RNvXs0_NtNtCs1xmhvdYWKG8_9neuralnet9dendrites13text_dendriteNtB5_12TextDendriteNtNtNtB9_4core7nodenet11NetworkNode17has_connection_to
FN:130,_RNvXs0_NtNtCs1xmhvdYWKG8_9neuralnet9dendrites13text_dendriteNtB5_12TextDendriteNtNtNtB9_4core7nodenet11NetworkNode18set_normalized_key
FN:146,_RNvXs0_NtNtCs1xmhvdYWKG8_9neuralnet9dendrites13text_dendriteNtB5_12TextDendriteNtNtNtB9_4core7nodenet11NetworkNode24rebuild_connection_index
FN:118,_RNvXs0_NtNtCs1xmhvdYWKG8_9neuralnet9dendrites13text_dendriteNtB5_12TextDendriteNtNtNtB9_4core7nodenet11NetworkNode3uid
FN:122,_RNvXs0_NtNtCs1xmhvdYWKG8_9neuralnet9dendrites13text_dendriteNtB5_12TextDendriteNtNtNtB9_4core7nodenet11NetworkNode4data
FN:138,_RNvXs0_NtNtCs1xmhvdYWKG8_9neuralnet9dendrites13text_dendriteNtB5_12TextDendriteNtNtNtB9_4core7nodenet11NetworkNode7connect
FN:114,_RNvXs0_NtNtCs1xmhvdYWKG8_9neuralnet9dendrites13text_dendriteNtB5_12TextDendriteNtNtNtB9_4core7nodenet11NetworkNode8new_node
FNDA:0,_RNCNvNtNtCs1xmhvdYWKG8_9neuralnet9dendrites13text_dendrite18normalize_data_key0B7_
FNDA:0,_RNvMs_NtNtCs1xmhvdYWKG8_9neuralnet9dendrites13text_dendriteNtB4_12TextDendrite3new
FNDA:0,_RNvMs_NtNtCs1xmhvdYWKG8_9neuralnet9dendrites13text_dendriteNtB4_12TextDendrite7connect
FNDA:0,_RNvNtNtCs1xmhvdYWKG8_9neuralnet9dendrites13text_dendrite18normalize_data_key
FNDA:0,_RNvXNtNtCs1xmhvdYWKG8_9neuralnet9dendrites13text_dendriteNtB2_12DendriteTypeNtNtCse2qo0L34Llq_4core3fmt7Display3fmt
FNDA:0,_RNvXs0_NtNtCs1xmhvdYWKG8_9neuralnet9dendrites13text_dendriteNtB5_12TextDendriteNtNtNtB9_4core7nodenet11NetworkNode11connections
FNDA:0,_RNvXs0_NtNtCs1xmhvdYWKG8_9neuralnet9dendrites13text_dendriteNtB5_12TextDendriteNtNtNtB9_4core7nodenet11NetworkNode14normalized_key
FNDA:0,_RNvXs0_NtNtCs1xmhvdYWKG8_9neuralnet9dendrites13text_dendriteNtB5_12TextDendriteNtNtNtB9_4core7nodenet11NetworkNode17has_connection_to
FNDA:0,_RNvXs0_NtNtCs1xmhvdYWKG8_9neuralnet9dendrites13text_dendriteNtB5_12TextDendriteNtNtNtB9_4core7nodenet11NetworkNode18set_normalized_key
FNDA:0,_RNvXs0_NtNtCs1xmhvdYWKG8_9neuralnet9dendrites13text_dendriteNtB5_12TextDendriteNtNtNtB9_4core7nodenet11NetworkNode24rebuild_connection_index
FNDA:0,_RNvXs0_NtNtCs1xmhvdYWKG8_9neuralnet9dendrites13text_dendriteNtB5_12TextDendriteNtNtNtB9_4core7nodenet11NetworkNode3uid
FNDA:0,_RNvXs0_NtNtCs1xmhvdYWKG8_9neuralnet9dendrites13text_dendriteNtB5_12TextDendriteNtNtNtB9_4core7nodenet11NetworkNode4data
FNDA:0,_RNvXs0_NtNtCs1xmhvdYWKG8_9neuralnet9dendrites13text_dendriteNtB5_12TextDendriteNtNtNtB9_4core7nodenet11NetworkNode7connect
FNDA:0,_RNvXs0_NtNtCs1xmhvdYWKG8_9neuralnet9dendrites13text_dendriteNtB5_12TextDendriteNtNtNtB9_4core7nodenet11NetworkNode8new_node
FNF:14
FNH:0
DA:21,0
DA:22,0
DA:23,0
DA:24,0
DA:25,0
DA:26,0
DA:27,0
DA:28,0
DA:30,0
DA:31,0
DA:34,0
DA:35,0
DA:36,0
DA:37,0
DA:38,0
DA:39,0
DA:40,0
DA:42,0
DA:44,0
DA:45,0
DA:47,0
DA:48,0
DA:49,0
DA:50,0
DA:51,0
DA:71,0
DA:73,0
DA:74,0
DA:76,0
DA:77,0
DA:78,0
DA:79,0
DA:80,0
DA:81,0
DA:82,0
DA:83,0
DA:84,0
DA:85,0
DA:87,0
DA:89,0
DA:91,0
DA:92,0
DA:94,0
DA:95,0
DA:96,0
DA:98,0
DA:99,0
DA:100,0
DA:101,0
DA:102,0
DA:104,0
DA:105,0
DA:106,0
DA:108,0
DA:114,0
DA:115,0
DA:116,0
DA:118,0
DA:119,0
DA:120,0
DA:122,0
DA:123,0
DA:124,0
DA:126,0
DA:127,0
DA:128,0
DA:130,0
DA:131,0
DA:132,0
DA:134,0
DA:135,0
DA:136,0
DA:138,0
DA:139,0
DA:140,0
DA:142,0
DA:143,0
DA:144,0
DA:146,0
DA:147,0
DA:148,0
DA:149,0
DA:150,0
DA:151,0
BRF:0
BRH:0
LF:85
LH:0
end_of_record
SF:/Users/samcolak/Source Code/rust/neuron_server/library/neuralnet/src/helpers/axon.rs
FN:14,_RNvMNtNtCs1xmhvdYWKG8_9neuralnet7helpers4axonNtB2_4Axon3new
FNDA:0,_RNvMNtNtCs1xmhvdYWKG8_9neuralnet7helpers4axonNtB2_4Axon3new
FNF:1
FNH:0
DA:14,0
DA:15,0
DA:16,0
BRF:0
BRH:0
LF:3
LH:0
end_of_record
SF:/Users/samcolak/Source Code/rust/neuron_server/library/neuralnet/src/helpers/image_io.rs
FN:37,_RNvXs_NtNtCs1xmhvdYWKG8_9neuralnet7helpers8image_ioNtB4_12ImageIoErrorNtNtCse2qo0L34Llq_4core3fmt7Display3fmt
FN:105,_RNCNvNtNtNtCs1xmhvdYWKG8_9neuralnet7helpers8image_io5tests10sample_rgb0B9_
FN:24,_RNvMNtNtCs1xmhvdYWKG8_9neuralnet7helpers8image_ioNtB2_15ImageByteBuffer8as_slice
FN:74,_RNvNtNtCs1xmhvdYWKG8_9neuralnet7helpers8image_io24decode_png_or_jpeg_bytes
FN:66,_RNvNtNtCs1xmhvdYWKG8_9neuralnet7helpers8image_io24format_from_image_format
FN:92,_RNvNtNtCs1xmhvdYWKG8_9neuralnet7helpers8image_io26load_png_or_jpeg_from_path
FN:55,_RNvXs1_NtNtCs1xmhvdYWKG8_9neuralnet7helpers8image_ioNtB5_12ImageIoErrorINtNtCse2qo0L34Llq_4core7convert4FromNtNtNtCs6meVLhSyLsw_3std2io5error5ErrorE4from
FN:61,_RNvXs2_NtNtCs1xmhvdYWKG8_9neuralnet7helpers8image_ioNtB5_12ImageIoErrorINtNtCse2qo0L34Llq_4core7convert4FromNtNtCscNyX2Lmjf0l_5image5error10ImageErrorE4from
FN:104,_RNvNtNtNtCs1xmhvdYWKG8_9neuralnet7helpers8image_io5tests10sample_rgb
FN:111,_RNvNtNtNtCs1xmhvdYWKG8_9neuralnet7helpers8image_io5testss_31decodes_png_to_grayscale_buffer
FN:137,_RNvNtNtNtCs1xmhvdYWKG8_9neuralnet7helpers8image_io5testss_32decodes_jpeg_to_grayscale_buffer
FNDA:0,_RNvXs_NtNtCs1xmhvdYWKG8_9neuralnet7helpers8image_ioNtB4_12ImageIoErrorNtNtCse2qo0L34Llq_4core3fmt7Display3fmt
FNDA:32,_RNCNvNtNtNtCs1xmhvdYWKG8_9neuralnet7helpers8image_io5tests10sample_rgb0B9_
FNDA:0,_RNvMNtNtCs1xmhvdYWKG8_9neuralnet7helpers8image_ioNtB2_15ImageByteBuffer8as_slice
FNDA:2,_RNvNtNtCs1xmhvdYWKG8_9neuralnet7helpers8image_io24decode_png_or_jpeg_bytes
FNDA:2,_RNvNtNtCs1xmhvdYWKG8_9neuralnet7helpers8image_io24format_from_image_format
FNDA:1,_RNvNtNtCs1xmhvdYWKG8_9neuralnet7helpers8image_io26load_png_or_jpeg_from_path
FNDA:1,_RNvXs1_NtNtCs1xmhvdYWKG8_9neuralnet7helpers8image_ioNtB5_12ImageIoErrorINtNtCse2qo0L34Llq_4core7convert4FromNtNtNtCs6meVLhSyLsw_3std2io5error5ErrorE4from
FNDA:0,_RNvXs2_NtNtCs1xmhvdYWKG8_9neuralnet7helpers8image_ioNtB5_12ImageIoErrorINtNtCse2qo0L34Llq_4core7convert4FromNtNtCscNyX2Lmjf0l_5image5error10ImageErrorE4from
FNDA:2,_RNvNtNtNtCs1xmhvdYWKG8_9neuralnet7helpers8image_io5tests10sample_rgb
FNDA:1,_RNvNtNtNtCs1xmhvdYWKG8_9neuralnet7helpers8image_io5testss_31decodes_png_to_grayscale_buffer
FNDA:1,_RNvNtNtNtCs1xmhvdYWKG8_9neuralnet7helpers8image_io5testss_32decodes_jpeg_to_grayscale_buffer
FNF:11
FNH:8
DA:24,0
DA:25,0
DA:26,0
DA:37,0
DA:38,0
DA:39,0
DA:40,0
DA:41,0
DA:42,0
DA:43,0
DA:49,0
DA:55,1
DA:56,1
DA:57,1
DA:61,0
DA:62,0
DA:63,0
DA:66,2
DA:67,2
DA:68,1
DA:69,1
DA:70,0
DA:72,2
DA:74,2
DA:75,2
DA:76,2
DA:77,0
DA:80,2
DA:81,2
DA:83,2
DA:84,2
DA:85,2
DA:86,2
DA:87,2
DA:88,2
DA:89,2
DA:90,2
DA:92,1
DA:93,1
DA:94,0
DA:95,1
DA:104,2
DA:105,32
DA:106,32
DA:107,32
DA:108,2
DA:111,1
DA:112,1
DA:113,1
DA:115,1
DA:116,1
DA:117,1
DA:118,1
DA:119,1
DA:120,1
DA:121,1
DA:122,1
DA:123,1
DA:124,1
DA:125,1
DA:127,1
DA:129,1
DA:130,1
DA:131,1
DA:132,1
DA:133,1
DA:134,1
DA:137,1
DA:138,1
DA:139,1
DA:141,1
DA:142,1
DA:143,1
DA:144,1
DA:145,1
DA:146,1
DA:147,1
DA:148,1
DA:149,1
DA:150,1
DA:151,1
DA:153,1
DA:155,1
DA:156,1
DA:157,1
DA:158,1
DA:159,1
DA:160,1
BRF:0
BRH:0
LF:89
LH:72
end_of_record
SF:/Users/samcolak/Source Code/rust/neuron_server/library/neuralnet/src/helpers/multimodal_controller.rs
FN:167,_RNvXs_NtNtCs1xmhvdYWKG8_9neuralnet7helpers21multimodal_controllerNtB4_20MultiModalControllerNtNtNtB8_4core7nodenet21NodeNetworkController10stop_words
FN:190,_RNCNvNtNtNtCs1xmhvdYWKG8_9neuralnet7helpers21multimodal_controller5testss_36tokenizes_image_with_modality_prefix0B9_
FN:38,_RNvNtNtCs1xmhvdYWKG8_9neuralnet7helpers21multimodal_controller11edge_bucket
FN:28,_RNvNtNtCs1xmhvdYWKG8_9neuralnet7helpers21multimodal_controller11mean_bucket
FN:55,_RNvNtNtCs1xmhvdYWKG8_9neuralnet7helpers21multimodal_controller13tokenize_text
FN:65,_RNvNtNtCs1xmhvdYWKG8_9neuralnet7helpers21multimodal_controller14tokenize_image
FN:87,_RNvXNtNtCs1xmhvdYWKG8_9neuralnet7helpers21multimodal_controllerNtB2_20MultiModalControllerNtNtNtB6_4core7nodenet23TokenClusterKeyStrategy21cluster_key_for_token
FN:130,_RNvXs_NtNtCs1xmhvdYWKG8_9neuralnet7helpers21multimodal_controllerNtB4_20MultiModalControllerNtNtNtB8_4core7nodenet21NodeNetworkController14evaluate_match
FN:126,_RNvXs_NtNtCs1xmhvdYWKG8_9neuralnet7helpers21multimodal_controllerNtB4_20MultiModalControllerNtNtNtB8_4core7nodenet21NodeNetworkController15normalize_token
FN:108,_RNvXs_NtNtCs1xmhvdYWKG8_9neuralnet7helpers21multimodal_controllerNtB4_20MultiModalControllerNtNtNtB8_4core7nodenet21NodeNetworkController8tokenize
FN:177,_RNvNtNtNtCs1xmhvdYWKG8_9neuralnet7helpers21multimodal_controller5testss_35tokenizes_text_with_modality_prefix
FN:185,_RNvNtNtNtCs1xmhvdYWKG8_9neuralnet7helpers21multimodal_controller5testss_36tokenizes_image_with_modality_prefix
FN:194,_RNvNtNtNtCs1xmhvdYWKG8_9neuralnet7helpers21multimodal_controller5testss_37evaluate_match_rejects_cross_modality
FN:33,_RNCNvNtNtCs1xmhvdYWKG8_9neuralnet7helpers21multimodal_controller11mean_bucket0B7_
FN:59,_RNCNvNtNtCs1xmhvdYWKG8_9neuralnet7helpers21multimodal_controller13tokenize_text0B7_
FN:61,_RNCNvNtNtCs1xmhvdYWKG8_9neuralnet7helpers21multimodal_controller13tokenize_texts0_0B7_
FN:60,_RNCNvNtNtCs1xmhvdYWKG8_9neuralnet7helpers21multimodal_controller13tokenize_texts_0B7_
FN:115,_RNCNvXs_NtNtCs1xmhvdYWKG8_9neuralnet7helpers21multimodal_controllerNtB6_20MultiModalControllerNtNtNtBa_4core7nodenet21NodeNetworkController8tokenize0Ba_
FN:120,_RNCNvXs_NtNtCs1xmhvdYWKG8_9neuralnet7helpers21multimodal_controllerNtB6_20MultiModalControllerNtNtNtBa_4core7nodenet21NodeNetworkController8tokenizes_0Ba_
FNDA:0,_RNvXs_NtNtCs1xmhvdYWKG8_9neuralnet7helpers21multimodal_controllerNtB4_20MultiModalControllerNtNtNtB8_4core7nodenet21NodeNetworkController10stop_words
FNDA:17,_RNCNvNtNtNtCs1xmhvdYWKG8_9neuralnet7helpers21multimodal_controller5testss_36tokenizes_image_with_modality_prefix0B9_
FNDA:152,_RNvNtNtCs1xmhvdYWKG8_9neuralnet7helpers21multimodal_controller11edge_bucket
FNDA:152,_RNvNtNtCs1xmhvdYWKG8_9neuralnet7helpers21multimodal_controller11mean_bucket
FNDA:366,_RNvNtNtCs1xmhvdYWKG8_9neuralnet7helpers21multimodal_controller13tokenize_text
FNDA:19,_RNvNtNtCs1xmhvdYWKG8_9neuralnet7helpers21multimodal_controller14tokenize_image
FNDA:488,_RNvXNtNtCs1xmhvdYWKG8_9neuralnet7helpers21multimodal_controllerNtB2_20MultiModalControllerNtNtNtB6_4core7nodenet23TokenClusterKeyStrategy21cluster_key_for_token
FNDA:3491,_RNvXs_NtNtCs1xmhvdYWKG8_9neuralnet7helpers21multimodal_controllerNtB4_20MultiModalControllerNtNtNtB8_4core7nodenet21NodeNetworkController14evaluate_match
FNDA:1440,_RNvXs_NtNtCs1xmhvdYWKG8_9neuralnet7helpers21multimodal_controllerNtB4_20MultiModalControllerNtNtNtB8_4core7nodenet21NodeNetworkController15normalize_token
FNDA:449,_RNvXs_NtNtCs1xmhvdYWKG8_9neuralnet7helpers21multimodal_controllerNtB4_20MultiModalControllerNtNtNtB8_4core7nodenet21NodeNetworkController8tokenize
FNDA:1,_RNvNtNtNtCs1xmhvdYWKG8_9neuralnet7helpers21multimodal_controller5testss_35tokenizes_text_with_modality_prefix
FNDA:1,_RNvNtNtNtCs1xmhvdYWKG8_9neuralnet7helpers21multimodal_controller5testss_36tokenizes_image_with_modality_prefix
FNDA:1,_RNvNtNtNtCs1xmhvdYWKG8_9neuralnet7helpers21multimodal_controller5testss_37evaluate_match_rejects_cross_modality
FNDA:2048,_RNCNvNtNtCs1xmhvdYWKG8_9neuralnet7helpers21multimodal_controller11mean_bucket0B7_
FNDA:1051,_RNCNvNtNtCs1xmhvdYWKG8_9neuralnet7helpers21multimodal_controller13tokenize_text0B7_
FNDA:1051,_RNCNvNtNtCs1xmhvdYWKG8_9neuralnet7helpers21multimodal_controller13tokenize_texts0_0B7_
FNDA:1051,_RNCNvNtNtCs1xmhvdYWKG8_9neuralnet7helpers21multimodal_controller13tokenize_texts_0B7_
FNDA:280,_RNCNvXs_NtNtCs1xmhvdYWKG8_9neuralnet7helpers21multimodal_controllerNtB6_20MultiModalControllerNtNtNtBa_4core7nodenet21NodeNetworkController8tokenize0Ba_
FNDA:280,_RNCNvXs_NtNtCs1xmhvdYWKG8_9neuralnet7helpers21multimodal_controllerNtB6_20MultiModalControllerNtNtNtBa_4core7nodenet21NodeNetworkController8tokenizes_0Ba_
FNF:19
FNH:18
DA:28,152
DA:29,152
DA:30,0
DA:31,152
DA:33,2048
DA:34,152
DA:35,152
DA:36,152
DA:38,152
DA:39,152
DA:40,0
DA:41,152
DA:43,152
DA:45,1896
DA:46,1896
DA:47,1896
DA:48,1896
DA:49,1896
DA:51,152
DA:52,152
DA:53,152
DA:55,366
DA:56,366
DA:57,366
DA:58,366
DA:59,1051
DA:60,1051
DA:61,1051
DA:62,366
DA:63,366
DA:65,19
DA:66,19
DA:67,0
DA:68,19
DA:70,19
DA:71,19
DA:72,19
DA:74,152
DA:75,152
DA:76,152
DA:77,152
DA:78,152
DA:79,152
DA:81,19
DA:82,19
DA:83,19
DA:84,19
DA:87,488
DA:88,488
DA:89,0
DA:90,488
DA:92,488
DA:93,488
DA:94,488
DA:96,488
DA:97,0
DA:98,488
DA:100,488
DA:101,488
DA:108,449
DA:110,449
DA:111,366
DA:112,19
DA:113,64
DA:114,64
DA:115,280
DA:116,280
DA:117,280
DA:118,280
DA:119,280
DA:120,280
DA:121,64
DA:124,449
DA:126,1440
DA:127,1440
DA:128,1440
DA:130,3491
DA:131,3491
DA:132,438
DA:133,3053
DA:135,3053
DA:136,3053
DA:138,3053
DA:139,1
DA:140,3052
DA:142,3052
DA:143,1796
DA:144,1256
DA:146,1256
DA:147,48
DA:148,48
DA:150,48
DA:151,48
DA:152,0
DA:154,0
DA:155,1208
DA:157,1208
DA:158,1208
DA:160,1208
DA:161,4
DA:163,1204
DA:165,3491
DA:167,0
DA:168,0
DA:169,0
DA:177,1
DA:178,1
DA:179,1
DA:181,1
DA:182,1
DA:185,1
DA:186,1
DA:187,1
DA:189,1
DA:190,17
DA:191,1
DA:194,1
DA:195,1
DA:196,1
DA:197,1
DA:198,1
BRF:0
BRH:0
LF:128
LH:118
end_of_record
SF:/Users/samcolak/Source Code/rust/neuron_server/library/neuralnet/src/helpers/multimodal_neuralnet.rs
FN:126,_RNCNvXNtNtCs1xmhvdYWKG8_9neuralnet7helpers20multimodal_neuralnetINtNtNtB8_4core9neuralnet13NeuralNetworkNtNtB6_21multimodal_controller20MultiModalControllerNtNtNtB8_9dendrites19multimodal_dendrite18MultimodalDendriteEINtNtB15_7nodenet11NodeNetworkB1E_E14insert_content0B8_
FN:28,_RNCNvXNtNtCs1xmhvdYWKG8_9neuralnet7helpers20multimodal_neuralnetINtNtNtB8_4core9neuralnet13NeuralNetworkNtNtB6_21multimodal_controller20MultiModalControllerNtNtNtB8_9dendrites19multimodal_dendrite18MultimodalDendriteEINtNtB15_7nodenet11NodeNetworkB1E_E22enumerate_path_content0B8_
FN:29,_RNCNvXNtNtCs1xmhvdYWKG8_9neuralnet7helpers20multimodal_neuralnetINtNtNtB8_4core9neuralnet13NeuralNetworkNtNtB6_21multimodal_controller20MultiModalControllerNtNtNtB8_9dendrites19multimodal_dendrite18MultimodalDendriteEINtNtB15_7nodenet11NodeNetworkB1E_E22enumerate_path_contents_0B8_
FN:201,_RNvMs_NtNtCs1xmhvdYWKG8_9neuralnet7helpers20multimodal_neuralnetINtNtNtB8_4core9neuralnet13NeuralNetworkNtNtB6_21multimodal_controller20MultiModalControllerNtNtNtB8_9dendrites19multimodal_dendrite18MultimodalDendriteE22insert_image_from_file
FN:161,_RNvMs_NtNtCs1xmhvdYWKG8_9neuralnet7helpers20multimodal_neuralnetINtNtNtB8_4core9neuralnet13NeuralNetworkNtNtB6_21multimodal_controller20MultiModalControllerNtNtNtB8_9dendrites19multimodal_dendrite18MultimodalDendriteE11insert_text
FN:141,_RNvMs_NtNtCs1xmhvdYWKG8_9neuralnet7helpers20multimodal_neuralnetINtNtNtB8_4core9neuralnet13NeuralNetworkNtNtB6_21multimodal_controller20MultiModalControllerNtNtNtB8_9dendrites19multimodal_dendrite18MultimodalDendriteE14new_multimodal
FN:145,_RNvMs_NtNtCs1xmhvdYWKG8_9neuralnet7helpers20multimodal_neuralnetINtNtNtB8_4core9neuralnet13NeuralNetworkNtNtB6_21multimodal_controller20MultiModalControllerNtNtNtB8_9dendrites19multimodal_dendrite18MultimodalDendriteE17insert_multimodal
FN:181,_RNvMs_NtNtCs1xmhvdYWKG8_9neuralnet7helpers20multimodal_neuralnetINtNtNtB8_4core9neuralnet13NeuralNetworkNtNtB6_21multimodal_controller20MultiModalControllerNtNtNtB8_9dendrites19multimodal_dendrite18MultimodalDendriteE18insert_image_bytes
FN:174,_RNvMs_NtNtCs1xmhvdYWKG8_9neuralnet7helpers20multimodal_neuralnetINtNtNtB8_4core9neuralnet13NeuralNetworkNtNtB6_21multimodal_controller20MultiModalControllerNtNtNtB8_9dendrites19multimodal_dendrite18MultimodalDendriteE19enumerate_text_path
FN:154,_RNvMs_NtNtCs1xmhvdYWKG8_9neuralnet7helpers20multimodal_neuralnetINtNtNtB8_4core9neuralnet13NeuralNetworkNtNtB6_21multimodal_controller20MultiModalControllerNtNtNtB8_9dendrites19multimodal_dendrite18MultimodalDendriteE25enumerate_multimodal_path
FN:194,_RNvMs_NtNtCs1xmhvdYWKG8_9neuralnet7helpers20multimodal_neuralnetINtNtNtB8_4core9neuralnet13NeuralNetworkNtNtB6_21multimodal_controller20MultiModalControllerNtNtNtB8_9dendrites19multimodal_dendrite18MultimodalDendriteE26enumerate_image_bytes_path
FN:99,_RNvXNtNtCs1xmhvdYWKG8_9neuralnet7helpers20multimodal_neuralnetINtNtNtB6_4core9neuralnet13NeuralNetworkNtNtB4_21multimodal_controller20MultiModalControllerNtNtNtB6_9dendrites19multimodal_dendrite18MultimodalDendriteEINtNtB13_7nodenet11NodeNetworkB1C_E14insert_contentB6_
FN:23,_RNvXNtNtCs1xmhvdYWKG8_9neuralnet7helpers20multimodal_neuralnetINtNtNtB6_4core9neuralnet13NeuralNetworkNtNtB4_21multimodal_controller20MultiModalControllerNtNtNtB6_9dendrites19multimodal_dendrite18MultimodalDendriteEINtNtB13_7nodenet11NodeNetworkB1C_E22enumerate_path_contentB6_
FN:239,_RNvNtNtNtCs1xmhvdYWKG8_9neuralnet7helpers20multimodal_neuralnet5testss_48multimodal_subnetwork_supports_future_modalities
FN:219,_RNvNtNtNtCs1xmhvdYWKG8_9neuralnet7helpers20multimodal_neuralnet5testss_52multimodal_subnetwork_accepts_text_and_image_content
FNDA:215,_RNCNvXNtNtCs1xmhvdYWKG8_9neuralnet7helpers20multimodal_neuralnetINtNtNtB8_4core9neuralnet13NeuralNetworkNtNtB6_21multimodal_controller20MultiModalControllerNtNtNtB8_9dendrites19multimodal_dendrite18MultimodalDendriteEINtNtB15_7nodenet11NodeNetworkB1E_E14insert_content0B8_
FNDA:105,_RNCNvXNtNtCs1xmhvdYWKG8_9neuralnet7helpers20multimodal_neuralnetINtNtNtB8_4core9neuralnet13NeuralNetworkNtNtB6_21multimodal_controller20MultiModalControllerNtNtNtB8_9dendrites19multimodal_dendrite18MultimodalDendriteEINtNtB15_7nodenet11NodeNetworkB1E_E22enumerate_path_content0B8_
FNDA:105,_RNCNvXNtNtCs1xmhvdYWKG8_9neuralnet7helpers20multimodal_neuralnetINtNtNtB8_4core9neuralnet13NeuralNetworkNtNtB6_21multimodal_controller20MultiModalControllerNtNtNtB8_9dendrites19multimodal_dendrite18MultimodalDendriteEINtNtB15_7nodenet11NodeNetworkB1E_E22enumerate_path_contents_0B8_
FNDA:0,_RNvMs_NtNtCs1xmhvdYWKG8_9neuralnet7helpers20multimodal_neuralnetINtNtNtB8_4core9neuralnet13NeuralNetworkNtNtB6_21multimodal_controller20MultiModalControllerNtNtNtB8_9dendrites19multimodal_dendrite18MultimodalDendriteE22insert_image_from_file
FNDA:1,_RNvMs_NtNtCs1xmhvdYWKG8_9neuralnet7helpers20multimodal_neuralnetINtNtNtB8_4core9neuralnet13NeuralNetworkNtNtB6_21multimodal_controller20MultiModalControllerNtNtNtB8_9dendrites19multimodal_dendrite18MultimodalDendriteE11insert_text
FNDA:80,_RNvMs_NtNtCs1xmhvdYWKG8_9neuralnet7helpers20multimodal_neuralnetINtNtNtB8_4core9neuralnet13NeuralNetworkNtNtB6_21multimodal_controller20MultiModalControllerNtNtNtB8_9dendrites19multimodal_dendrite18MultimodalDendriteE14new_multimodal
FNDA:3,_RNvMs_NtNtCs1xmhvdYWKG8_9neuralnet7helpers20multimodal_neuralnetINtNtNtB8_4core9neuralnet13NeuralNetworkNtNtB6_21multimodal_controller20MultiModalControllerNtNtNtB8_9dendrites19multimodal_dendrite18MultimodalDendriteE17insert_multimodal
FNDA:1,_RNvMs_NtNtCs1xmhvdYWKG8_9neuralnet7helpers20multimodal_neuralnetINtNtNtB8_4core9neuralnet13NeuralNetworkNtNtB6_21multimodal_controller20MultiModalControllerNtNtNtB8_9dendrites19multimodal_dendrite18MultimodalDendriteE18insert_image_bytes
FNDA:1,_RNvMs_NtNtCs1xmhvdYWKG8_9neuralnet7helpers20multimodal_neuralnetINtNtNtB8_4core9neuralnet13NeuralNetworkNtNtB6_21multimodal_controller20MultiModalControllerNtNtNtB8_9dendrites19multimodal_dendrite18MultimodalDendriteE19enumerate_text_path
FNDA:3,_RNvMs_NtNtCs1xmhvdYWKG8_9neuralnet7helpers20multimodal_neuralnetINtNtNtB8_4core9neuralnet13NeuralNetworkNtNtB6_21multimodal_controller20MultiModalControllerNtNtNtB8_9dendrites19multimodal_dendrite18MultimodalDendriteE25enumerate_multimodal_path
FNDA:1,_RNvMs_NtNtCs1xmhvdYWKG8_9neuralnet7helpers20multimodal_neuralnetINtNtNtB8_4core9neuralnet13NeuralNetworkNtNtB6_21multimodal_controller20MultiModalControllerNtNtNtB8_9dendrites19multimodal_dendrite18MultimodalDendriteE26enumerate_image_bytes_path
FNDA:70,_RNvXNtNtCs1xmhvdYWKG8_9neuralnet7helpers20multimodal_neuralnetINtNtNtB6_4core9neuralnet13NeuralNetworkNtNtB4_21multimodal_controller20MultiModalControllerNtNtNtB6_9dendrites19multimodal_dendrite18MultimodalDendriteEINtNtB13_7nodenet11NodeNetworkB1C_E14insert_contentB6_
FNDA:25,_RNvXNtNtCs1xmhvdYWKG8_9neuralnet7helpers20multimodal_neuralnetINtNtNtB6_4core9neuralnet13NeuralNetworkNtNtB4_21multimodal_controller20MultiModalControllerNtNtNtB6_9dendrites19multimodal_dendrite18MultimodalDendriteEINtNtB13_7nodenet11NodeNetworkB1C_E22enumerate_path_contentB6_
FNDA:1,_RNvNtNtNtCs1xmhvdYWKG8_9neuralnet7helpers20multimodal_neuralnet5testss_48multimodal_subnetwork_supports_future_modalities
FNDA:1,_RNvNtNtNtCs1xmhvdYWKG8_9neuralnet7helpers20multimodal_neuralnet5testss_52multimodal_subnetwork_accepts_text_and_image_content
FNF:15
FNH:14
DA:23,25
DA:25,25
DA:26,25
DA:27,25
DA:28,105
DA:29,105
DA:31,25
DA:32,0
DA:35,25
DA:36,25
DA:37,25
DA:38,25
DA:39,25
DA:40,25
DA:42,25
DA:43,8
DA:44,17
DA:46,17
DA:48,80
DA:50,80
DA:52,80
DA:53,2
DA:54,78
DA:56,78
DA:57,78
DA:58,78
DA:60,78
DA:62,78
DA:63,0
DA:66,78
DA:67,78
DA:68,78
DA:69,78
DA:70,78
DA:71,78
DA:76,78
DA:77,78
DA:78,0
DA:79,78
DA:83,15
DA:84,15
DA:86,15
DA:87,15
DA:88,0
DA:89,0
DA:90,0
DA:92,15
DA:93,0
DA:95,0
DA:97,25
DA:99,70
DA:100,70
DA:101,70
DA:102,70
DA:103,70
DA:104,70
DA:105,70
DA:107,70
DA:108,70
DA:109,0
DA:110,70
DA:112,70
DA:114,334
DA:116,334
DA:117,334
DA:118,0
DA:119,334
DA:121,334
DA:122,334
DA:123,334
DA:124,334
DA:125,334
DA:126,334
DA:128,334
DA:132,264
DA:133,264
DA:134,264
DA:136,70
DA:141,80
DA:142,80
DA:143,80
DA:145,3
DA:146,3
DA:147,3
DA:148,3
DA:149,3
DA:150,3
DA:151,3
DA:152,3
DA:154,3
DA:155,3
DA:156,3
DA:157,3
DA:158,3
DA:159,3
DA:161,1
DA:162,1
DA:163,1
DA:164,1
DA:165,1
DA:166,1
DA:167,1
DA:168,1
DA:169,1
DA:170,1
DA:172,1
DA:174,1
DA:175,1
DA:176,1
DA:177,1
DA:178,1
DA:179,1
DA:181,1
DA:182,1
DA:183,1
DA:184,1
DA:185,1
DA:186,1
DA:187,1
DA:188,1
DA:189,1
DA:190,1
DA:192,1
DA:194,1
DA:195,1
DA:196,1
DA:197,1
DA:198,1
DA:199,1
DA:201,0
DA:202,0
DA:203,0
DA:204,0
DA:205,0
DA:206,0
DA:207,0
DA:208,0
DA:209,0
DA:210,0
DA:219,1
DA:220,1
DA:221,1
DA:222,1
DA:224,1
DA:225,1
DA:226,1
DA:227,1
DA:228,1
DA:231,1
DA:232,1
DA:234,1
DA:235,1
DA:236,1
DA:239,1
DA:240,1
DA:242,1
DA:243,1
DA:244,1
DA:245,1
DA:247,1
DA:248,1
DA:249,1
DA:250,1
DA:252,1
DA:254,1
DA:255,1
BRF:0
BRH:0
LF:169
LH:149
end_of_record
SF:/Users/samcolak/Source Code/rust/neuron_server/library/neuralnet/src/helpers/pattern_classifier.rs
FN:39,_RNvMNtNtCs1xmhvdYWKG8_9neuralnet7helpers18pattern_classifierNtB2_17PatternClassifier14min_confidence
FN:87,_RNvMNtNtCs1xmhvdYWKG8_9neuralnet7helpers18pattern_classifierNtB2_17PatternClassifier17train_image_bytes
FN:55,_RNvMNtNtCs1xmhvdYWKG8_9neuralnet7helpers18pattern_classifierNtB2_17PatternClassifier5clear
FN:47,_RNvMNtNtCs1xmhvdYWKG8_9neuralnet7helpers18pattern_classifierNtB2_17PatternClassifier8is_empty
FN:272,_RNvNtNtNtCs1xmhvdYWKG8_9neuralnet7helpers18pattern_classifier5testss_42classifier_top_k_returns_ranked_candidates
FN:240,_RNvNtNtNtCs1xmhvdYWKG8_9neuralnet7helpers18pattern_classifier5testss_45classifier_supports_multimodal_feature_tokens
FN:229,_RNvNtNtNtCs1xmhvdYWKG8_9neuralnet7helpers18pattern_classifier5testss_50classifier_rejects_when_below_confidence_threshold
FN:211,_RNvNtNtNtCs1xmhvdYWKG8_9neuralnet7helpers18pattern_classifier5testss_52classifier_predicts_text_label_from_trained_examples
FN:83,_RNvMNtNtCs1xmhvdYWKG8_9neuralnet7helpers18pattern_classifierNtB2_17PatternClassifier10train_text
FN:51,_RNvMNtNtCs1xmhvdYWKG8_9neuralnet7helpers18pattern_classifierNtB2_17PatternClassifier13pattern_count
FN:59,_RNvMNtNtCs1xmhvdYWKG8_9neuralnet7helpers18pattern_classifierNtB2_17PatternClassifier13train_example
FN:127,_RNvMNtNtCs1xmhvdYWKG8_9neuralnet7helpers18pattern_classifierNtB2_17PatternClassifier14classify_top_k
FN:43,_RNvMNtNtCs1xmhvdYWKG8_9neuralnet7helpers18pattern_classifierNtB2_17PatternClassifier18set_min_confidence
FN:33,_RNvMNtNtCs1xmhvdYWKG8_9neuralnet7helpers18pattern_classifierNtB2_17PatternClassifier19with_min_confidence
FN:91,_RNvMNtNtCs1xmhvdYWKG8_9neuralnet7helpers18pattern_classifierNtB2_17PatternClassifier20train_feature_tokens
FN:26,_RNvMNtNtCs1xmhvdYWKG8_9neuralnet7helpers18pattern_classifierNtB2_17PatternClassifier3new
FN:101,_RNvMNtNtCs1xmhvdYWKG8_9neuralnet7helpers18pattern_classifierNtB2_17PatternClassifier8classify
FN:148,_RNvNtNtCs1xmhvdYWKG8_9neuralnet7helpers18pattern_classifier12score_inputs
FN:177,_RNvNtNtCs1xmhvdYWKG8_9neuralnet7helpers18pattern_classifier17directional_score
FN:70,_RNCNvMNtNtCs1xmhvdYWKG8_9neuralnet7helpers18pattern_classifierNtB4_17PatternClassifier13train_example0B8_
FN:136,_RNCNvMNtNtCs1xmhvdYWKG8_9neuralnet7helpers18pattern_classifierNtB4_17PatternClassifier14classify_top_k0B8_
FN:142,_RNCNvMNtNtCs1xmhvdYWKG8_9neuralnet7helpers18pattern_classifierNtB4_17PatternClassifier14classify_top_ks0_0B8_
FN:139,_RNCNvMNtNtCs1xmhvdYWKG8_9neuralnet7helpers18pattern_classifierNtB4_17PatternClassifier14classify_top_ks_0B8_
FN:155,_RNCNvNtNtCs1xmhvdYWKG8_9neuralnet7helpers18pattern_classifier12score_inputs0B7_
FN:162,_RNCNvNtNtCs1xmhvdYWKG8_9neuralnet7helpers18pattern_classifier12score_inputss0_0B7_
FN:163,_RNCNvNtNtCs1xmhvdYWKG8_9neuralnet7helpers18pattern_classifier12score_inputss1_0B7_
FN:156,_RNCNvNtNtCs1xmhvdYWKG8_9neuralnet7helpers18pattern_classifier12score_inputss_0B7_
FNDA:0,_RNvMNtNtCs1xmhvdYWKG8_9neuralnet7helpers18pattern_classifierNtB2_17PatternClassifier14min_confidence
FNDA:0,_RNvMNtNtCs1xmhvdYWKG8_9neuralnet7helpers18pattern_classifierNtB2_17PatternClassifier17train_image_bytes
FNDA:0,_RNvMNtNtCs1xmhvdYWKG8_9neuralnet7helpers18pattern_classifierNtB2_17PatternClassifier5clear
FNDA:0,_RNvMNtNtCs1xmhvdYWKG8_9neuralnet7helpers18pattern_classifierNtB2_17PatternClassifier8is_empty
FNDA:1,_RNvNtNtNtCs1xmhvdYWKG8_9neuralnet7helpers18pattern_classifier5testss_42classifier_top_k_returns_ranked_candidates
FNDA:1,_RNvNtNtNtCs1xmhvdYWKG8_9neuralnet7helpers18pattern_classifier5testss_45classifier_supports_multimodal_feature_tokens
FNDA:1,_RNvNtNtNtCs1xmhvdYWKG8_9neuralnet7helpers18pattern_classifier5testss_50classifier_rejects_when_below_confidence_threshold
FNDA:1,_RNvNtNtNtCs1xmhvdYWKG8_9neuralnet7helpers18pattern_classifier5testss_52classifier_predicts_text_label_from_trained_examples
FNDA:7,_RNvMNtNtCs1xmhvdYWKG8_9neuralnet7helpers18pattern_classifierNtB2_17PatternClassifier10train_text
FNDA:3,_RNvMNtNtCs1xmhvdYWKG8_9neuralnet7helpers18pattern_classifierNtB2_17PatternClassifier13pattern_count
FNDA:58,_RNvMNtNtCs1xmhvdYWKG8_9neuralnet7helpers18pattern_classifierNtB2_17PatternClassifier13train_example
FNDA:3,_RNvMNtNtCs1xmhvdYWKG8_9neuralnet7helpers18pattern_classifierNtB2_17PatternClassifier14classify_top_k
FNDA:3,_RNvMNtNtCs1xmhvdYWKG8_9neuralnet7helpers18pattern_classifierNtB2_17PatternClassifier18set_min_confidence
FNDA:1,_RNvMNtNtCs1xmhvdYWKG8_9neuralnet7helpers18pattern_classifierNtB2_17PatternClassifier19with_min_confidence
FNDA:2,_RNvMNtNtCs1xmhvdYWKG8_9neuralnet7helpers18pattern_classifierNtB2_17PatternClassifier20train_feature_tokens
FNDA:43,_RNvMNtNtCs1xmhvdYWKG8_9neuralnet7helpers18pattern_classifierNtB2_17PatternClassifier3new
FNDA:75,_RNvMNtNtCs1xmhvdYWKG8_9neuralnet7helpers18pattern_classifierNtB2_17PatternClassifier8classify
FNDA:148,_RNvNtNtCs1xmhvdYWKG8_9neuralnet7helpers18pattern_classifier12score_inputs
FNDA:296,_RNvNtNtCs1xmhvdYWKG8_9neuralnet7helpers18pattern_classifier17directional_score
FNDA:47,_RNCNvMNtNtCs1xmhvdYWKG8_9neuralnet7helpers18pattern_classifierNtB4_17PatternClassifier13train_example0B8_
FNDA:5,_RNCNvMNtNtCs1xmhvdYWKG8_9neuralnet7helpers18pattern_classifierNtB4_17PatternClassifier14classify_top_k0B8_
FNDA:1,_RNCNvMNtNtCs1xmhvdYWKG8_9neuralnet7helpers18pattern_classifierNtB4_17PatternClassifier14classify_top_ks0_0B8_
FNDA:5,_RNCNvMNtNtCs1xmhvdYWKG8_9neuralnet7helpers18pattern_classifierNtB4_17PatternClassifier14classify_top_ks_0B8_
FNDA:489,_RNCNvNtNtCs1xmhvdYWKG8_9neuralnet7helpers18pattern_classifier12score_inputs0B7_
FNDA:493,_RNCNvNtNtCs1xmhvdYWKG8_9neuralnet7helpers18pattern_classifier12score_inputss0_0B7_
FNDA:493,_RNCNvNtNtCs1xmhvdYWKG8_9neuralnet7helpers18pattern_classifier12score_inputss1_0B7_
FNDA:489,_RNCNvNtNtCs1xmhvdYWKG8_9neuralnet7helpers18pattern_classifier12score_inputss_0B7_
FNF:27
FNH:23
DA:26,43
DA:27,43
DA:28,43
DA:29,43
DA:30,43
DA:31,43
DA:33,1
DA:34,1
DA:35,1
DA:36,1
DA:37,1
DA:39,0
DA:40,0
DA:41,0
DA:43,3
DA:44,3
DA:45,3
DA:47,0
DA:48,0
DA:49,0
DA:51,3
DA:52,3
DA:53,3
DA:55,0
DA:56,0
DA:57,0
DA:59,58
DA:61,58
DA:63,58
DA:64,0
DA:65,58
DA:67,58
DA:68,58
DA:69,58
DA:70,58
DA:72,18
DA:73,18
DA:74,40
DA:76,40
DA:77,40
DA:78,40
DA:79,40
DA:81,58
DA:83,7
DA:84,7
DA:85,7
DA:87,0
DA:88,0
DA:89,0
DA:91,2
DA:92,2
DA:93,2
DA:94,2
DA:95,2
DA:96,2
DA:97,2
DA:99,2
DA:101,75
DA:103,75
DA:105,143
DA:106,143
DA:108,143
DA:109,69
DA:111,33
DA:112,110
DA:114,110
DA:115,110
DA:116,110
DA:117,110
DA:120,74
DA:121,74
DA:122,18
DA:125,75
DA:127,3
DA:128,3
DA:129,0
DA:130,3
DA:132,3
DA:133,3
DA:134,3
DA:135,3
DA:136,5
DA:137,5
DA:138,5
DA:139,5
DA:140,3
DA:142,3
DA:143,3
DA:144,3
DA:145,3
DA:148,148
DA:150,148
DA:152,148
DA:153,148
DA:154,148
DA:155,489
DA:156,489
DA:157,148
DA:159,148
DA:160,148
DA:161,148
DA:162,493
DA:163,493
DA:164,148
DA:166,148
DA:167,0
DA:168,148
DA:170,148
DA:171,148
DA:173,148
DA:175,148
DA:177,296
DA:178,296
DA:179,296
DA:180,296
DA:181,296
DA:183,296
DA:184,0
DA:185,296
DA:187,296
DA:189,982
DA:190,982
DA:192,3442
DA:193,3442
DA:194,3442
DA:195,442
DA:196,3000
DA:199,982
DA:202,296
DA:204,296
DA:211,1
DA:212,1
DA:213,1
DA:214,1
DA:216,1
DA:217,1
DA:219,1
DA:220,1
DA:221,1
DA:222,1
DA:223,1
DA:224,1
DA:225,1
DA:226,1
DA:229,1
DA:230,1
DA:231,1
DA:233,1
DA:234,1
DA:236,1
DA:237,1
DA:240,1
DA:241,1
DA:242,1
DA:243,1
DA:244,1
DA:245,1
DA:247,1
DA:248,1
DA:249,1
DA:250,1
DA:253,1
DA:254,1
DA:255,1
DA:256,1
DA:258,1
DA:259,1
DA:260,1
DA:261,1
DA:262,1
DA:263,1
DA:264,1
DA:265,1
DA:269,1
DA:272,1
DA:273,1
DA:274,1
DA:275,1
DA:276,1
DA:278,1
DA:279,1
DA:281,1
DA:282,1
DA:283,1
BRF:0
BRH:0
LF:191
LH:175
end_of_record
SF:/Users/samcolak/Source Code/rust/neuron_server/library/neuralnet/src/helpers/text_similarity.rs
FN:92,_RNCNvNtNtCs1xmhvdYWKG8_9neuralnet7helpers15text_similarity30normalize_for_fuzzy_comparison0B7_
FN:71,_RNCNvNtNtCs1xmhvdYWKG8_9neuralnet7helpers15text_similarity32character_bigram_dice_similarity0B7_
FN:44,_RNCNvNvNtNtCs1xmhvdYWKG8_9neuralnet7helpers15text_similarity32character_bigram_dice_similarity7bigrams0B9_
FN:108,_RNvNtNtCs1xmhvdYWKG8_9neuralnet7helpers15text_similarity18evaluate_fuzziness
FN:4,_RNvNtNtCs1xmhvdYWKG8_9neuralnet7helpers15text_similarity22normalized_levenshtein
FN:87,_RNvNtNtCs1xmhvdYWKG8_9neuralnet7helpers15text_similarity30normalize_for_fuzzy_comparison
FN:40,_RNvNtNtCs1xmhvdYWKG8_9neuralnet7helpers15text_similarity32character_bigram_dice_similarity
FN:42,_RNvNvNtNtCs1xmhvdYWKG8_9neuralnet7helpers15text_similarity32character_bigram_dice_similarity7bigrams
FNDA:13459,_RNCNvNtNtCs1xmhvdYWKG8_9neuralnet7helpers15text_similarity30normalize_for_fuzzy_comparison0B7_
FNDA:1680,_RNCNvNtNtCs1xmhvdYWKG8_9neuralnet7helpers15text_similarity32character_bigram_dice_similarity0B7_
FNDA:3360,_RNCNvNvNtNtCs1xmhvdYWKG8_9neuralnet7helpers15text_similarity32character_bigram_dice_similarity7bigrams0B9_
FNDA:1796,_RNvNtNtCs1xmhvdYWKG8_9neuralnet7helpers15text_similarity18evaluate_fuzziness
FNDA:740,_RNvNtNtCs1xmhvdYWKG8_9neuralnet7helpers15text_similarity22normalized_levenshtein
FNDA:4643,_RNvNtNtCs1xmhvdYWKG8_9neuralnet7helpers15text_similarity30normalize_for_fuzzy_comparison
FNDA:740,_RNvNtNtCs1xmhvdYWKG8_9neuralnet7helpers15text_similarity32character_bigram_dice_similarity
FNDA:1480,_RNvNvNtNtCs1xmhvdYWKG8_9neuralnet7helpers15text_similarity32character_bigram_dice_similarity7bigrams
FNF:8
FNH:8
DA:4,740
DA:6,740
DA:7,740
DA:9,740
DA:10,0
DA:11,740
DA:13,740
DA:14,0
DA:15,740
DA:17,740
DA:18,740
DA:20,2420
DA:21,2420
DA:23,7882
DA:24,7882
DA:26,7882
DA:27,7882
DA:28,7882
DA:31,2420
DA:34,740
DA:35,740
DA:36,740
DA:38,740
DA:40,740
DA:42,1480
DA:43,1480
DA:44,3360
DA:45,1480
DA:47,740
DA:48,740
DA:50,740
DA:51,0
DA:52,740
DA:54,740
DA:55,0
DA:56,740
DA:58,740
DA:59,740
DA:61,1680
DA:62,1680
DA:63,1680
DA:65,1680
DA:66,1680
DA:67,1680
DA:69,740
DA:70,740
DA:71,1680
DA:72,1680
DA:73,1680
DA:74,1680
DA:75,740
DA:77,740
DA:79,740
DA:80,0
DA:82,740
DA:85,740
DA:87,4643
DA:89,4643
DA:90,4643
DA:91,4643
DA:92,13459
DA:93,13459
DA:94,13458
DA:96,1
DA:98,13459
DA:99,4643
DA:101,4643
DA:102,4643
DA:103,4643
DA:104,4643
DA:106,4643
DA:108,1796
DA:110,1796
DA:111,1796
DA:112,1796
DA:113,1796
DA:115,1796
DA:116,0
DA:117,1796
DA:119,1796
DA:120,0
DA:121,0
DA:122,0
DA:123,0
DA:124,0
DA:126,0
DA:127,0
DA:128,0
DA:129,0
DA:131,0
DA:132,1796
DA:134,1796
DA:135,0
DA:136,0
DA:137,0
DA:138,0
DA:139,0
DA:141,0
DA:142,0
DA:143,0
DA:144,0
DA:146,0
DA:147,1796
DA:149,1796
DA:150,1796
DA:152,1796
DA:153,1056
DA:154,740
DA:156,740
DA:157,740
DA:158,740
DA:159,0
DA:161,740
DA:164,740
DA:165,740
DA:166,740
DA:168,740
DA:169,0
DA:170,0
DA:171,0
DA:172,0
DA:173,0
DA:174,0
DA:175,0
DA:176,740
DA:178,740
DA:180,1796
BRF:0
BRH:0
LF:130
LH:96
end_of_record
SF:/Users/samcolak/Source Code/rust/neuron_server/library/neuralnet/src/rag/bridge.rs
FN:29,_RNvMNtNtCs1xmhvdYWKG8_9neuralnet3rag6bridgeNtB2_14BrainRagBridge13classify_hint
FN:42,_RNvNtNtNtCs1xmhvdYWKG8_9neuralnet3rag6bridge5testss_42query_from_text_input_returns_trimmed_text
FN:49,_RNvNtNtNtCs1xmhvdYWKG8_9neuralnet3rag6bridge5testss_54query_from_feature_tokens_includes_modality_and_tokens
FN:9,_RNvMNtNtCs1xmhvdYWKG8_9neuralnet3rag6bridgeNtB2_14BrainRagBridge16query_from_input
FNDA:0,_RNvMNtNtCs1xmhvdYWKG8_9neuralnet3rag6bridgeNtB2_14BrainRagBridge13classify_hint
FNDA:1,_RNvNtNtNtCs1xmhvdYWKG8_9neuralnet3rag6bridge5testss_42query_from_text_input_returns_trimmed_text
FNDA:1,_RNvNtNtNtCs1xmhvdYWKG8_9neuralnet3rag6bridge5testss_54query_from_feature_tokens_includes_modality_and_tokens
FNDA:2,_RNvMNtNtCs1xmhvdYWKG8_9neuralnet3rag6bridgeNtB2_14BrainRagBridge16query_from_input
FNF:4
FNH:3
DA:9,2
DA:10,2
DA:11,1
DA:12,0
DA:13,0
DA:15,1
DA:16,1
DA:17,0
DA:19,1
DA:21,1
DA:22,1
DA:27,2
DA:29,0
DA:30,0
DA:31,0
DA:32,0
DA:33,0
DA:34,0
DA:42,1
DA:43,1
DA:44,1
DA:45,1
DA:46,1
DA:49,1
DA:50,1
DA:51,1
DA:52,1
DA:53,1
DA:54,1
DA:55,1
DA:56,1
BRF:0
BRH:0
LF:31
LH:22
end_of_record
SF:/Users/samcolak/Source Code/rust/neuron_server/library/neuralnet/src/rag/pipeline.rs
FN:70,_RNCNvMNtNtCs1xmhvdYWKG8_9neuralnet3rag8pipelineINtB4_11RagPipelineppE17answer_with_brain0B8_
FN:31,_RNvMNtNtCs1xmhvdYWKG8_9neuralnet3rag8pipelineINtB2_11RagPipelineppE11answer_textB6_
FN:50,_RNvMNtNtCs1xmhvdYWKG8_9neuralnet3rag8pipelineINtB2_11RagPipelineppE17answer_with_brainB6_
FN:23,_RNvMNtNtCs1xmhvdYWKG8_9neuralnet3rag8pipelineINtB2_11RagPipelineppE3newB6_
FNDA:0,_RNCNvMNtNtCs1xmhvdYWKG8_9neuralnet3rag8pipelineINtB4_11RagPipelineppE17answer_with_brain0B8_
FNDA:0,_RNvMNtNtCs1xmhvdYWKG8_9neuralnet3rag8pipelineINtB2_11RagPipelineppE11answer_textB6_
FNDA:0,_RNvMNtNtCs1xmhvdYWKG8_9neuralnet3rag8pipelineINtB2_11RagPipelineppE17answer_with_brainB6_
FNDA:0,_RNvMNtNtCs1xmhvdYWKG8_9neuralnet3rag8pipelineINtB2_11RagPipelineppE3newB6_
FNF:4
FNH:0
DA:23,0
DA:24,0
DA:25,0
DA:26,0
DA:27,0
DA:28,0
DA:29,0
DA:31,0
DA:33,0
DA:34,0
DA:35,0
DA:36,0
DA:37,0
DA:38,0
DA:39,0
DA:41,0
DA:42,0
DA:43,0
DA:44,0
DA:45,0
DA:46,0
DA:48,0
DA:50,0
DA:51,0
DA:52,0
DA:53,0
DA:54,0
DA:56,0
DA:57,0
DA:59,0
DA:60,0
DA:61,0
DA:62,0
DA:64,0
DA:65,0
DA:68,0
DA:69,0
DA:70,0
DA:71,0
DA:74,0
BRF:0
BRH:0
LF:41
LH:0
end_of_record
SF:/Users/samcolak/Source Code/rust/neuron_server/library/neuralnet/src/rag/rag_io.rs
FN:25,_RNvXNtNtCs1xmhvdYWKG8_9neuralnet3rag6rag_ioNtB2_10RagIoErrorNtNtCse2qo0L34Llq_4core3fmt7Display3fmt
FN:69,_RNvXs2_NtNtCs1xmhvdYWKG8_9neuralnet3rag6rag_ioNtB5_19RagFileImportConfigNtNtCse2qo0L34Llq_4core7default7Default7default
FN:140,_RNCNvNtNtCs1xmhvdYWKG8_9neuralnet3rag6rag_io10import_csv0B7_
FN:151,_RNCNvNtNtCs1xmhvdYWKG8_9neuralnet3rag6rag_io10import_csvs0_0B7_
FN:153,_RNCNvNtNtCs1xmhvdYWKG8_9neuralnet3rag6rag_io10import_csvs1_0B7_
FN:165,_RNCNvNtNtCs1xmhvdYWKG8_9neuralnet3rag6rag_io10import_csvs2_0B7_
FN:179,_RNCNvNtNtCs1xmhvdYWKG8_9neuralnet3rag6rag_io10import_csvs3_0B7_
FN:181,_RNCNvNtNtCs1xmhvdYWKG8_9neuralnet3rag6rag_io10import_csvs4_0B7_
FN:142,_RNCNvNtNtCs1xmhvdYWKG8_9neuralnet3rag6rag_io10import_csvs_0B7_
FN:238,_RNCNvNtNtCs1xmhvdYWKG8_9neuralnet3rag6rag_io11import_file0B7_
FN:243,_RNCNvNtNtCs1xmhvdYWKG8_9neuralnet3rag6rag_io11import_files_0B7_
FN:106,_RNCNvNtNtCs1xmhvdYWKG8_9neuralnet3rag6rag_io13should_import0B7_
FN:111,_RNCNvNtNtCs1xmhvdYWKG8_9neuralnet3rag6rag_io13should_imports_0B7_
FN:96,_RNCNvNtNtCs1xmhvdYWKG8_9neuralnet3rag6rag_io20normalize_extensions0B7_
FN:97,_RNCNvNtNtCs1xmhvdYWKG8_9neuralnet3rag6rag_io20normalize_extensionss_0B7_
FN:317,_RNCNvNtNtNtCs1xmhvdYWKG8_9neuralnet3rag6rag_io5tests16unique_temp_path0B9_
FN:377,_RNCNvNtNtNtCs1xmhvdYWKG8_9neuralnet3rag6rag_io5testss_37import_csv_builds_row_level_documents0B9_
FN:380,_RNCNvNtNtNtCs1xmhvdYWKG8_9neuralnet3rag6rag_io5testss_37import_csv_builds_row_level_documentss_0B9_
FN:345,_RNCNvNtNtNtCs1xmhvdYWKG8_9neuralnet3rag6rag_io5testss_37import_directory_filters_by_extension0B9_
FN:354,_RNCNvNtNtNtCs1xmhvdYWKG8_9neuralnet3rag6rag_io5testss_37import_directory_filters_by_extensions0_0B9_
FN:356,_RNCNvNtNtNtCs1xmhvdYWKG8_9neuralnet3rag6rag_io5testss_37import_directory_filters_by_extensions1_0B9_
FN:364,_RNCNvNtNtNtCs1xmhvdYWKG8_9neuralnet3rag6rag_io5testss_37import_directory_filters_by_extensions2_0B9_
FN:352,_RNCNvNtNtNtCs1xmhvdYWKG8_9neuralnet3rag6rag_io5testss_37import_directory_filters_by_extensions_0B9_
FN:398,_RNCNvNtNtNtCs1xmhvdYWKG8_9neuralnet3rag6rag_io5testss_38import_csv_supports_custom_text_column0B9_
FN:407,_RNCNvNtNtNtCs1xmhvdYWKG8_9neuralnet3rag6rag_io5testss_38import_csv_supports_custom_text_columns_0B9_
FN:326,_RNCNvNtNtNtCs1xmhvdYWKG8_9neuralnet3rag6rag_io5testss_41import_file_reads_utf8_text_into_document0B9_
FN:329,_RNCNvNtNtNtCs1xmhvdYWKG8_9neuralnet3rag6rag_io5testss_41import_file_reads_utf8_text_into_documents_0B9_
FN:314,_RNvNtNtNtCs1xmhvdYWKG8_9neuralnet3rag6rag_io5tests16unique_temp_path
FN:373,_RNvNtNtNtCs1xmhvdYWKG8_9neuralnet3rag6rag_io5testss_37import_csv_builds_row_level_documents
FN:342,_RNvNtNtNtCs1xmhvdYWKG8_9neuralnet3rag6rag_io5testss_37import_directory_filters_by_extension
FN:394,_RNvNtNtNtCs1xmhvdYWKG8_9neuralnet3rag6rag_io5testss_38import_csv_supports_custom_text_column
FN:323,_RNvNtNtNtCs1xmhvdYWKG8_9neuralnet3rag6rag_io5testss_41import_file_reads_utf8_text_into_document
FN:129,_RNvNtNtCs1xmhvdYWKG8_9neuralnet3rag6rag_io10import_csv
FN:232,_RNvNtNtCs1xmhvdYWKG8_9neuralnet3rag6rag_io11import_file
FN:101,_RNvNtNtCs1xmhvdYWKG8_9neuralnet3rag6rag_io13should_import
FN:254,_RNvNtNtCs1xmhvdYWKG8_9neuralnet3rag6rag_io16import_directory
FN:114,_RNvNtNtCs1xmhvdYWKG8_9neuralnet3rag6rag_io17build_document_id
FN:94,_RNvNtNtCs1xmhvdYWKG8_9neuralnet3rag6rag_io20normalize_extensions
FN:274,_RNvNtNtCs1xmhvdYWKG8_9neuralnet3rag6rag_io22import_directory_inner
FN:121,_RNvNtNtCs1xmhvdYWKG8_9neuralnet3rag6rag_io25build_document_id_for_row
FN:51,_RNvXs0_NtNtCs1xmhvdYWKG8_9neuralnet3rag6rag_ioNtB5_10RagIoErrorINtNtCse2qo0L34Llq_4core7convert4FromNtNtNtCs6meVLhSyLsw_3std2io5error5ErrorE4from
FN:57,_RNvXs1_NtNtCs1xmhvdYWKG8_9neuralnet3rag6rag_ioNtB5_10RagIoErrorINtNtCse2qo0L34Llq_4core7convert4FromNtNtCsl6d0MtJ2uez_3csv5error5ErrorE4from
FN:85,_RNvXs3_NtNtCs1xmhvdYWKG8_9neuralnet3rag6rag_ioNtB5_18RagCsvImportConfigNtNtCse2qo0L34Llq_4core7default7Default7default
FNDA:0,_RNvXNtNtCs1xmhvdYWKG8_9neuralnet3rag6rag_ioNtB2_10RagIoErrorNtNtCse2qo0L34Llq_4core3fmt7Display3fmt
FNDA:0,_RNvXs2_NtNtCs1xmhvdYWKG8_9neuralnet3rag6rag_ioNtB5_19RagFileImportConfigNtNtCse2qo0L34Llq_4core7default7Default7default
FNDA:5,_RNCNvNtNtCs1xmhvdYWKG8_9neuralnet3rag6rag_io10import_csv0B7_
FNDA:0,_RNCNvNtNtCs1xmhvdYWKG8_9neuralnet3rag6rag_io10import_csvs0_0B7_
FNDA:0,_RNCNvNtNtCs1xmhvdYWKG8_9neuralnet3rag6rag_io10import_csvs1_0B7_
FNDA:3,_RNCNvNtNtCs1xmhvdYWKG8_9neuralnet3rag6rag_io10import_csvs2_0B7_
FNDA:1,_RNCNvNtNtCs1xmhvdYWKG8_9neuralnet3rag6rag_io10import_csvs3_0B7_
FNDA:0,_RNCNvNtNtCs1xmhvdYWKG8_9neuralnet3rag6rag_io10import_csvs4_0B7_
FNDA:0,_RNCNvNtNtCs1xmhvdYWKG8_9neuralnet3rag6rag_io10import_csvs_0B7_
FNDA:0,_RNCNvNtNtCs1xmhvdYWKG8_9neuralnet3rag6rag_io11import_file0B7_
FNDA:2,_RNCNvNtNtCs1xmhvdYWKG8_9neuralnet3rag6rag_io11import_files_0B7_
FNDA:3,_RNCNvNtNtCs1xmhvdYWKG8_9neuralnet3rag6rag_io13should_import0B7_
FNDA:3,_RNCNvNtNtCs1xmhvdYWKG8_9neuralnet3rag6rag_io13should_imports_0B7_
FNDA:1,_RNCNvNtNtCs1xmhvdYWKG8_9neuralnet3rag6rag_io20normalize_extensions0B7_
FNDA:1,_RNCNvNtNtCs1xmhvdYWKG8_9neuralnet3rag6rag_io20normalize_extensionss_0B7_
FNDA:4,_RNCNvNtNtNtCs1xmhvdYWKG8_9neuralnet3rag6rag_io5tests16unique_temp_path0B9_
FNDA:0,_RNCNvNtNtNtCs1xmhvdYWKG8_9neuralnet3rag6rag_io5testss_37import_csv_builds_row_level_documents0B9_
FNDA:0,_RNCNvNtNtNtCs1xmhvdYWKG8_9neuralnet3rag6rag_io5testss_37import_csv_builds_row_level_documentss_0B9_
FNDA:0,_RNCNvNtNtNtCs1xmhvdYWKG8_9neuralnet3rag6rag_io5testss_37import_directory_filters_by_extension0B9_
FNDA:0,_RNCNvNtNtNtCs1xmhvdYWKG8_9neuralnet3rag6rag_io5testss_37import_directory_filters_by_extensions0_0B9_
FNDA:0,_RNCNvNtNtNtCs1xmhvdYWKG8_9neuralnet3rag6rag_io5testss_37import_directory_filters_by_extensions1_0B9_
FNDA:0,_RNCNvNtNtNtCs1xmhvdYWKG8_9neuralnet3rag6rag_io5testss_37import_directory_filters_by_extensions2_0B9_
FNDA:0,_RNCNvNtNtNtCs1xmhvdYWKG8_9neuralnet3rag6rag_io5testss_37import_directory_filters_by_extensions_0B9_
FNDA:0,_RNCNvNtNtNtCs1xmhvdYWKG8_9neuralnet3rag6rag_io5testss_38import_csv_supports_custom_text_column0B9_
FNDA:0,_RNCNvNtNtNtCs1xmhvdYWKG8_9neuralnet3rag6rag_io5testss_38import_csv_supports_custom_text_columns_0B9_
FNDA:0,_RNCNvNtNtNtCs1xmhvdYWKG8_9neuralnet3rag6rag_io5testss_41import_file_reads_utf8_text_into_document0B9_
FNDA:0,_RNCNvNtNtNtCs1xmhvdYWKG8_9neuralnet3rag6rag_io5testss_41import_file_reads_utf8_text_into_documents_0B9_
FNDA:4,_RNvNtNtNtCs1xmhvdYWKG8_9neuralnet3rag6rag_io5tests16unique_temp_path
FNDA:1,_RNvNtNtNtCs1xmhvdYWKG8_9neuralnet3rag6rag_io5testss_37import_csv_builds_row_level_documents
FNDA:1,_RNvNtNtNtCs1xmhvdYWKG8_9neuralnet3rag6rag_io5testss_37import_directory_filters_by_extension
FNDA:1,_RNvNtNtNtCs1xmhvdYWKG8_9neuralnet3rag6rag_io5testss_38import_csv_supports_custom_text_column
FNDA:1,_RNvNtNtNtCs1xmhvdYWKG8_9neuralnet3rag6rag_io5testss_41import_file_reads_utf8_text_into_document
FNDA:2,_RNvNtNtCs1xmhvdYWKG8_9neuralnet3rag6rag_io10import_csv
FNDA:2,_RNvNtNtCs1xmhvdYWKG8_9neuralnet3rag6rag_io11import_file
FNDA:3,_RNvNtNtCs1xmhvdYWKG8_9neuralnet3rag6rag_io13should_import
FNDA:1,_RNvNtNtCs1xmhvdYWKG8_9neuralnet3rag6rag_io16import_directory
FNDA:2,_RNvNtNtCs1xmhvdYWKG8_9neuralnet3rag6rag_io17build_document_id
FNDA:1,_RNvNtNtCs1xmhvdYWKG8_9neuralnet3rag6rag_io20normalize_extensions
FNDA:1,_RNvNtNtCs1xmhvdYWKG8_9neuralnet3rag6rag_io22import_directory_inner
FNDA:3,_RNvNtNtCs1xmhvdYWKG8_9neuralnet3rag6rag_io25build_document_id_for_row
FNDA:0,_RNvXs0_NtNtCs1xmhvdYWKG8_9neuralnet3rag6rag_ioNtB5_10RagIoErrorINtNtCse2qo0L34Llq_4core7convert4FromNtNtNtCs6meVLhSyLsw_3std2io5error5ErrorE4from
FNDA:0,_RNvXs1_NtNtCs1xmhvdYWKG8_9neuralnet3rag6rag_ioNtB5_10RagIoErrorINtNtCse2qo0L34Llq_4core7convert4FromNtNtCsl6d0MtJ2uez_3csv5error5ErrorE4from
FNDA:1,_RNvXs3_NtNtCs1xmhvdYWKG8_9neuralnet3rag6rag_ioNtB5_18RagCsvImportConfigNtNtCse2qo0L34Llq_4core7default7Default7default
FNF:43
FNH:23
DA:25,0
DA:26,0
DA:27,0
DA:28,0
DA:29,0
DA:30,0
DA:32,0
DA:33,0
DA:35,0
DA:36,0
DA:37,0
DA:40,0
DA:44,0
DA:51,0
DA:52,0
DA:53,0
DA:57,0
DA:58,0
DA:59,0
DA:69,0
DA:70,0
DA:71,0
DA:72,0
DA:73,0
DA:74,0
DA:85,1
DA:86,1
DA:87,1
DA:88,1
DA:89,1
DA:90,1
DA:91,1
DA:94,1
DA:95,1
DA:96,1
DA:97,1
DA:98,1
DA:99,1
DA:101,3
DA:102,3
DA:103,0
DA:104,3
DA:106,3
DA:107,0
DA:110,3
DA:111,3
DA:112,3
DA:114,2
DA:115,2
DA:116,2
DA:117,2
DA:118,2
DA:119,2
DA:121,3
DA:122,3
DA:123,3
DA:124,3
DA:125,3
DA:126,3
DA:127,3
DA:129,2
DA:130,2
DA:131,0
DA:132,2
DA:134,2
DA:135,2
DA:137,2
DA:138,2
DA:139,2
DA:140,5
DA:141,2
DA:142,0
DA:143,0
DA:144,0
DA:146,2
DA:147,0
DA:149,0
DA:150,0
DA:151,0
DA:152,0
DA:153,0
DA:154,0
DA:155,0
DA:158,2
DA:161,2
DA:162,1
DA:163,1
DA:164,1
DA:165,3
DA:166,3
DA:167,1
DA:169,2
DA:171,3
DA:172,1
DA:174,1
DA:175,1
DA:176,1
DA:177,1
DA:178,1
DA:179,1
DA:180,1
DA:181,0
DA:182,0
DA:183,0
DA:184,1
DA:186,1
DA:189,2
DA:190,3
DA:191,3
DA:192,3
DA:193,3
DA:194,3
DA:195,3
DA:196,3
DA:198,3
DA:199,0
DA:200,3
DA:202,3
DA:203,3
DA:204,3
DA:206,5
DA:207,5
DA:208,5
DA:209,5
DA:210,5
DA:211,5
DA:212,0
DA:215,3
DA:216,0
DA:217,0
DA:218,0
DA:220,0
DA:223,3
DA:226,3
DA:229,2
DA:230,2
DA:232,2
DA:233,2
DA:234,0
DA:235,2
DA:237,2
DA:238,2
DA:240,2
DA:241,2
DA:243,2
DA:244,2
DA:245,2
DA:247,2
DA:248,2
DA:249,2
DA:250,2
DA:251,2
DA:252,2
DA:254,1
DA:256,1
DA:257,0
DA:258,1
DA:260,1
DA:261,1
DA:263,1
DA:264,1
DA:265,1
DA:266,1
DA:267,1
DA:268,0
DA:270,1
DA:272,1
DA:274,1
DA:275,1
DA:276,1
DA:277,1
DA:278,1
DA:279,1
DA:281,3
DA:282,3
DA:283,3
DA:285,3
DA:286,0
DA:287,0
DA:288,0
DA:289,0
DA:290,0
DA:291,0
DA:292,0
DA:293,0
DA:294,0
DA:295,3
DA:297,3
DA:298,2
DA:299,1
DA:301,1
DA:302,1
DA:305,1
DA:307,1
DA:314,4
DA:315,4
DA:316,4
DA:317,4
DA:318,4
DA:319,4
DA:320,4
DA:323,1
DA:324,1
DA:325,1
DA:326,1
DA:328,1
DA:329,1
DA:331,1
DA:332,1
DA:333,1
DA:334,1
DA:335,1
DA:338,1
DA:339,1
DA:342,1
DA:343,1
DA:344,1
DA:345,1
DA:347,1
DA:348,1
DA:349,1
DA:351,1
DA:352,1
DA:353,1
DA:354,1
DA:355,1
DA:356,1
DA:358,1
DA:359,1
DA:360,1
DA:361,1
DA:363,1
DA:364,1
DA:366,1
DA:367,1
DA:369,1
DA:370,1
DA:373,1
DA:374,1
DA:375,1
DA:376,1
DA:377,1
DA:379,1
DA:380,1
DA:382,1
DA:383,1
DA:384,1
DA:385,1
DA:386,1
DA:390,1
DA:391,1
DA:394,1
DA:395,1
DA:396,1
DA:397,1
DA:398,1
DA:400,1
DA:401,1
DA:402,1
DA:403,1
DA:404,1
DA:406,1
DA:407,1
DA:409,1
DA:410,1
DA:411,1
DA:412,1
DA:416,1
DA:417,1
BRF:0
BRH:0
LF:294
LH:218
end_of_record
SF:/Users/samcolak/Source Code/rust/neuron_server/library/neuralnet/src/tensor/adapters.rs
FN:409,_RNvNtNtCs1xmhvdYWKG8_9neuralnet6tensor8adapters39multimodal_input_to_tensor_nchw_resized
FN:35,_RNvXNtNtCs1xmhvdYWKG8_9neuralnet6tensor8adaptersNtB2_18TensorAdapterErrorNtNtCse2qo0L34Llq_4core3fmt7Display3fmt
FN:554,_RNvNtNtNtCs1xmhvdYWKG8_9neuralnet6tensor8adapters5testss_39image_adapter_rejects_wrong_pixel_count
FN:519,_RNvNtNtNtCs1xmhvdYWKG8_9neuralnet6tensor8adapters5testss_39image_adapter_resizes_rgb_batch_to_nchw
FN:579,_RNvNtNtNtCs1xmhvdYWKG8_9neuralnet6tensor8adapters5testss_42multimodal_adapter_rejects_non_image_input
FN:587,_RNvNtNtNtCs1xmhvdYWKG8_9neuralnet6tensor8adapters5testss_42resized_adapter_builds_target_shape_tensor
FN:493,_RNvNtNtNtCs1xmhvdYWKG8_9neuralnet6tensor8adapters5testss_45image_adapter_resizes_rgb_interleaved_to_nchw
FN:568,_RNvNtNtNtCs1xmhvdYWKG8_9neuralnet6tensor8adapters5testss_46batch_adapter_stacks_images_in_batch_dimension
FN:478,_RNvNtNtNtCs1xmhvdYWKG8_9neuralnet6tensor8adapters5testss_46image_adapter_supports_rgb_interleaved_to_nchw
FN:461,_RNvNtNtNtCs1xmhvdYWKG8_9neuralnet6tensor8adapters5testss_51image_adapter_builds_nchw_tensor_with_normalization
FN:208,_RNCNvNtNtCs1xmhvdYWKG8_9neuralnet6tensor8adapters26image_batch_to_tensor_nchw0B7_
FN:213,_RNCNvNtNtCs1xmhvdYWKG8_9neuralnet6tensor8adapters26image_batch_to_tensor_nchws_0B7_
FN:171,_RNCNvNtNtCs1xmhvdYWKG8_9neuralnet6tensor8adapters40image_bytes_to_tensor_nchw_with_channels0B7_
FN:401,_RNCNvNtNtCs1xmhvdYWKG8_9neuralnet6tensor8adapters48image_batch_to_tensor_nchw_resized_with_channels0B7_
FN:180,_RNvNtNtCs1xmhvdYWKG8_9neuralnet6tensor8adapters26image_batch_to_tensor_nchw
FN:126,_RNvNtNtCs1xmhvdYWKG8_9neuralnet6tensor8adapters26image_bytes_to_tensor_nchw
FN:431,_RNvNtNtCs1xmhvdYWKG8_9neuralnet6tensor8adapters26resize_interleaved_nearest
FN:108,_RNvNtNtCs1xmhvdYWKG8_9neuralnet6tensor8adapters30append_interleaved_as_nchw_f32
FN:222,_RNvNtNtCs1xmhvdYWKG8_9neuralnet6tensor8adapters31multimodal_input_to_tensor_nchw
FN:238,_RNvNtNtCs1xmhvdYWKG8_9neuralnet6tensor8adapters34image_bytes_to_tensor_nchw_resized
FN:137,_RNvNtNtCs1xmhvdYWKG8_9neuralnet6tensor8adapters40image_bytes_to_tensor_nchw_with_channels
FN:323,_RNvNtNtCs1xmhvdYWKG8_9neuralnet6tensor8adapters48image_batch_to_tensor_nchw_resized_with_channels
FN:259,_RNvNtNtCs1xmhvdYWKG8_9neuralnet6tensor8adapters48image_bytes_to_tensor_nchw_resized_with_channels
FN:100,_RNvNtNtCs1xmhvdYWKG8_9neuralnet6tensor8adapters9normalize
FN:79,_RNvXs0_NtNtCs1xmhvdYWKG8_9neuralnet6tensor8adaptersNtB5_18TensorAdapterErrorINtNtCse2qo0L34Llq_4core7convert4FromNtNtB7_11image_utils23ImageTensorUtilityErrorE4from
FN:542,_RNCNvNtNtNtCs1xmhvdYWKG8_9neuralnet6tensor8adapters5testss_39image_adapter_resizes_rgb_batch_to_nchw0B9_
FN:597,_RNCNvNtNtNtCs1xmhvdYWKG8_9neuralnet6tensor8adapters5testss_42resized_adapter_builds_target_shape_tensor0B9_
FN:510,_RNCNvNtNtNtCs1xmhvdYWKG8_9neuralnet6tensor8adapters5testss_45image_adapter_resizes_rgb_interleaved_to_nchw0B9_
FN:571,_RNCNvNtNtNtCs1xmhvdYWKG8_9neuralnet6tensor8adapters5testss_46batch_adapter_stacks_images_in_batch_dimension0B9_
FN:481,_RNCNvNtNtNtCs1xmhvdYWKG8_9neuralnet6tensor8adapters5testss_46image_adapter_supports_rgb_interleaved_to_nchw0B9_
FN:464,_RNCNvNtNtNtCs1xmhvdYWKG8_9neuralnet6tensor8adapters5testss_51image_adapter_builds_nchw_tensor_with_normalization0B9_
FN:471,_RNCNvNtNtNtCs1xmhvdYWKG8_9neuralnet6tensor8adapters5testss_51image_adapter_builds_nchw_tensor_with_normalizations_0B9_
FNDA:0,_RNvNtNtCs1xmhvdYWKG8_9neuralnet6tensor8adapters39multimodal_input_to_tensor_nchw_resized
FNDA:0,_RNvXNtNtCs1xmhvdYWKG8_9neuralnet6tensor8adaptersNtB2_18TensorAdapterErrorNtNtCse2qo0L34Llq_4core3fmt7Display3fmt
FNDA:1,_RNvNtNtNtCs1xmhvdYWKG8_9neuralnet6tensor8adapters5testss_39image_adapter_rejects_wrong_pixel_count
FNDA:1,_RNvNtNtNtCs1xmhvdYWKG8_9neuralnet6tensor8adapters5testss_39image_adapter_resizes_rgb_batch_to_nchw
FNDA:1,_RNvNtNtNtCs1xmhvdYWKG8_9neuralnet6tensor8adapters5testss_42multimodal_adapter_rejects_non_image_input
FNDA:1,_RNvNtNtNtCs1xmhvdYWKG8_9neuralnet6tensor8adapters5testss_42resized_adapter_builds_target_shape_tensor
FNDA:1,_RNvNtNtNtCs1xmhvdYWKG8_9neuralnet6tensor8adapters5testss_45image_adapter_resizes_rgb_interleaved_to_nchw
FNDA:1,_RNvNtNtNtCs1xmhvdYWKG8_9neuralnet6tensor8adapters5testss_46batch_adapter_stacks_images_in_batch_dimension
FNDA:1,_RNvNtNtNtCs1xmhvdYWKG8_9neuralnet6tensor8adapters5testss_46image_adapter_supports_rgb_interleaved_to_nchw
FNDA:1,_RNvNtNtNtCs1xmhvdYWKG8_9neuralnet6tensor8adapters5testss_51image_adapter_builds_nchw_tensor_with_normalization
FNDA:8,_RNCNvNtNtCs1xmhvdYWKG8_9neuralnet6tensor8adapters26image_batch_to_tensor_nchw0B7_
FNDA:0,_RNCNvNtNtCs1xmhvdYWKG8_9neuralnet6tensor8adapters26image_batch_to_tensor_nchws_0B7_
FNDA:0,_RNCNvNtNtCs1xmhvdYWKG8_9neuralnet6tensor8adapters40image_bytes_to_tensor_nchw_with_channels0B7_
FNDA:0,_RNCNvNtNtCs1xmhvdYWKG8_9neuralnet6tensor8adapters48image_batch_to_tensor_nchw_resized_with_channels0B7_
FNDA:1,_RNvNtNtCs1xmhvdYWKG8_9neuralnet6tensor8adapters26image_batch_to_tensor_nchw
FNDA:2,_RNvNtNtCs1xmhvdYWKG8_9neuralnet6tensor8adapters26image_bytes_to_tensor_nchw
FNDA:86,_RNvNtNtCs1xmhvdYWKG8_9neuralnet6tensor8adapters26resize_interleaved_nearest
FNDA:1049,_RNvNtNtCs1xmhvdYWKG8_9neuralnet6tensor8adapters30append_interleaved_as_nchw_f32
FNDA:1,_RNvNtNtCs1xmhvdYWKG8_9neuralnet6tensor8adapters31multimodal_input_to_tensor_nchw
FNDA:1,_RNvNtNtCs1xmhvdYWKG8_9neuralnet6tensor8adapters34image_bytes_to_tensor_nchw_resized
FNDA:907,_RNvNtNtCs1xmhvdYWKG8_9neuralnet6tensor8adapters40image_bytes_to_tensor_nchw_with_channels
FNDA:70,_RNvNtNtCs1xmhvdYWKG8_9neuralnet6tensor8adapters48image_batch_to_tensor_nchw_resized_with_channels
FNDA:904,_RNvNtNtCs1xmhvdYWKG8_9neuralnet6tensor8adapters48image_bytes_to_tensor_nchw_resized_with_channels
FNDA:309547,_RNvNtNtCs1xmhvdYWKG8_9neuralnet6tensor8adapters9normalize
FNDA:0,_RNvXs0_NtNtCs1xmhvdYWKG8_9neuralnet6tensor8adaptersNtB5_18TensorAdapterErrorINtNtCse2qo0L34Llq_4core7convert4FromNtNtB7_11image_utils23ImageTensorUtilityErrorE4from
FNDA:0,_RNCNvNtNtNtCs1xmhvdYWKG8_9neuralnet6tensor8adapters5testss_39image_adapter_resizes_rgb_batch_to_nchw0B9_
FNDA:0,_RNCNvNtNtNtCs1xmhvdYWKG8_9neuralnet6tensor8adapters5testss_42resized_adapter_builds_target_shape_tensor0B9_
FNDA:0,_RNCNvNtNtNtCs1xmhvdYWKG8_9neuralnet6tensor8adapters5testss_45image_adapter_resizes_rgb_interleaved_to_nchw0B9_
FNDA:0,_RNCNvNtNtNtCs1xmhvdYWKG8_9neuralnet6tensor8adapters5testss_46batch_adapter_stacks_images_in_batch_dimension0B9_
FNDA:0,_RNCNvNtNtNtCs1xmhvdYWKG8_9neuralnet6tensor8adapters5testss_46image_adapter_supports_rgb_interleaved_to_nchw0B9_
FNDA:0,_RNCNvNtNtNtCs1xmhvdYWKG8_9neuralnet6tensor8adapters5testss_51image_adapter_builds_nchw_tensor_with_normalization0B9_
FNDA:0,_RNCNvNtNtNtCs1xmhvdYWKG8_9neuralnet6tensor8adapters5testss_51image_adapter_builds_nchw_tensor_with_normalizations_0B9_
FNF:32
FNH:19
DA:35,0
DA:37,0
DA:38,0
DA:39,0
DA:40,0
DA:45,0
DA:46,0
DA:47,0
DA:52,0
DA:54,0
DA:55,0
DA:56,0
DA:58,0
DA:59,0
DA:65,0
DA:67,0
DA:68,0
DA:72,0
DA:79,0
DA:80,0
DA:81,0
DA:82,0
DA:84,0
DA:85,0
DA:88,0
DA:89,0
DA:90,0
DA:91,0
DA:92,0
DA:93,0
DA:94,0
DA:95,0
DA:97,0
DA:100,309547
DA:101,309547
DA:102,309524
DA:104,23
DA:106,309547
DA:108,1049
DA:109,1049
DA:110,1049
DA:111,1049
DA:112,1049
DA:113,1049
DA:114,1049
DA:115,1049
DA:116,1223
DA:117,19362
DA:118,309539
DA:119,309539
DA:120,309539
DA:121,309539
DA:124,1049
DA:126,2
DA:127,2
DA:128,2
DA:129,2
DA:130,2
DA:131,2
DA:133,2
DA:135,2
DA:137,907
DA:138,907
DA:139,907
DA:140,907
DA:141,907
DA:142,907
DA:143,907
DA:145,907
DA:147,907
DA:148,0
DA:149,907
DA:151,907
DA:153,907
DA:154,1
DA:155,1
DA:156,1
DA:157,1
DA:158,906
DA:160,906
DA:161,906
DA:162,906
DA:163,906
DA:164,906
DA:165,906
DA:166,906
DA:167,906
DA:171,906
DA:172,0
DA:173,0
DA:174,0
DA:175,0
DA:176,0
DA:178,907
DA:180,1
DA:181,1
DA:182,1
DA:183,1
DA:184,1
DA:185,1
DA:187,1
DA:189,1
DA:190,0
DA:191,1
DA:193,1
DA:194,1
DA:196,2
DA:197,2
DA:198,0
DA:199,0
DA:200,0
DA:201,0
DA:202,0
DA:203,2
DA:205,2
DA:206,2
DA:207,2
DA:208,8
DA:213,1
DA:214,0
DA:215,0
DA:216,0
DA:217,0
DA:218,0
DA:220,1
DA:222,1
DA:223,1
DA:224,1
DA:225,1
DA:226,1
DA:227,1
DA:229,1
DA:230,0
DA:231,0
DA:233,1
DA:236,1
DA:238,1
DA:239,1
DA:240,1
DA:241,1
DA:242,1
DA:243,1
DA:244,1
DA:245,1
DA:247,1
DA:248,1
DA:249,1
DA:250,1
DA:252,1
DA:253,1
DA:254,1
DA:257,1
DA:259,904
DA:260,904
DA:261,904
DA:262,904
DA:263,904
DA:264,904
DA:265,904
DA:266,904
DA:267,904
DA:269,904
DA:270,0
DA:271,904
DA:273,904
DA:274,820
DA:275,820
DA:276,820
DA:277,820
DA:278,820
DA:279,820
DA:281,820
DA:283,820
DA:284,820
DA:285,820
DA:286,820
DA:288,820
DA:290,84
DA:292,84
DA:293,84
DA:295,84
DA:296,84
DA:297,0
DA:298,0
DA:299,0
DA:300,0
DA:301,84
DA:303,84
DA:304,84
DA:305,84
DA:306,84
DA:307,84
DA:308,84
DA:309,84
DA:312,84
DA:313,84
DA:314,84
DA:315,84
DA:316,84
DA:317,84
DA:320,904
DA:323,70
DA:324,70
DA:325,70
DA:326,70
DA:327,70
DA:328,70
DA:329,70
DA:330,70
DA:331,70
DA:332,70
DA:333,0
DA:334,70
DA:336,70
DA:337,0
DA:338,70
DA:340,70
DA:341,70
DA:343,70
DA:344,70
DA:345,70
DA:346,70
DA:347,70
DA:348,70
DA:350,70
DA:352,143
DA:353,143
DA:354,0
DA:355,0
DA:356,0
DA:357,0
DA:358,0
DA:359,143
DA:361,143
DA:362,141
DA:363,141
DA:364,141
DA:365,141
DA:366,141
DA:367,141
DA:369,141
DA:371,141
DA:372,141
DA:373,141
DA:374,141
DA:376,141
DA:377,141
DA:379,141
DA:380,2
DA:382,2
DA:383,2
DA:384,2
DA:385,2
DA:386,2
DA:387,2
DA:388,2
DA:391,2
DA:392,2
DA:393,2
DA:394,2
DA:395,2
DA:396,2
DA:397,2
DA:401,70
DA:402,0
DA:403,0
DA:404,0
DA:405,0
DA:406,0
DA:407,70
DA:409,0
DA:410,0
DA:411,0
DA:412,0
DA:413,0
DA:414,0
DA:415,0
DA:416,0
DA:418,0
DA:419,0
DA:420,0
DA:421,0
DA:422,0
DA:423,0
DA:424,0
DA:425,0
DA:427,0
DA:429,0
DA:431,86
DA:432,86
DA:433,86
DA:434,86
DA:435,86
DA:436,86
DA:437,86
DA:438,86
DA:439,86
DA:441,1331
DA:442,1331
DA:443,21251
DA:444,21251
DA:445,21251
DA:446,21251
DA:447,21251
DA:448,21251
DA:449,21251
DA:450,21251
DA:453,86
DA:454,86
DA:461,1
DA:462,1
DA:463,1
DA:464,1
DA:466,1
DA:467,1
DA:469,1
DA:470,1
DA:471,1
DA:472,1
DA:474,1
DA:475,1
DA:478,1
DA:479,1
DA:480,1
DA:481,1
DA:483,1
DA:484,1
DA:485,1
DA:486,1
DA:487,1
DA:488,1
DA:489,1
DA:490,1
DA:493,1
DA:494,1
DA:501,1
DA:502,1
DA:510,1
DA:512,1
DA:513,1
DA:514,1
DA:515,1
DA:516,1
DA:519,1
DA:520,1
DA:526,1
DA:533,1
DA:534,1
DA:542,1
DA:544,1
DA:545,1
DA:546,1
DA:547,1
DA:548,1
DA:549,1
DA:550,1
DA:551,1
DA:554,1
DA:555,1
DA:556,1
DA:558,1
DA:559,1
DA:565,1
DA:568,1
DA:569,1
DA:570,1
DA:571,1
DA:573,1
DA:574,1
DA:575,1
DA:576,1
DA:579,1
DA:580,1
DA:581,1
DA:583,1
DA:584,1
DA:587,1
DA:588,1
DA:589,1
DA:590,1
DA:597,1
DA:599,1
DA:600,1
DA:601,1
DA:602,1
BRF:0
BRH:0
LF:396
LH:299
end_of_record
SF:/Users/samcolak/Source Code/rust/neuron_server/library/neuralnet/src/tensor/backend.rs
FN:57,_RNCNvNtNtCs1xmhvdYWKG8_9neuralnet6tensor7backend17native_dw_enabled0B7_
FN:52,_RNCNvNtNtCs1xmhvdYWKG8_9neuralnet6tensor7backend20cpu_fallback_enabled0B7_
FN:62,_RNCNvNtNtCs1xmhvdYWKG8_9neuralnet6tensor7backend21native_dinput_enabled0B7_
FN:18,_RNvMNtNtCs1xmhvdYWKG8_9neuralnet6tensor7backendNtB2_17TensorBackendKind6as_str
FN:38,_RNvNtNtCs1xmhvdYWKG8_9neuralnet6tensor7backend14parse_bool_env
FN:55,_RNvNtNtCs1xmhvdYWKG8_9neuralnet6tensor7backend17native_dw_enabled
FN:686,_RNvNtNtCs1xmhvdYWKG8_9neuralnet6tensor7backend20active_backend_label
FN:50,_RNvNtNtCs1xmhvdYWKG8_9neuralnet6tensor7backend20cpu_fallback_enabled
FN:60,_RNvNtNtCs1xmhvdYWKG8_9neuralnet6tensor7backend21native_dinput_enabled
FN:709,_RNvNtNtNtCs1xmhvdYWKG8_9neuralnet6tensor7backend5tests19assert_close_slices
FN:720,_RNvNtNtNtCs1xmhvdYWKG8_9neuralnet6tensor7backend5tests19assert_close_tensor
FN:126,_RNvYpNtNtNtCs1xmhvdYWKG8_9neuralnet6tensor7backend13TensorBackend21training_capabilitiesB9_
FN:835,_RNvNtNtNtCs1xmhvdYWKG8_9neuralnet6tensor7backend5testss_31mlx_backend_executes_tensor_ops
FN:754,_RNvNtNtNtCs1xmhvdYWKG8_9neuralnet6tensor7backend5testss_38cpu_backend_conv_matches_tensor4d_conv
FN:788,_RNvNtNtNtCs1xmhvdYWKG8_9neuralnet6tensor7backend5testss_43cuda_backend_matches_cpu_ops_in_staged_mode
FN:726,_RNvNtNtNtCs1xmhvdYWKG8_9neuralnet6tensor7backend5testss_51cpu_backend_reports_host_only_training_capabilities
FN:735,_RNvNtNtNtCs1xmhvdYWKG8_9neuralnet6tensor7backend5testss_55active_backend_training_capabilities_match_backend_mode
FN:1111,_RNvNtNtNtCs1xmhvdYWKG8_9neuralnet6tensor7backend5testss_58active_backend_defaults_to_cpu_without_offloading_features
FN:26,_RNvMNtNtCs1xmhvdYWKG8_9neuralnet6tensor7backendNtB2_17TensorBackendKind5parse
FN:91,_RNvMs_NtNtCs1xmhvdYWKG8_9neuralnet6tensor7backendNtB4_19TensorBackendRouter17selected_endpoint
FN:79,_RNvMs_NtNtCs1xmhvdYWKG8_9neuralnet6tensor7backendNtB4_19TensorBackendRouter3new
FN:577,_RNvNtNtCs1xmhvdYWKG8_9neuralnet6tensor7backend11cpu_backend
FN:585,_RNvNtNtCs1xmhvdYWKG8_9neuralnet6tensor7backend11mlx_backend
FN:581,_RNvNtNtCs1xmhvdYWKG8_9neuralnet6tensor7backend12cuda_backend
FN:674,_RNvNtNtCs1xmhvdYWKG8_9neuralnet6tensor7backend14active_backend
FN:604,_RNvNtNtCs1xmhvdYWKG8_9neuralnet6tensor7backend16backend_for_kind
FN:678,_RNvNtNtCs1xmhvdYWKG8_9neuralnet6tensor7backend19active_backend_name
FN:669,_RNvNtNtCs1xmhvdYWKG8_9neuralnet6tensor7backend21active_backend_router
FN:593,_RNvNtNtCs1xmhvdYWKG8_9neuralnet6tensor7backend21mlx_backend_available
FN:589,_RNvNtNtCs1xmhvdYWKG8_9neuralnet6tensor7backend22cuda_backend_available
FN:597,_RNvNtNtCs1xmhvdYWKG8_9neuralnet6tensor7backend22preferred_backend_kind
FN:648,_RNvNtNtCs1xmhvdYWKG8_9neuralnet6tensor7backend23resolve_primary_backend
FN:385,_RNvNtNtCs1xmhvdYWKG8_9neuralnet6tensor7backend33cpu_conv_block_backward_gradients
FN:682,_RNvNtNtCs1xmhvdYWKG8_9neuralnet6tensor7backend36active_backend_training_capabilities
FN:270,_RNvXs0_NtNtCs1xmhvdYWKG8_9neuralnet6tensor7backendNtB5_19TensorBackendRouterNtB5_13TensorBackend10max_pool2d
FN:259,_RNvXs0_NtNtCs1xmhvdYWKG8_9neuralnet6tensor7backendNtB5_19TensorBackendRouterNtB5_13TensorBackend12conv2d_valid
FN:285,_RNvXs0_NtNtCs1xmhvdYWKG8_9neuralnet6tensor7backendNtB5_19TensorBackendRouterNtB5_13TensorBackend12relu_inplace
FN:281,_RNvXs0_NtNtCs1xmhvdYWKG8_9neuralnet6tensor7backendNtB5_19TensorBackendRouterNtB5_13TensorBackend21global_average_pool2d
FN:255,_RNvXs0_NtNtCs1xmhvdYWKG8_9neuralnet6tensor7backendNtB5_19TensorBackendRouterNtB5_13TensorBackend21training_capabilities
FN:324,_RNvXs0_NtNtCs1xmhvdYWKG8_9neuralnet6tensor7backendNtB5_19TensorBackendRouterNtB5_13TensorBackend26conv_blocks_to_feature_vec
FN:297,_RNvXs0_NtNtCs1xmhvdYWKG8_9neuralnet6tensor7backendNtB5_19TensorBackendRouterNtB5_13TensorBackend26conv_relu_max_pool2d_valid
FN:353,_RNvXs0_NtNtCs1xmhvdYWKG8_9neuralnet6tensor7backendNtB5_19TensorBackendRouterNtB5_13TensorBackend29conv_block_backward_gradients
FN:251,_RNvXs0_NtNtCs1xmhvdYWKG8_9neuralnet6tensor7backendNtB5_19TensorBackendRouterNtB5_13TensorBackend4name
FN:769,_RNCNvNtNtNtCs1xmhvdYWKG8_9neuralnet6tensor7backend5testss_38cpu_backend_conv_matches_tensor4d_conv0B9_
FN:776,_RNCNvNtNtNtCs1xmhvdYWKG8_9neuralnet6tensor7backend5testss_38cpu_backend_conv_matches_tensor4d_convs0_0B9_
FN:780,_RNCNvNtNtNtCs1xmhvdYWKG8_9neuralnet6tensor7backend5testss_38cpu_backend_conv_matches_tensor4d_convs1_0B9_
FN:772,_RNCNvNtNtNtCs1xmhvdYWKG8_9neuralnet6tensor7backend5testss_38cpu_backend_conv_matches_tensor4d_convs_0B9_
FN:801,_RNCNvNtNtNtCs1xmhvdYWKG8_9neuralnet6tensor7backend5testss_43cuda_backend_matches_cpu_ops_in_staged_mode0B9_
FN:807,_RNCNvNtNtNtCs1xmhvdYWKG8_9neuralnet6tensor7backend5testss_43cuda_backend_matches_cpu_ops_in_staged_modes0_0B9_
FN:810,_RNCNvNtNtNtCs1xmhvdYWKG8_9neuralnet6tensor7backend5testss_43cuda_backend_matches_cpu_ops_in_staged_modes1_0B9_
FN:814,_RNCNvNtNtNtCs1xmhvdYWKG8_9neuralnet6tensor7backend5testss_43cuda_backend_matches_cpu_ops_in_staged_modes2_0B9_
FN:817,_RNCNvNtNtNtCs1xmhvdYWKG8_9neuralnet6tensor7backend5testss_43cuda_backend_matches_cpu_ops_in_staged_modes3_0B9_
FN:821,_RNCNvNtNtNtCs1xmhvdYWKG8_9neuralnet6tensor7backend5testss_43cuda_backend_matches_cpu_ops_in_staged_modes4_0B9_
FN:824,_RNCNvNtNtNtCs1xmhvdYWKG8_9neuralnet6tensor7backend5testss_43cuda_backend_matches_cpu_ops_in_staged_modes5_0B9_
FN:803,_RNCNvNtNtNtCs1xmhvdYWKG8_9neuralnet6tensor7backend5testss_43cuda_backend_matches_cpu_ops_in_staged_modes_0B9_
FN:201,_RNvYNtNtNtNtCs1xmhvdYWKG8_9neuralnet6tensor10offloading11cpu_backend16CpuTensorBackendNtNtB8_7backend13TensorBackend26conv_blocks_to_feature_vecBa_
FN:175,_RNvYNtNtNtNtCs1xmhvdYWKG8_9neuralnet6tensor10offloading11cpu_backend16CpuTensorBackendNtNtB8_7backend13TensorBackend26conv_relu_max_pool2d_validBa_
FN:153,_RNvYNtNtNtNtCs1xmhvdYWKG8_9neuralnet6tensor10offloading11cpu_backend16CpuTensorBackendNtNtB8_7backend13TensorBackend29conv_block_backward_gradientsBa_
FN:99,_RINvMs_NtNtCs1xmhvdYWKG8_9neuralnet6tensor7backendNtB5_19TensorBackendRouter18call_with_failoverINtNtCsehV1Oe06VSW_5alloc3vec3VecfENCNvXs0_B5_BM_NtB5_13TensorBackend26conv_blocks_to_feature_vec0EB9_
FN:99,_RINvMs_NtNtCs1xmhvdYWKG8_9neuralnet6tensor7backendNtB5_19TensorBackendRouter18call_with_failoverNtB5_26ConvBlockBackwardGradientsNCNvXs0_B5_BM_NtB5_13TensorBackend29conv_block_backward_gradients0EB9_
FN:99,_RINvMs_NtNtCs1xmhvdYWKG8_9neuralnet6tensor7backendNtB5_19TensorBackendRouter18call_with_failoverNtNtB7_8tensor4d8Tensor4DNCNvXs0_B5_BM_NtB5_13TensorBackend10max_pool2d0EB9_
FN:99,_RINvMs_NtNtCs1xmhvdYWKG8_9neuralnet6tensor7backendNtB5_19TensorBackendRouter18call_with_failoverNtNtB7_8tensor4d8Tensor4DNCNvXs0_B5_BM_NtB5_13TensorBackend12conv2d_valid0EB9_
FN:99,_RINvMs_NtNtCs1xmhvdYWKG8_9neuralnet6tensor7backendNtB5_19TensorBackendRouter18call_with_failoverNtNtB7_8tensor4d8Tensor4DNCNvXs0_B5_BM_NtB5_13TensorBackend21global_average_pool2d0EB9_
FN:99,_RINvMs_NtNtCs1xmhvdYWKG8_9neuralnet6tensor7backendNtB5_19TensorBackendRouter18call_with_failoverNtNtB7_8tensor4d8Tensor4DNCNvXs0_B5_BM_NtB5_13TensorBackend26conv_relu_max_pool2d_valid0EB9_
FN:671,_RNCNvNtNtCs1xmhvdYWKG8_9neuralnet6tensor7backend21active_backend_router0B7_
FN:600,_RNCNvNtNtCs1xmhvdYWKG8_9neuralnet6tensor7backend22preferred_backend_kind0B7_
FN:601,_RNCNvNtNtCs1xmhvdYWKG8_9neuralnet6tensor7backend22preferred_backend_kinds_0B7_
FN:416,_RNCNvNtNtCs1xmhvdYWKG8_9neuralnet6tensor7backend33cpu_conv_block_backward_gradients0B7_
FN:417,_RNCNvNtNtCs1xmhvdYWKG8_9neuralnet6tensor7backend33cpu_conv_block_backward_gradientss_0B7_
FN:278,_RNCNvXs0_NtNtCs1xmhvdYWKG8_9neuralnet6tensor7backendNtB7_19TensorBackendRouterNtB7_13TensorBackend10max_pool2d0Bb_
FN:267,_RNCNvXs0_NtNtCs1xmhvdYWKG8_9neuralnet6tensor7backendNtB7_19TensorBackendRouterNtB7_13TensorBackend12conv2d_valid0Bb_
FN:282,_RNCNvXs0_NtNtCs1xmhvdYWKG8_9neuralnet6tensor7backendNtB7_19TensorBackendRouterNtB7_13TensorBackend21global_average_pool2d0Bb_
FN:337,_RNCNvXs0_NtNtCs1xmhvdYWKG8_9neuralnet6tensor7backendNtB7_19TensorBackendRouterNtB7_13TensorBackend26conv_blocks_to_feature_vec0Bb_
FN:309,_RNCNvXs0_NtNtCs1xmhvdYWKG8_9neuralnet6tensor7backendNtB7_19TensorBackendRouterNtB7_13TensorBackend26conv_relu_max_pool2d_valid0Bb_
FN:363,_RNCNvXs0_NtNtCs1xmhvdYWKG8_9neuralnet6tensor7backendNtB7_19TensorBackendRouterNtB7_13TensorBackend29conv_block_backward_gradients0Bb_
FNDA:0,_RNCNvNtNtCs1xmhvdYWKG8_9neuralnet6tensor7backend17native_dw_enabled0B7_
FNDA:0,_RNCNvNtNtCs1xmhvdYWKG8_9neuralnet6tensor7backend20cpu_fallback_enabled0B7_
FNDA:0,_RNCNvNtNtCs1xmhvdYWKG8_9neuralnet6tensor7backend21native_dinput_enabled0B7_
FNDA:0,_RNvMNtNtCs1xmhvdYWKG8_9neuralnet6tensor7backendNtB2_17TensorBackendKind6as_str
FNDA:0,_RNvNtNtCs1xmhvdYWKG8_9neuralnet6tensor7backend14parse_bool_env
FNDA:0,_RNvNtNtCs1xmhvdYWKG8_9neuralnet6tensor7backend17native_dw_enabled
FNDA:0,_RNvNtNtCs1xmhvdYWKG8_9neuralnet6tensor7backend20active_backend_label
FNDA:0,_RNvNtNtCs1xmhvdYWKG8_9neuralnet6tensor7backend20cpu_fallback_enabled
FNDA:0,_RNvNtNtCs1xmhvdYWKG8_9neuralnet6tensor7backend21native_dinput_enabled
FNDA:0,_RNvNtNtNtCs1xmhvdYWKG8_9neuralnet6tensor7backend5tests19assert_close_slices
FNDA:0,_RNvNtNtNtCs1xmhvdYWKG8_9neuralnet6tensor7backend5tests19assert_close_tensor
FNDA:0,_RNvYpNtNtNtCs1xmhvdYWKG8_9neuralnet6tensor7backend13TensorBackend21training_capabilitiesB9_
FNDA:1,_RNvNtNtNtCs1xmhvdYWKG8_9neuralnet6tensor7backend5testss_31mlx_backend_executes_tensor_ops
FNDA:1,_RNvNtNtNtCs1xmhvdYWKG8_9neuralnet6tensor7backend5testss_38cpu_backend_conv_matches_tensor4d_conv
FNDA:1,_RNvNtNtNtCs1xmhvdYWKG8_9neuralnet6tensor7backend5testss_43cuda_backend_matches_cpu_ops_in_staged_mode
FNDA:1,_RNvNtNtNtCs1xmhvdYWKG8_9neuralnet6tensor7backend5testss_51cpu_backend_reports_host_only_training_capabilities
FNDA:1,_RNvNtNtNtCs1xmhvdYWKG8_9neuralnet6tensor7backend5testss_55active_backend_training_capabilities_match_backend_mode
FNDA:1,_RNvNtNtNtCs1xmhvdYWKG8_9neuralnet6tensor7backend5testss_58active_backend_defaults_to_cpu_without_offloading_features
FNDA:0,_RNvMNtNtCs1xmhvdYWKG8_9neuralnet6tensor7backendNtB2_17TensorBackendKind5parse
FNDA:46,_RNvMs_NtNtCs1xmhvdYWKG8_9neuralnet6tensor7backendNtB4_19TensorBackendRouter17selected_endpoint
FNDA:1,_RNvMs_NtNtCs1xmhvdYWKG8_9neuralnet6tensor7backendNtB4_19TensorBackendRouter3new
FNDA:3,_RNvNtNtCs1xmhvdYWKG8_9neuralnet6tensor7backend11cpu_backend
FNDA:1,_RNvNtNtCs1xmhvdYWKG8_9neuralnet6tensor7backend11mlx_backend
FNDA:1,_RNvNtNtCs1xmhvdYWKG8_9neuralnet6tensor7backend12cuda_backend
FNDA:4593,_RNvNtNtCs1xmhvdYWKG8_9neuralnet6tensor7backend14active_backend
FNDA:2,_RNvNtNtCs1xmhvdYWKG8_9neuralnet6tensor7backend16backend_for_kind
FNDA:23,_RNvNtNtCs1xmhvdYWKG8_9neuralnet6tensor7backend19active_backend_name
FNDA:4593,_RNvNtNtCs1xmhvdYWKG8_9neuralnet6tensor7backend21active_backend_router
FNDA:1,_RNvNtNtCs1xmhvdYWKG8_9neuralnet6tensor7backend21mlx_backend_available
FNDA:1,_RNvNtNtCs1xmhvdYWKG8_9neuralnet6tensor7backend22cuda_backend_available
FNDA:1,_RNvNtNtCs1xmhvdYWKG8_9neuralnet6tensor7backend22preferred_backend_kind
FNDA:1,_RNvNtNtCs1xmhvdYWKG8_9neuralnet6tensor7backend23resolve_primary_backend
FNDA:1153,_RNvNtNtCs1xmhvdYWKG8_9neuralnet6tensor7backend33cpu_conv_block_backward_gradients
FNDA:23,_RNvNtNtCs1xmhvdYWKG8_9neuralnet6tensor7backend36active_backend_training_capabilities
FNDA:3,_RNvXs0_NtNtCs1xmhvdYWKG8_9neuralnet6tensor7backendNtB5_19TensorBackendRouterNtB5_13TensorBackend10max_pool2d
FNDA:1198,_RNvXs0_NtNtCs1xmhvdYWKG8_9neuralnet6tensor7backendNtB5_19TensorBackendRouterNtB5_13TensorBackend12conv2d_valid
FNDA:1195,_RNvXs0_NtNtCs1xmhvdYWKG8_9neuralnet6tensor7backendNtB5_19TensorBackendRouterNtB5_13TensorBackend12relu_inplace
FNDA:973,_RNvXs0_NtNtCs1xmhvdYWKG8_9neuralnet6tensor7backendNtB5_19TensorBackendRouterNtB5_13TensorBackend21global_average_pool2d
FNDA:23,_RNvXs0_NtNtCs1xmhvdYWKG8_9neuralnet6tensor7backendNtB5_19TensorBackendRouterNtB5_13TensorBackend21training_capabilities
FNDA:0,_RNvXs0_NtNtCs1xmhvdYWKG8_9neuralnet6tensor7backendNtB5_19TensorBackendRouterNtB5_13TensorBackend26conv_blocks_to_feature_vec
FNDA:25,_RNvXs0_NtNtCs1xmhvdYWKG8_9neuralnet6tensor7backendNtB5_19TensorBackendRouterNtB5_13TensorBackend26conv_relu_max_pool2d_valid
FNDA:1153,_RNvXs0_NtNtCs1xmhvdYWKG8_9neuralnet6tensor7backendNtB5_19TensorBackendRouterNtB5_13TensorBackend29conv_block_backward_gradients
FNDA:23,_RNvXs0_NtNtCs1xmhvdYWKG8_9neuralnet6tensor7backendNtB5_19TensorBackendRouterNtB5_13TensorBackend4name
FNDA:0,_RNCNvNtNtNtCs1xmhvdYWKG8_9neuralnet6tensor7backend5testss_38cpu_backend_conv_matches_tensor4d_conv0B9_
FNDA:0,_RNCNvNtNtNtCs1xmhvdYWKG8_9neuralnet6tensor7backend5testss_38cpu_backend_conv_matches_tensor4d_convs0_0B9_
FNDA:0,_RNCNvNtNtNtCs1xmhvdYWKG8_9neuralnet6tensor7backend5testss_38cpu_backend_conv_matches_tensor4d_convs1_0B9_
FNDA:0,_RNCNvNtNtNtCs1xmhvdYWKG8_9neuralnet6tensor7backend5testss_38cpu_backend_conv_matches_tensor4d_convs_0B9_
FNDA:0,_RNCNvNtNtNtCs1xmhvdYWKG8_9neuralnet6tensor7backend5testss_43cuda_backend_matches_cpu_ops_in_staged_mode0B9_
FNDA:0,_RNCNvNtNtNtCs1xmhvdYWKG8_9neuralnet6tensor7backend5testss_43cuda_backend_matches_cpu_ops_in_staged_modes0_0B9_
FNDA:0,_RNCNvNtNtNtCs1xmhvdYWKG8_9neuralnet6tensor7backend5testss_43cuda_backend_matches_cpu_ops_in_staged_modes1_0B9_
FNDA:0,_RNCNvNtNtNtCs1xmhvdYWKG8_9neuralnet6tensor7backend5testss_43cuda_backend_matches_cpu_ops_in_staged_modes2_0B9_
FNDA:0,_RNCNvNtNtNtCs1xmhvdYWKG8_9neuralnet6tensor7backend5testss_43cuda_backend_matches_cpu_ops_in_staged_modes3_0B9_
FNDA:0,_RNCNvNtNtNtCs1xmhvdYWKG8_9neuralnet6tensor7backend5testss_43cuda_backend_matches_cpu_ops_in_staged_modes4_0B9_
FNDA:0,_RNCNvNtNtNtCs1xmhvdYWKG8_9neuralnet6tensor7backend5testss_43cuda_backend_matches_cpu_ops_in_staged_modes5_0B9_
FNDA:0,_RNCNvNtNtNtCs1xmhvdYWKG8_9neuralnet6tensor7backend5testss_43cuda_backend_matches_cpu_ops_in_staged_modes_0B9_
FNDA:0,_RNvYNtNtNtNtCs1xmhvdYWKG8_9neuralnet6tensor10offloading11cpu_backend16CpuTensorBackendNtNtB8_7backend13TensorBackend26conv_blocks_to_feature_vecBa_
FNDA:25,_RNvYNtNtNtNtCs1xmhvdYWKG8_9neuralnet6tensor10offloading11cpu_backend16CpuTensorBackendNtNtB8_7backend13TensorBackend26conv_relu_max_pool2d_validBa_
FNDA:1153,_RNvYNtNtNtNtCs1xmhvdYWKG8_9neuralnet6tensor10offloading11cpu_backend16CpuTensorBackendNtNtB8_7backend13TensorBackend29conv_block_backward_gradientsBa_
FNDA:0,_RINvMs_NtNtCs1xmhvdYWKG8_9neuralnet6tensor7backendNtB5_19TensorBackendRouter18call_with_failoverINtNtCsehV1Oe06VSW_5alloc3vec3VecfENCNvXs0_B5_BM_NtB5_13TensorBackend26conv_blocks_to_feature_vec0EB9_
FNDA:1153,_RINvMs_NtNtCs1xmhvdYWKG8_9neuralnet6tensor7backendNtB5_19TensorBackendRouter18call_with_failoverNtB5_26ConvBlockBackwardGradientsNCNvXs0_B5_BM_NtB5_13TensorBackend29conv_block_backward_gradients0EB9_
FNDA:3,_RINvMs_NtNtCs1xmhvdYWKG8_9neuralnet6tensor7backendNtB5_19TensorBackendRouter18call_with_failoverNtNtB7_8tensor4d8Tensor4DNCNvXs0_B5_BM_NtB5_13TensorBackend10max_pool2d0EB9_
FNDA:1198,_RINvMs_NtNtCs1xmhvdYWKG8_9neuralnet6tensor7backendNtB5_19TensorBackendRouter18call_with_failoverNtNtB7_8tensor4d8Tensor4DNCNvXs0_B5_BM_NtB5_13TensorBackend12conv2d_valid0EB9_
FNDA:973,_RINvMs_NtNtCs1xmhvdYWKG8_9neuralnet6tensor7backendNtB5_19TensorBackendRouter18call_with_failoverNtNtB7_8tensor4d8Tensor4DNCNvXs0_B5_BM_NtB5_13TensorBackend21global_average_pool2d0EB9_
FNDA:25,_RINvMs_NtNtCs1xmhvdYWKG8_9neuralnet6tensor7backendNtB5_19TensorBackendRouter18call_with_failoverNtNtB7_8tensor4d8Tensor4DNCNvXs0_B5_BM_NtB5_13TensorBackend26conv_relu_max_pool2d_valid0EB9_
FNDA:1,_RNCNvNtNtCs1xmhvdYWKG8_9neuralnet6tensor7backend21active_backend_router0B7_
FNDA:1,_RNCNvNtNtCs1xmhvdYWKG8_9neuralnet6tensor7backend22preferred_backend_kind0B7_
FNDA:0,_RNCNvNtNtCs1xmhvdYWKG8_9neuralnet6tensor7backend22preferred_backend_kinds_0B7_
FNDA:1153,_RNCNvNtNtCs1xmhvdYWKG8_9neuralnet6tensor7backend33cpu_conv_block_backward_gradients0B7_
FNDA:1153,_RNCNvNtNtCs1xmhvdYWKG8_9neuralnet6tensor7backend33cpu_conv_block_backward_gradientss_0B7_
FNDA:3,_RNCNvXs0_NtNtCs1xmhvdYWKG8_9neuralnet6tensor7backendNtB7_19TensorBackendRouterNtB7_13TensorBackend10max_pool2d0Bb_
FNDA:1198,_RNCNvXs0_NtNtCs1xmhvdYWKG8_9neuralnet6tensor7backendNtB7_19TensorBackendRouterNtB7_13TensorBackend12conv2d_valid0Bb_
FNDA:973,_RNCNvXs0_NtNtCs1xmhvdYWKG8_9neuralnet6tensor7backendNtB7_19TensorBackendRouterNtB7_13TensorBackend21global_average_pool2d0Bb_
FNDA:0,_RNCNvXs0_NtNtCs1xmhvdYWKG8_9neuralnet6tensor7backendNtB7_19TensorBackendRouterNtB7_13TensorBackend26conv_blocks_to_feature_vec0Bb_
FNDA:25,_RNCNvXs0_NtNtCs1xmhvdYWKG8_9neuralnet6tensor7backendNtB7_19TensorBackendRouterNtB7_13TensorBackend26conv_relu_max_pool2d_valid0Bb_
FNDA:1153,_RNCNvXs0_NtNtCs1xmhvdYWKG8_9neuralnet6tensor7backendNtB7_19TensorBackendRouterNtB7_13TensorBackend29conv_block_backward_gradients0Bb_
FNF:70
FNH:41
DA:18,0
DA:19,0
DA:20,0
DA:21,0
DA:22,0
DA:24,0
DA:26,0
DA:27,0
DA:28,0
DA:29,0
DA:30,0
DA:31,0
DA:32,0
DA:34,0
DA:38,0
DA:39,0
DA:40,0
DA:41,0
DA:42,0
DA:43,0
DA:44,0
DA:46,0
DA:48,0
DA:50,0
DA:52,0
DA:53,0
DA:55,0
DA:57,0
DA:58,0
DA:60,0
DA:62,0
DA:63,0
DA:79,1
DA:81,1
DA:82,1
DA:83,1
DA:84,1
DA:85,1
DA:86,1
DA:87,1
DA:88,1
DA:89,1
DA:91,46
DA:92,46
DA:93,0
DA:95,46
DA:97,46
DA:99,3352
DA:100,3352
DA:101,3352
DA:103,3352
DA:104,3352
DA:105,0
DA:107,0
DA:108,0
DA:109,0
DA:110,0
DA:111,0
DA:112,0
DA:113,0
DA:114,0
DA:118,3352
DA:126,0
DA:127,0
DA:128,0
DA:153,1153
DA:154,1153
DA:155,1153
DA:156,1153
DA:157,1153
DA:158,1153
DA:159,1153
DA:160,1153
DA:161,1153
DA:162,1153
DA:163,1153
DA:164,1153
DA:165,1153
DA:166,1153
DA:167,1153
DA:168,1153
DA:169,1153
DA:170,1153
DA:172,1153
DA:175,25
DA:176,25
DA:177,25
DA:178,25
DA:179,25
DA:180,25
DA:181,25
DA:182,25
DA:183,25
DA:184,25
DA:185,25
DA:186,25
DA:188,25
DA:189,25
DA:190,25
DA:191,25
DA:192,25
DA:193,25
DA:194,25
DA:195,25
DA:198,25
DA:201,0
DA:202,0
DA:203,0
DA:204,0
DA:205,0
DA:206,0
DA:207,0
DA:208,0
DA:209,0
DA:210,0
DA:211,0
DA:212,0
DA:213,0
DA:215,0
DA:216,0
DA:217,0
DA:218,0
DA:219,0
DA:220,0
DA:221,0
DA:222,0
DA:223,0
DA:224,0
DA:225,0
DA:227,0
DA:228,0
DA:229,0
DA:230,0
DA:231,0
DA:232,0
DA:233,0
DA:234,0
DA:235,0
DA:236,0
DA:237,0
DA:238,0
DA:240,0
DA:243,0
DA:244,0
DA:246,0
DA:251,23
DA:252,23
DA:253,23
DA:255,23
DA:256,23
DA:257,23
DA:259,1198
DA:260,1198
DA:261,1198
DA:262,1198
DA:263,1198
DA:264,1198
DA:265,1198
DA:266,1198
DA:267,1198
DA:268,1198
DA:270,3
DA:271,3
DA:272,3
DA:273,3
DA:274,3
DA:275,3
DA:276,3
DA:277,3
DA:278,3
DA:279,3
DA:281,973
DA:282,973
DA:283,973
DA:285,1195
DA:287,1195
DA:288,0
DA:289,1195
DA:290,0
DA:291,1195
DA:292,1195
DA:293,1195
DA:295,1195
DA:297,25
DA:298,25
DA:299,25
DA:300,25
DA:301,25
DA:302,25
DA:303,25
DA:304,25
DA:305,25
DA:306,25
DA:307,25
DA:308,25
DA:309,25
DA:310,25
DA:311,25
DA:312,25
DA:313,25
DA:314,25
DA:315,25
DA:316,25
DA:317,25
DA:318,25
DA:319,25
DA:321,25
DA:322,25
DA:324,0
DA:325,0
DA:326,0
DA:327,0
DA:328,0
DA:329,0
DA:330,0
DA:331,0
DA:332,0
DA:333,0
DA:334,0
DA:335,0
DA:336,0
DA:337,0
DA:338,0
DA:339,0
DA:340,0
DA:341,0
DA:342,0
DA:343,0
DA:344,0
DA:345,0
DA:346,0
DA:347,0
DA:348,0
DA:350,0
DA:351,0
DA:353,1153
DA:354,1153
DA:355,1153
DA:356,1153
DA:357,1153
DA:358,1153
DA:359,1153
DA:360,1153
DA:361,1153
DA:362,1153
DA:363,1153
DA:364,1153
DA:365,1153
DA:366,1153
DA:367,1153
DA:368,1153
DA:369,1153
DA:370,1153
DA:371,1153
DA:373,1153
DA:374,1153
DA:385,1153
DA:386,1153
DA:387,1153
DA:388,1153
DA:389,1153
DA:390,1153
DA:391,1153
DA:392,1153
DA:393,1153
DA:395,1153
DA:396,1153
DA:397,0
DA:398,0
DA:399,0
DA:400,0
DA:401,1153
DA:403,1153
DA:404,1153
DA:405,1153
DA:407,1153
DA:408,0
DA:409,0
DA:410,0
DA:411,0
DA:412,1153
DA:414,1153
DA:415,1153
DA:416,1153
DA:417,1153
DA:418,1153
DA:420,1153
DA:421,0
DA:422,0
DA:423,0
DA:424,0
DA:425,1153
DA:427,1153
DA:428,1153
DA:429,1153
DA:430,1153
DA:431,1153
DA:433,1215
DA:434,1215
DA:435,1215
DA:437,3390
DA:438,3390
DA:439,3390
DA:441,18930
DA:442,122910
DA:443,122910
DA:444,122910
DA:445,122910
DA:446,0
DA:447,0
DA:448,0
DA:449,122910
DA:450,122910
DA:451,122910
DA:457,500280
DA:458,1153
DA:459,1153
DA:460,1153
DA:462,500280
DA:463,285780
DA:464,285780
DA:466,1153
DA:467,1153
DA:469,1153
DA:470,1153
DA:472,3266
DA:473,3266
DA:474,3390
DA:475,3390
DA:476,3390
DA:477,3390
DA:478,3390
DA:479,3390
DA:480,3266
DA:482,1153
DA:483,1153
DA:484,1153
DA:485,1153
DA:487,3266
DA:488,6466
DA:489,6466
DA:490,19398
DA:491,58194
DA:492,58194
DA:493,59310
DA:494,59310
DA:495,59310
DA:496,519300
DA:497,519300
DA:498,519300
DA:499,5715000
DA:500,5715000
DA:501,5715000
DA:502,5715000
DA:503,5715000
DA:506,58194
DA:512,1153
DA:513,240
DA:515,240
DA:516,960
DA:517,960
DA:518,6720
DA:519,47040
DA:520,47040
DA:521,188160
DA:522,188160
DA:523,188160
DA:524,564480
DA:525,564480
DA:526,80640
DA:527,483840
DA:528,483840
DA:529,483840
DA:530,80640
DA:531,403200
DA:532,403200
DA:533,1209600
DA:534,1209600
DA:535,172800
DA:536,1036800
DA:537,1036800
DA:538,1036800
DA:539,172800
DA:540,864000
DA:541,864000
DA:542,864000
DA:543,864000
DA:544,864000
DA:548,47040
DA:554,240
DA:557,913
DA:560,1153
DA:561,1153
DA:562,1153
DA:563,1153
DA:564,1153
DA:566,1153
DA:577,3
DA:578,3
DA:579,3
DA:581,1
DA:582,1
DA:583,1
DA:585,1
DA:586,1
DA:587,1
DA:589,1
DA:590,1
DA:591,1
DA:593,1
DA:594,1
DA:595,1
DA:597,1
DA:598,1
DA:599,1
DA:600,1
DA:601,1
DA:602,1
DA:604,2
DA:606,2
DA:610,0
DA:611,0
DA:612,0
DA:613,0
DA:627,1
DA:641,1
DA:646,2
DA:648,1
DA:650,1
DA:651,0
DA:653,0
DA:654,0
DA:655,0
DA:656,0
DA:657,1
DA:659,2
DA:660,2
DA:661,0
DA:662,2
DA:665,1
DA:667,1
DA:669,4593
DA:671,4593
DA:672,4593
DA:674,4593
DA:675,4593
DA:676,4593
DA:678,23
DA:679,23
DA:680,23
DA:682,23
DA:683,23
DA:684,23
DA:686,0
DA:688,0
DA:689,0
DA:690,0
DA:698,0
DA:703,0
DA:709,0
DA:710,0
DA:711,0
DA:712,0
DA:713,0
DA:714,0
DA:718,0
DA:720,0
DA:721,0
DA:722,0
DA:723,0
DA:726,1
DA:727,1
DA:728,1
DA:729,1
DA:730,1
DA:731,1
DA:732,1
DA:735,1
DA:736,1
DA:740,1
DA:741,1
DA:751,1
DA:754,1
DA:756,1
DA:758,1
DA:763,1
DA:769,1
DA:771,1
DA:772,1
DA:774,1
DA:775,1
DA:776,1
DA:778,1
DA:779,1
DA:780,1
DA:782,1
DA:783,1
DA:785,1
DA:788,1
DA:789,1
DA:790,1
DA:795,1
DA:801,1
DA:802,1
DA:803,1
DA:805,1
DA:806,1
DA:807,1
DA:808,1
DA:809,1
DA:810,1
DA:812,1
DA:813,1
DA:814,1
DA:815,1
DA:816,1
DA:817,1
DA:819,1
DA:820,1
DA:821,1
DA:822,1
DA:823,1
DA:824,1
DA:826,1
DA:827,1
DA:828,1
DA:830,1
DA:831,1
DA:832,1
DA:835,1
DA:836,1
DA:837,1
DA:838,1
DA:840,1
DA:841,1
DA:843,1
DA:844,1
DA:845,1
DA:1111,1
DA:1112,1
DA:1113,1
BRF:0
BRH:0
LF:567
LH:394
end_of_record
SF:/Users/samcolak/Source Code/rust/neuron_server/library/neuralnet/src/tensor/device.rs
FN:41,_RNvMNtNtCs1xmhvdYWKG8_9neuralnet6tensor6deviceNtB2_27BackendTrainingCapabilities33supports_device_resident_training
FN:11,_RNvMNtNtCs1xmhvdYWKG8_9neuralnet6tensor6deviceNtB2_27BackendTrainingCapabilities9host_only
FN:21,_RNvMNtNtCs1xmhvdYWKG8_9neuralnet6tensor6deviceNtB2_27BackendTrainingCapabilities28native_compute_host_training
FN:31,_RNvMNtNtCs1xmhvdYWKG8_9neuralnet6tensor6deviceNtB2_27BackendTrainingCapabilities30fully_device_resident_training
FNDA:23,_RNvMNtNtCs1xmhvdYWKG8_9neuralnet6tensor6deviceNtB2_27BackendTrainingCapabilities33supports_device_resident_training
FNDA:24,_RNvMNtNtCs1xmhvdYWKG8_9neuralnet6tensor6deviceNtB2_27BackendTrainingCapabilities9host_only
FNDA:0,_RNvMNtNtCs1xmhvdYWKG8_9neuralnet6tensor6deviceNtB2_27BackendTrainingCapabilities28native_compute_host_training
FNDA:0,_RNvMNtNtCs1xmhvdYWKG8_9neuralnet6tensor6deviceNtB2_27BackendTrainingCapabilities30fully_device_resident_training
FNF:4
FNH:2
DA:11,24
DA:12,24
DA:13,24
DA:14,24
DA:15,24
DA:16,24
DA:17,24
DA:18,24
DA:19,24
DA:21,0
DA:22,0
DA:23,0
DA:24,0
DA:25,0
DA:26,0
DA:27,0
DA:28,0
DA:29,0
DA:31,0
DA:32,0
DA:33,0
DA:34,0
DA:35,0
DA:36,0
DA:37,0
DA:38,0
DA:39,0
DA:41,23
DA:42,23
DA:43,23
BRF:0
BRH:0
LF:30
LH:12
end_of_record
SF:/Users/samcolak/Source Code/rust/neuron_server/library/neuralnet/src/tensor/image_utils.rs
FN:23,_RNvXNtNtCs1xmhvdYWKG8_9neuralnet6tensor11image_utilsNtB2_23ImageTensorUtilityErrorNtNtCse2qo0L34Llq_4core3fmt7Display3fmt
FN:101,_RNvNtNtCs1xmhvdYWKG8_9neuralnet6tensor11image_utils21center_crop_grayscale
FN:68,_RNvNtNtCs1xmhvdYWKG8_9neuralnet6tensor11image_utils24resize_grayscale_nearest
FN:57,_RNvNtNtCs1xmhvdYWKG8_9neuralnet6tensor11image_utils25validate_image_dimensions
FN:165,_RNvNtNtNtCs1xmhvdYWKG8_9neuralnet6tensor11image_utils5testss_44center_crop_grayscale_extracts_middle_region
FN:150,_RNvNtNtNtCs1xmhvdYWKG8_9neuralnet6tensor11image_utils5testss_48resize_grayscale_nearest_upscales_by_replication
FN:172,_RNCNvNtNtNtCs1xmhvdYWKG8_9neuralnet6tensor11image_utils5testss_44center_crop_grayscale_extracts_middle_region0B9_
FN:153,_RNCNvNtNtNtCs1xmhvdYWKG8_9neuralnet6tensor11image_utils5testss_48resize_grayscale_nearest_upscales_by_replication0B9_
FNDA:0,_RNvXNtNtCs1xmhvdYWKG8_9neuralnet6tensor11image_utilsNtB2_23ImageTensorUtilityErrorNtNtCse2qo0L34Llq_4core3fmt7Display3fmt
FNDA:1,_RNvNtNtCs1xmhvdYWKG8_9neuralnet6tensor11image_utils21center_crop_grayscale
FNDA:962,_RNvNtNtCs1xmhvdYWKG8_9neuralnet6tensor11image_utils24resize_grayscale_nearest
FNDA:3142,_RNvNtNtCs1xmhvdYWKG8_9neuralnet6tensor11image_utils25validate_image_dimensions
FNDA:1,_RNvNtNtNtCs1xmhvdYWKG8_9neuralnet6tensor11image_utils5testss_44center_crop_grayscale_extracts_middle_region
FNDA:1,_RNvNtNtNtCs1xmhvdYWKG8_9neuralnet6tensor11image_utils5testss_48resize_grayscale_nearest_upscales_by_replication
FNDA:0,_RNCNvNtNtNtCs1xmhvdYWKG8_9neuralnet6tensor11image_utils5testss_44center_crop_grayscale_extracts_middle_region0B9_
FNDA:0,_RNCNvNtNtNtCs1xmhvdYWKG8_9neuralnet6tensor11image_utils5testss_48resize_grayscale_nearest_upscales_by_replication0B9_
FNF:8
FNH:5
DA:23,0
DA:24,0
DA:25,0
DA:26,0
DA:27,0
DA:32,0
DA:33,0
DA:34,0
DA:40,0
DA:41,0
DA:42,0
DA:43,0
DA:45,0
DA:46,0
DA:52,0
DA:57,3142
DA:58,3142
DA:59,3142
DA:60,3142
DA:61,3142
DA:62,0
DA:63,3142
DA:65,3142
DA:66,3142
DA:68,962
DA:69,962
DA:70,962
DA:71,962
DA:72,962
DA:73,962
DA:74,962
DA:75,962
DA:76,962
DA:78,962
DA:79,962
DA:80,0
DA:81,0
DA:82,0
DA:83,0
DA:84,962
DA:86,962
DA:88,15368
DA:89,15368
DA:90,245792
DA:91,245792
DA:92,245792
DA:93,245792
DA:94,245792
DA:95,245792
DA:98,962
DA:99,962
DA:101,1
DA:102,1
DA:103,1
DA:104,1
DA:105,1
DA:106,1
DA:107,1
DA:108,1
DA:109,1
DA:111,1
DA:112,1
DA:113,0
DA:114,0
DA:115,0
DA:116,0
DA:117,1
DA:119,1
DA:120,0
DA:121,0
DA:122,0
DA:123,0
DA:124,0
DA:125,0
DA:126,1
DA:128,1
DA:129,1
DA:130,1
DA:132,2
DA:133,4
DA:134,4
DA:135,4
DA:136,4
DA:137,4
DA:138,4
DA:139,4
DA:142,1
DA:143,1
DA:150,1
DA:151,1
DA:152,1
DA:153,1
DA:155,1
DA:156,1
DA:157,1
DA:158,1
DA:159,1
DA:160,1
DA:161,1
DA:162,1
DA:165,1
DA:166,1
DA:171,1
DA:172,1
DA:174,1
DA:175,1
BRF:0
BRH:0
LF:108
LH:76
end_of_record
SF:/Users/samcolak/Source Code/rust/neuron_server/library/neuralnet/src/tensor/offloading/cpu_backend.rs
FN:50,_RNvNtNtNtCs1xmhvdYWKG8_9neuralnet6tensor10offloading11cpu_backend11cpu_backend
FN:29,_RNvXNtNtNtCs1xmhvdYWKG8_9neuralnet6tensor10offloading11cpu_backendNtB2_16CpuTensorBackendNtNtB6_7backend13TensorBackend10max_pool2d
FN:18,_RNvXNtNtNtCs1xmhvdYWKG8_9neuralnet6tensor10offloading11cpu_backendNtB2_16CpuTensorBackendNtNtB6_7backend13TensorBackend12conv2d_valid
FN:44,_RNvXNtNtNtCs1xmhvdYWKG8_9neuralnet6tensor10offloading11cpu_backendNtB2_16CpuTensorBackendNtNtB6_7backend13TensorBackend12relu_inplace
FN:40,_RNvXNtNtNtCs1xmhvdYWKG8_9neuralnet6tensor10offloading11cpu_backendNtB2_16CpuTensorBackendNtNtB6_7backend13TensorBackend21global_average_pool2d
FN:14,_RNvXNtNtNtCs1xmhvdYWKG8_9neuralnet6tensor10offloading11cpu_backendNtB2_16CpuTensorBackendNtNtB6_7backend13TensorBackend21training_capabilities
FN:10,_RNvXNtNtNtCs1xmhvdYWKG8_9neuralnet6tensor10offloading11cpu_backendNtB2_16CpuTensorBackendNtNtB6_7backend13TensorBackend4name
FNDA:3,_RNvNtNtNtCs1xmhvdYWKG8_9neuralnet6tensor10offloading11cpu_backend11cpu_backend
FNDA:29,_RNvXNtNtNtCs1xmhvdYWKG8_9neuralnet6tensor10offloading11cpu_backendNtB2_16CpuTensorBackendNtNtB6_7backend13TensorBackend10max_pool2d
FNDA:1225,_RNvXNtNtNtCs1xmhvdYWKG8_9neuralnet6tensor10offloading11cpu_backendNtB2_16CpuTensorBackendNtNtB6_7backend13TensorBackend12conv2d_valid
FNDA:1221,_RNvXNtNtNtCs1xmhvdYWKG8_9neuralnet6tensor10offloading11cpu_backendNtB2_16CpuTensorBackendNtNtB6_7backend13TensorBackend12relu_inplace
FNDA:974,_RNvXNtNtNtCs1xmhvdYWKG8_9neuralnet6tensor10offloading11cpu_backendNtB2_16CpuTensorBackendNtNtB6_7backend13TensorBackend21global_average_pool2d
FNDA:24,_RNvXNtNtNtCs1xmhvdYWKG8_9neuralnet6tensor10offloading11cpu_backendNtB2_16CpuTensorBackendNtNtB6_7backend13TensorBackend21training_capabilities
FNDA:24,_RNvXNtNtNtCs1xmhvdYWKG8_9neuralnet6tensor10offloading11cpu_backendNtB2_16CpuTensorBackendNtNtB6_7backend13TensorBackend4name
FNF:7
FNH:7
DA:10,24
DA:11,24
DA:12,24
DA:14,24
DA:15,24
DA:16,24
DA:18,1225
DA:19,1225
DA:20,1225
DA:21,1225
DA:22,1225
DA:23,1225
DA:24,1225
DA:25,1225
DA:26,1225
DA:27,1225
DA:29,29
DA:30,29
DA:31,29
DA:32,29
DA:33,29
DA:34,29
DA:35,29
DA:36,29
DA:37,29
DA:38,29
DA:40,974
DA:41,974
DA:42,974
DA:44,1221
DA:45,1221
DA:46,1221
DA:50,3
DA:51,3
DA:52,3
BRF:0
BRH:0
LF:35
LH:35
end_of_record
SF:/Users/samcolak/Source Code/rust/neuron_server/library/neuralnet/src/tensor/offloading/cuda_backend.rs
FN:390,_RNvNtNtNtCs1xmhvdYWKG8_9neuralnet6tensor10offloading12cuda_backend26cuda_relu_inplace_fallback
FN:1174,_RNvNtNtNtCs1xmhvdYWKG8_9neuralnet6tensor10offloading12cuda_backend40cuda_conv_blocks_to_feature_vec_fallback
FN:1157,_RNvNtNtNtCs1xmhvdYWKG8_9neuralnet6tensor10offloading12cuda_backend40cuda_conv_relu_max_pool2d_valid_fallback
FN:146,_RNvNtNtNtCs1xmhvdYWKG8_9neuralnet6tensor10offloading12cuda_backend43cuda_conv_block_backward_gradients_fallback
FN:66,_RNvXNtNtNtCs1xmhvdYWKG8_9neuralnet6tensor10offloading12cuda_backendNtB2_17CudaTensorBackendNtNtB6_7backend13TensorBackend12relu_inplace
FN:36,_RNvXNtNtNtCs1xmhvdYWKG8_9neuralnet6tensor10offloading12cuda_backendNtB2_17CudaTensorBackendNtNtB6_7backend13TensorBackend21training_capabilities
FN:95,_RNvXNtNtNtCs1xmhvdYWKG8_9neuralnet6tensor10offloading12cuda_backendNtB2_17CudaTensorBackendNtNtB6_7backend13TensorBackend26conv_blocks_to_feature_vec
FN:70,_RNvXNtNtNtCs1xmhvdYWKG8_9neuralnet6tensor10offloading12cuda_backendNtB2_17CudaTensorBackendNtNtB6_7backend13TensorBackend26conv_relu_max_pool2d_valid
FN:122,_RNvXNtNtNtCs1xmhvdYWKG8_9neuralnet6tensor10offloading12cuda_backendNtB2_17CudaTensorBackendNtNtB6_7backend13TensorBackend29conv_block_backward_gradients
FN:334,_RNvNtNtNtCs1xmhvdYWKG8_9neuralnet6tensor10offloading12cuda_backend12cuda_backend
FN:338,_RNvNtNtNtCs1xmhvdYWKG8_9neuralnet6tensor10offloading12cuda_backend22cuda_backend_available
FN:362,_RNvNtNtNtCs1xmhvdYWKG8_9neuralnet6tensor10offloading12cuda_backend24cuda_max_pool2d_fallback
FN:345,_RNvNtNtNtCs1xmhvdYWKG8_9neuralnet6tensor10offloading12cuda_backend26cuda_conv2d_valid_fallback
FN:379,_RNvNtNtNtCs1xmhvdYWKG8_9neuralnet6tensor10offloading12cuda_backend35cuda_global_average_pool2d_fallback
FN:51,_RNvXNtNtNtCs1xmhvdYWKG8_9neuralnet6tensor10offloading12cuda_backendNtB2_17CudaTensorBackendNtNtB6_7backend13TensorBackend10max_pool2d
FN:40,_RNvXNtNtNtCs1xmhvdYWKG8_9neuralnet6tensor10offloading12cuda_backendNtB2_17CudaTensorBackendNtNtB6_7backend13TensorBackend12conv2d_valid
FN:62,_RNvXNtNtNtCs1xmhvdYWKG8_9neuralnet6tensor10offloading12cuda_backendNtB2_17CudaTensorBackendNtNtB6_7backend13TensorBackend21global_average_pool2d
FN:32,_RNvXNtNtNtCs1xmhvdYWKG8_9neuralnet6tensor10offloading12cuda_backendNtB2_17CudaTensorBackendNtNtB6_7backend13TensorBackend4name
FNDA:0,_RNvNtNtNtCs1xmhvdYWKG8_9neuralnet6tensor10offloading12cuda_backend26cuda_relu_inplace_fallback
FNDA:0,_RNvNtNtNtCs1xmhvdYWKG8_9neuralnet6tensor10offloading12cuda_backend40cuda_conv_blocks_to_feature_vec_fallback
FNDA:0,_RNvNtNtNtCs1xmhvdYWKG8_9neuralnet6tensor10offloading12cuda_backend40cuda_conv_relu_max_pool2d_valid_fallback
FNDA:0,_RNvNtNtNtCs1xmhvdYWKG8_9neuralnet6tensor10offloading12cuda_backend43cuda_conv_block_backward_gradients_fallback
FNDA:0,_RNvXNtNtNtCs1xmhvdYWKG8_9neuralnet6tensor10offloading12cuda_backendNtB2_17CudaTensorBackendNtNtB6_7backend13TensorBackend12relu_inplace
FNDA:0,_RNvXNtNtNtCs1xmhvdYWKG8_9neuralnet6tensor10offloading12cuda_backendNtB2_17CudaTensorBackendNtNtB6_7backend13TensorBackend21training_capabilities
FNDA:0,_RNvXNtNtNtCs1xmhvdYWKG8_9neuralnet6tensor10offloading12cuda_backendNtB2_17CudaTensorBackendNtNtB6_7backend13TensorBackend26conv_blocks_to_feature_vec
FNDA:0,_RNvXNtNtNtCs1xmhvdYWKG8_9neuralnet6tensor10offloading12cuda_backendNtB2_17CudaTensorBackendNtNtB6_7backend13TensorBackend26conv_relu_max_pool2d_valid
FNDA:0,_RNvXNtNtNtCs1xmhvdYWKG8_9neuralnet6tensor10offloading12cuda_backendNtB2_17CudaTensorBackendNtNtB6_7backend13TensorBackend29conv_block_backward_gradients
FNDA:1,_RNvNtNtNtCs1xmhvdYWKG8_9neuralnet6tensor10offloading12cuda_backend12cuda_backend
FNDA:1,_RNvNtNtNtCs1xmhvdYWKG8_9neuralnet6tensor10offloading12cuda_backend22cuda_backend_available
FNDA:1,_RNvNtNtNtCs1xmhvdYWKG8_9neuralnet6tensor10offloading12cuda_backend24cuda_max_pool2d_fallback
FNDA:1,_RNvNtNtNtCs1xmhvdYWKG8_9neuralnet6tensor10offloading12cuda_backend26cuda_conv2d_valid_fallback
FNDA:1,_RNvNtNtNtCs1xmhvdYWKG8_9neuralnet6tensor10offloading12cuda_backend35cuda_global_average_pool2d_fallback
FNDA:1,_RNvXNtNtNtCs1xmhvdYWKG8_9neuralnet6tensor10offloading12cuda_backendNtB2_17CudaTensorBackendNtNtB6_7backend13TensorBackend10max_pool2d
FNDA:1,_RNvXNtNtNtCs1xmhvdYWKG8_9neuralnet6tensor10offloading12cuda_backendNtB2_17CudaTensorBackendNtNtB6_7backend13TensorBackend12conv2d_valid
FNDA:1,_RNvXNtNtNtCs1xmhvdYWKG8_9neuralnet6tensor10offloading12cuda_backendNtB2_17CudaTensorBackendNtNtB6_7backend13TensorBackend21global_average_pool2d
FNDA:1,_RNvXNtNtNtCs1xmhvdYWKG8_9neuralnet6tensor10offloading12cuda_backendNtB2_17CudaTensorBackendNtNtB6_7backend13TensorBackend4name
FNF:18
FNH:9
DA:32,1
DA:33,1
DA:34,1
DA:36,0
DA:37,0
DA:38,0
DA:40,1
DA:41,1
DA:42,1
DA:43,1
DA:44,1
DA:45,1
DA:46,1
DA:47,1
DA:48,1
DA:49,1
DA:51,1
DA:52,1
DA:53,1
DA:54,1
DA:55,1
DA:56,1
DA:57,1
DA:58,1
DA:59,1
DA:60,1
DA:62,1
DA:63,1
DA:64,1
DA:66,0
DA:67,0
DA:68,0
DA:70,0
DA:71,0
DA:72,0
DA:73,0
DA:74,0
DA:75,0
DA:76,0
DA:77,0
DA:78,0
DA:79,0
DA:80,0
DA:81,0
DA:82,0
DA:83,0
DA:84,0
DA:85,0
DA:86,0
DA:87,0
DA:88,0
DA:89,0
DA:90,0
DA:91,0
DA:93,0
DA:95,0
DA:96,0
DA:97,0
DA:98,0
DA:99,0
DA:100,0
DA:101,0
DA:102,0
DA:103,0
DA:104,0
DA:105,0
DA:106,0
DA:107,0
DA:108,0
DA:109,0
DA:110,0
DA:111,0
DA:112,0
DA:113,0
DA:114,0
DA:115,0
DA:116,0
DA:117,0
DA:118,0
DA:120,0
DA:122,0
DA:123,0
DA:124,0
DA:125,0
DA:126,0
DA:127,0
DA:128,0
DA:129,0
DA:130,0
DA:131,0
DA:132,0
DA:133,0
DA:134,0
DA:135,0
DA:136,0
DA:137,0
DA:138,0
DA:139,0
DA:141,0
DA:146,0
DA:147,0
DA:148,0
DA:149,0
DA:150,0
DA:151,0
DA:152,0
DA:153,0
DA:154,0
DA:188,0
DA:189,0
DA:190,0
DA:191,0
DA:192,0
DA:193,0
DA:194,0
DA:195,0
DA:197,0
DA:334,1
DA:335,1
DA:336,1
DA:338,1
DA:339,1
DA:340,1
DA:345,1
DA:346,1
DA:347,1
DA:348,1
DA:349,1
DA:350,1
DA:351,1
DA:359,1
DA:360,1
DA:362,1
DA:363,1
DA:364,1
DA:365,1
DA:366,1
DA:367,1
DA:368,1
DA:376,1
DA:377,1
DA:379,1
DA:387,1
DA:388,1
DA:390,0
DA:398,0
DA:399,0
DA:1157,0
DA:1158,0
DA:1159,0
DA:1160,0
DA:1161,0
DA:1162,0
DA:1163,0
DA:1164,0
DA:1165,0
DA:1166,0
DA:1167,0
DA:1168,0
DA:1169,0
DA:1170,0
DA:1171,0
DA:1174,0
DA:1175,0
DA:1176,0
DA:1177,0
DA:1178,0
DA:1179,0
DA:1180,0
DA:1181,0
DA:1182,0
DA:1183,0
DA:1184,0
DA:1185,0
DA:1186,0
DA:1187,0
DA:1188,0
DA:1189,0
DA:1190,0
DA:1191,0
DA:1192,0
DA:1193,0
DA:1194,0
DA:1195,0
DA:1196,0
DA:1198,0
DA:1199,0
DA:1200,0
DA:1201,0
DA:1202,0
DA:1203,0
DA:1204,0
DA:1205,0
DA:1206,0
DA:1207,0
DA:1208,0
DA:1209,0
DA:1211,0
DA:1214,0
DA:1215,0
DA:1217,0
BRF:0
BRH:0
LF:201
LH:53
end_of_record
SF:/Users/samcolak/Source Code/rust/neuron_server/library/neuralnet/src/tensor/offloading/mlx_backend.rs
FN:74,_RNvMNtNtNtCs1xmhvdYWKG8_9neuralnet6tensor10offloading11mlx_backendNtB2_23MlxBackpropPathSnapshot23full_cpu_fallback_ratio
FN:66,_RNvMNtNtNtCs1xmhvdYWKG8_9neuralnet6tensor10offloading11mlx_backendNtB2_23MlxBackpropPathSnapshot25full_native_success_ratio
FN:82,_RNvMNtNtNtCs1xmhvdYWKG8_9neuralnet6tensor10offloading11mlx_backendNtB2_23MlxBackpropPathSnapshot27dw_native_realization_ratio
FN:90,_RNvMNtNtNtCs1xmhvdYWKG8_9neuralnet6tensor10offloading11mlx_backendNtB2_23MlxBackpropPathSnapshot31dinput_native_realization_ratio
FN:170,_RNvNtNtNtCs1xmhvdYWKG8_9neuralnet6tensor10offloading11mlx_backend23mlx_backprop_path_reset
FN:130,_RNvNtNtNtCs1xmhvdYWKG8_9neuralnet6tensor10offloading11mlx_backend26mlx_backprop_path_snapshot
FN:1555,_RNvNtNtNtCs1xmhvdYWKG8_9neuralnet6tensor10offloading11mlx_backend30mlx_conv_blocks_to_feature_vec
FN:1520,_RNvNtNtNtCs1xmhvdYWKG8_9neuralnet6tensor10offloading11mlx_backend30mlx_conv_relu_max_pool2d_valid
FN:318,_RNvNtNtNtCs1xmhvdYWKG8_9neuralnet6tensor10offloading11mlx_backend42mlx_conv_block_backward_gradients_fallback
FN:208,_RNvXs_NtNtNtCs1xmhvdYWKG8_9neuralnet6tensor10offloading11mlx_backendNtB4_16MlxTensorBackendNtNtB8_7backend13TensorBackend21training_capabilities
FN:267,_RNvXs_NtNtNtCs1xmhvdYWKG8_9neuralnet6tensor10offloading11mlx_backendNtB4_16MlxTensorBackendNtNtB8_7backend13TensorBackend26conv_blocks_to_feature_vec
FN:242,_RNvXs_NtNtNtCs1xmhvdYWKG8_9neuralnet6tensor10offloading11mlx_backendNtB4_16MlxTensorBackendNtNtB8_7backend13TensorBackend26conv_relu_max_pool2d_valid
FN:294,_RNvXs_NtNtNtCs1xmhvdYWKG8_9neuralnet6tensor10offloading11mlx_backendNtB4_16MlxTensorBackendNtNtB8_7backend13TensorBackend29conv_block_backward_gradients
FN:2391,_RNCNvNtNtNtNtCs1xmhvdYWKG8_9neuralnet6tensor10offloading11mlx_backend5testss_33mlx_backend_conv_matches_cpu_core0Bb_
FN:2398,_RNCNvNtNtNtNtCs1xmhvdYWKG8_9neuralnet6tensor10offloading11mlx_backend5testss_33mlx_backend_conv_matches_cpu_cores0_0Bb_
FN:2402,_RNCNvNtNtNtNtCs1xmhvdYWKG8_9neuralnet6tensor10offloading11mlx_backend5testss_33mlx_backend_conv_matches_cpu_cores1_0Bb_
FN:2394,_RNCNvNtNtNtNtCs1xmhvdYWKG8_9neuralnet6tensor10offloading11mlx_backend5testss_33mlx_backend_conv_matches_cpu_cores_0Bb_
FN:2423,_RNCNvNtNtNtNtCs1xmhvdYWKG8_9neuralnet6tensor10offloading11mlx_backend5testss_44mlx_backend_pool_gap_and_relu_match_cpu_core0Bb_
FN:2430,_RNCNvNtNtNtNtCs1xmhvdYWKG8_9neuralnet6tensor10offloading11mlx_backend5testss_44mlx_backend_pool_gap_and_relu_match_cpu_cores0_0Bb_
FN:2435,_RNCNvNtNtNtNtCs1xmhvdYWKG8_9neuralnet6tensor10offloading11mlx_backend5testss_44mlx_backend_pool_gap_and_relu_match_cpu_cores1_0Bb_
FN:2438,_RNCNvNtNtNtNtCs1xmhvdYWKG8_9neuralnet6tensor10offloading11mlx_backend5testss_44mlx_backend_pool_gap_and_relu_match_cpu_cores2_0Bb_
FN:2427,_RNCNvNtNtNtNtCs1xmhvdYWKG8_9neuralnet6tensor10offloading11mlx_backend5testss_44mlx_backend_pool_gap_and_relu_match_cpu_cores_0Bb_
FN:2377,_RNvNtNtNtNtCs1xmhvdYWKG8_9neuralnet6tensor10offloading11mlx_backend5testss_33mlx_backend_conv_matches_cpu_core
FN:2454,_RNvNtNtNtNtCs1xmhvdYWKG8_9neuralnet6tensor10offloading11mlx_backend5testss_39mlx_backend_label_includes_runtime_mode
FN:2408,_RNvNtNtNtNtCs1xmhvdYWKG8_9neuralnet6tensor10offloading11mlx_backend5testss_44mlx_backend_pool_gap_and_relu_match_cpu_core
FN:2449,_RNvNtNtNtNtCs1xmhvdYWKG8_9neuralnet6tensor10offloading11mlx_backend5testss_53mlx_backend_feature_flag_reflects_build_configuration
FN:1085,_RNvNtNtNtCs1xmhvdYWKG8_9neuralnet6tensor10offloading11mlx_backend11mlx_backend
FN:1604,_RNvNtNtNtCs1xmhvdYWKG8_9neuralnet6tensor10offloading11mlx_backend14mlx_max_pool2d
FN:1501,_RNvNtNtNtCs1xmhvdYWKG8_9neuralnet6tensor10offloading11mlx_backend16mlx_conv2d_valid
FN:1638,_RNvNtNtNtCs1xmhvdYWKG8_9neuralnet6tensor10offloading11mlx_backend16mlx_relu_inplace
FN:1493,_RNvNtNtNtCs1xmhvdYWKG8_9neuralnet6tensor10offloading11mlx_backend17mlx_backend_label
FN:1480,_RNvNtNtNtCs1xmhvdYWKG8_9neuralnet6tensor10offloading11mlx_backend20mlx_backend_uses_gpu
FN:1089,_RNvNtNtNtCs1xmhvdYWKG8_9neuralnet6tensor10offloading11mlx_backend21mlx_backend_available
FN:1624,_RNvNtNtNtCs1xmhvdYWKG8_9neuralnet6tensor10offloading11mlx_backend25mlx_global_average_pool2d
FN:223,_RNvXs_NtNtNtCs1xmhvdYWKG8_9neuralnet6tensor10offloading11mlx_backendNtB4_16MlxTensorBackendNtNtB8_7backend13TensorBackend10max_pool2d
FN:212,_RNvXs_NtNtNtCs1xmhvdYWKG8_9neuralnet6tensor10offloading11mlx_backendNtB4_16MlxTensorBackendNtNtB8_7backend13TensorBackend12conv2d_valid
FN:238,_RNvXs_NtNtNtCs1xmhvdYWKG8_9neuralnet6tensor10offloading11mlx_backendNtB4_16MlxTensorBackendNtNtB8_7backend13TensorBackend12relu_inplace
FN:234,_RNvXs_NtNtNtCs1xmhvdYWKG8_9neuralnet6tensor10offloading11mlx_backendNtB4_16MlxTensorBackendNtNtB8_7backend13TensorBackend21global_average_pool2d
FN:204,_RNvXs_NtNtNtCs1xmhvdYWKG8_9neuralnet6tensor10offloading11mlx_backendNtB4_16MlxTensorBackendNtNtB8_7backend13TensorBackend4name
FNDA:0,_RNvMNtNtNtCs1xmhvdYWKG8_9neuralnet6tensor10offloading11mlx_backendNtB2_23MlxBackpropPathSnapshot23full_cpu_fallback_ratio
FNDA:0,_RNvMNtNtNtCs1xmhvdYWKG8_9neuralnet6tensor10offloading11mlx_backendNtB2_23MlxBackpropPathSnapshot25full_native_success_ratio
FNDA:0,_RNvMNtNtNtCs1xmhvdYWKG8_9neuralnet6tensor10offloading11mlx_backendNtB2_23MlxBackpropPathSnapshot27dw_native_realization_ratio
FNDA:0,_RNvMNtNtNtCs1xmhvdYWKG8_9neuralnet6tensor10offloading11mlx_backendNtB2_23MlxBackpropPathSnapshot31dinput_native_realization_ratio
FNDA:0,_RNvNtNtNtCs1xmhvdYWKG8_9neuralnet6tensor10offloading11mlx_backend23mlx_backprop_path_reset
FNDA:0,_RNvNtNtNtCs1xmhvdYWKG8_9neuralnet6tensor10offloading11mlx_backend26mlx_backprop_path_snapshot
FNDA:0,_RNvNtNtNtCs1xmhvdYWKG8_9neuralnet6tensor10offloading11mlx_backend30mlx_conv_blocks_to_feature_vec
FNDA:0,_RNvNtNtNtCs1xmhvdYWKG8_9neuralnet6tensor10offloading11mlx_backend30mlx_conv_relu_max_pool2d_valid
FNDA:0,_RNvNtNtNtCs1xmhvdYWKG8_9neuralnet6tensor10offloading11mlx_backend42mlx_conv_block_backward_gradients_fallback
FNDA:0,_RNvXs_NtNtNtCs1xmhvdYWKG8_9neuralnet6tensor10offloading11mlx_backendNtB4_16MlxTensorBackendNtNtB8_7backend13TensorBackend21training_capabilities
FNDA:0,_RNvXs_NtNtNtCs1xmhvdYWKG8_9neuralnet6tensor10offloading11mlx_backendNtB4_16MlxTensorBackendNtNtB8_7backend13TensorBackend26conv_blocks_to_feature_vec
FNDA:0,_RNvXs_NtNtNtCs1xmhvdYWKG8_9neuralnet6tensor10offloading11mlx_backendNtB4_16MlxTensorBackendNtNtB8_7backend13TensorBackend26conv_relu_max_pool2d_valid
FNDA:0,_RNvXs_NtNtNtCs1xmhvdYWKG8_9neuralnet6tensor10offloading11mlx_backendNtB4_16MlxTensorBackendNtNtB8_7backend13TensorBackend29conv_block_backward_gradients
FNDA:0,_RNCNvNtNtNtNtCs1xmhvdYWKG8_9neuralnet6tensor10offloading11mlx_backend5testss_33mlx_backend_conv_matches_cpu_core0Bb_
FNDA:0,_RNCNvNtNtNtNtCs1xmhvdYWKG8_9neuralnet6tensor10offloading11mlx_backend5testss_33mlx_backend_conv_matches_cpu_cores0_0Bb_
FNDA:0,_RNCNvNtNtNtNtCs1xmhvdYWKG8_9neuralnet6tensor10offloading11mlx_backend5testss_33mlx_backend_conv_matches_cpu_cores1_0Bb_
FNDA:0,_RNCNvNtNtNtNtCs1xmhvdYWKG8_9neuralnet6tensor10offloading11mlx_backend5testss_33mlx_backend_conv_matches_cpu_cores_0Bb_
FNDA:0,_RNCNvNtNtNtNtCs1xmhvdYWKG8_9neuralnet6tensor10offloading11mlx_backend5testss_44mlx_backend_pool_gap_and_relu_match_cpu_core0Bb_
FNDA:0,_RNCNvNtNtNtNtCs1xmhvdYWKG8_9neuralnet6tensor10offloading11mlx_backend5testss_44mlx_backend_pool_gap_and_relu_match_cpu_cores0_0Bb_
FNDA:0,_RNCNvNtNtNtNtCs1xmhvdYWKG8_9neuralnet6tensor10offloading11mlx_backend5testss_44mlx_backend_pool_gap_and_relu_match_cpu_cores1_0Bb_
FNDA:0,_RNCNvNtNtNtNtCs1xmhvdYWKG8_9neuralnet6tensor10offloading11mlx_backend5testss_44mlx_backend_pool_gap_and_relu_match_cpu_cores2_0Bb_
FNDA:0,_RNCNvNtNtNtNtCs1xmhvdYWKG8_9neuralnet6tensor10offloading11mlx_backend5testss_44mlx_backend_pool_gap_and_relu_match_cpu_cores_0Bb_
FNDA:1,_RNvNtNtNtNtCs1xmhvdYWKG8_9neuralnet6tensor10offloading11mlx_backend5testss_33mlx_backend_conv_matches_cpu_core
FNDA:1,_RNvNtNtNtNtCs1xmhvdYWKG8_9neuralnet6tensor10offloading11mlx_backend5testss_39mlx_backend_label_includes_runtime_mode
FNDA:1,_RNvNtNtNtNtCs1xmhvdYWKG8_9neuralnet6tensor10offloading11mlx_backend5testss_44mlx_backend_pool_gap_and_relu_match_cpu_core
FNDA:1,_RNvNtNtNtNtCs1xmhvdYWKG8_9neuralnet6tensor10offloading11mlx_backend5testss_53mlx_backend_feature_flag_reflects_build_configuration
FNDA:3,_RNvNtNtNtCs1xmhvdYWKG8_9neuralnet6tensor10offloading11mlx_backend11mlx_backend
FNDA:1,_RNvNtNtNtCs1xmhvdYWKG8_9neuralnet6tensor10offloading11mlx_backend14mlx_max_pool2d
FNDA:2,_RNvNtNtNtCs1xmhvdYWKG8_9neuralnet6tensor10offloading11mlx_backend16mlx_conv2d_valid
FNDA:1,_RNvNtNtNtCs1xmhvdYWKG8_9neuralnet6tensor10offloading11mlx_backend16mlx_relu_inplace
FNDA:1,_RNvNtNtNtCs1xmhvdYWKG8_9neuralnet6tensor10offloading11mlx_backend17mlx_backend_label
FNDA:1,_RNvNtNtNtCs1xmhvdYWKG8_9neuralnet6tensor10offloading11mlx_backend20mlx_backend_uses_gpu
FNDA:2,_RNvNtNtNtCs1xmhvdYWKG8_9neuralnet6tensor10offloading11mlx_backend21mlx_backend_available
FNDA:1,_RNvNtNtNtCs1xmhvdYWKG8_9neuralnet6tensor10offloading11mlx_backend25mlx_global_average_pool2d
FNDA:1,_RNvXs_NtNtNtCs1xmhvdYWKG8_9neuralnet6tensor10offloading11mlx_backendNtB4_16MlxTensorBackendNtNtB8_7backend13TensorBackend10max_pool2d
FNDA:2,_RNvXs_NtNtNtCs1xmhvdYWKG8_9neuralnet6tensor10offloading11mlx_backendNtB4_16MlxTensorBackendNtNtB8_7backend13TensorBackend12conv2d_valid
FNDA:1,_RNvXs_NtNtNtCs1xmhvdYWKG8_9neuralnet6tensor10offloading11mlx_backendNtB4_16MlxTensorBackendNtNtB8_7backend13TensorBackend12relu_inplace
FNDA:1,_RNvXs_NtNtNtCs1xmhvdYWKG8_9neuralnet6tensor10offloading11mlx_backendNtB4_16MlxTensorBackendNtNtB8_7backend13TensorBackend21global_average_pool2d
FNDA:1,_RNvXs_NtNtNtCs1xmhvdYWKG8_9neuralnet6tensor10offloading11mlx_backendNtB4_16MlxTensorBackendNtNtB8_7backend13TensorBackend4name
FNF:39
FNH:17
DA:66,0
DA:67,0
DA:68,0
DA:70,0
DA:72,0
DA:74,0
DA:75,0
DA:76,0
DA:78,0
DA:80,0
DA:82,0
DA:83,0
DA:84,0
DA:86,0
DA:88,0
DA:90,0
DA:91,0
DA:92,0
DA:94,0
DA:96,0
DA:130,0
DA:166,0
DA:168,0
DA:170,0
DA:201,0
DA:204,1
DA:205,1
DA:206,1
DA:208,0
DA:209,0
DA:210,0
DA:212,2
DA:213,2
DA:214,2
DA:215,2
DA:216,2
DA:217,2
DA:218,2
DA:219,2
DA:220,2
DA:221,2
DA:223,1
DA:224,1
DA:225,1
DA:226,1
DA:227,1
DA:228,1
DA:229,1
DA:230,1
DA:231,1
DA:232,1
DA:234,1
DA:235,1
DA:236,1
DA:238,1
DA:239,1
DA:240,1
DA:242,0
DA:243,0
DA:244,0
DA:245,0
DA:246,0
DA:247,0
DA:248,0
DA:249,0
DA:250,0
DA:251,0
DA:252,0
DA:253,0
DA:254,0
DA:255,0
DA:256,0
DA:257,0
DA:258,0
DA:259,0
DA:260,0
DA:261,0
DA:262,0
DA:263,0
DA:265,0
DA:267,0
DA:268,0
DA:269,0
DA:270,0
DA:271,0
DA:272,0
DA:273,0
DA:274,0
DA:275,0
DA:276,0
DA:277,0
DA:278,0
DA:279,0
DA:280,0
DA:281,0
DA:282,0
DA:283,0
DA:284,0
DA:285,0
DA:286,0
DA:287,0
DA:288,0
DA:289,0
DA:290,0
DA:292,0
DA:294,0
DA:295,0
DA:296,0
DA:297,0
DA:298,0
DA:299,0
DA:300,0
DA:301,0
DA:302,0
DA:303,0
DA:304,0
DA:305,0
DA:306,0
DA:307,0
DA:308,0
DA:309,0
DA:310,0
DA:311,0
DA:313,0
DA:318,0
DA:319,0
DA:320,0
DA:321,0
DA:322,0
DA:323,0
DA:324,0
DA:325,0
DA:326,0
DA:390,0
DA:391,0
DA:392,0
DA:393,0
DA:394,0
DA:395,0
DA:396,0
DA:397,0
DA:400,0
DA:1085,3
DA:1086,3
DA:1087,3
DA:1089,2
DA:1097,2
DA:1099,2
DA:1480,1
DA:1489,1
DA:1491,1
DA:1493,1
DA:1494,1
DA:1495,0
DA:1497,1
DA:1499,1
DA:1501,2
DA:1502,2
DA:1503,2
DA:1504,2
DA:1505,2
DA:1506,2
DA:1507,2
DA:1515,2
DA:1517,2
DA:1520,0
DA:1521,0
DA:1522,0
DA:1523,0
DA:1524,0
DA:1525,0
DA:1526,0
DA:1527,0
DA:1528,0
DA:1529,0
DA:1530,0
DA:1548,0
DA:1549,0
DA:1550,0
DA:1552,0
DA:1555,0
DA:1556,0
DA:1557,0
DA:1558,0
DA:1559,0
DA:1560,0
DA:1561,0
DA:1562,0
DA:1563,0
DA:1564,0
DA:1565,0
DA:1566,0
DA:1586,0
DA:1587,0
DA:1588,0
DA:1589,0
DA:1591,0
DA:1592,0
DA:1593,0
DA:1594,0
DA:1596,0
DA:1598,0
DA:1599,0
DA:1602,0
DA:1604,1
DA:1605,1
DA:1606,1
DA:1607,1
DA:1608,1
DA:1609,1
DA:1610,1
DA:1619,1
DA:1622,1
DA:1624,1
DA:1633,1
DA:1636,1
DA:1638,1
DA:1648,1
DA:1650,1
DA:2377,1
DA:2378,1
DA:2380,1
DA:2385,1
DA:2391,1
DA:2393,1
DA:2394,1
DA:2396,1
DA:2397,1
DA:2398,1
DA:2400,1
DA:2401,1
DA:2402,1
DA:2404,1
DA:2405,1
DA:2408,1
DA:2409,1
DA:2411,1
DA:2416,1
DA:2423,1
DA:2425,1
DA:2426,1
DA:2427,1
DA:2428,1
DA:2429,1
DA:2430,1
DA:2431,1
DA:2433,1
DA:2434,1
DA:2435,1
DA:2436,1
DA:2437,1
DA:2438,1
DA:2439,1
DA:2441,1
DA:2442,1
DA:2443,1
DA:2444,1
DA:2445,1
DA:2446,1
DA:2449,1
DA:2450,1
DA:2451,1
DA:2454,1
DA:2455,1
DA:2456,1
DA:2457,1
BRF:0
BRH:0
LF:275
LH:113
end_of_record
SF:/Users/samcolak/Source Code/rust/neuron_server/library/neuralnet/src/tensor/parameters.rs
FN:296,_RNvMs3_NtNtCs1xmhvdYWKG8_9neuralnet6tensor10parametersNtB5_18ConvParameterState11kernels_mut
FN:429,_RNvMs3_NtNtCs1xmhvdYWKG8_9neuralnet6tensor10parametersNtB5_18ConvParameterState21accumulated_bias_grad
FN:421,_RNvMs3_NtNtCs1xmhvdYWKG8_9neuralnet6tensor10parametersNtB5_18ConvParameterState23accumulated_kernel_grad
FN:437,_RNvMs3_NtNtCs1xmhvdYWKG8_9neuralnet6tensor10parametersNtB5_18ConvParameterState26accumulated_gradient_views
FN:304,_RNvMs3_NtNtCs1xmhvdYWKG8_9neuralnet6tensor10parametersNtB5_18ConvParameterState8bias_mut
FN:178,_RNvXs1_NtNtCs1xmhvdYWKG8_9neuralnet6tensor10parametersNtB5_29MlxMirroredConvParameterStateNtNtCse2qo0L34Llq_4core3cmp9PartialEq2eq
FN:553,_RNvNtNtNtCs1xmhvdYWKG8_9neuralnet6tensor10parameters5testss_54conv_parameter_state_defaults_to_host_backed_residency
FN:560,_RNvNtNtNtCs1xmhvdYWKG8_9neuralnet6tensor10parameters5testss_55conv_parameter_state_can_represent_mlx_mirrored_storage
FN:36,_RNvMNtNtCs1xmhvdYWKG8_9neuralnet6tensor10parametersNtB2_22HostConvParameterState3new
FN:191,_RNvMs2_NtNtCs1xmhvdYWKG8_9neuralnet6tensor10parametersNtB5_30CudaMirroredConvParameterState3new
FN:254,_RNvMs3_NtNtCs1xmhvdYWKG8_9neuralnet6tensor10parametersNtB5_18ConvParameterState12backend_kind
FN:246,_RNvMs3_NtNtCs1xmhvdYWKG8_9neuralnet6tensor10parametersNtB5_18ConvParameterState15new_host_backed
FN:455,_RNvMs3_NtNtCs1xmhvdYWKG8_9neuralnet6tensor10parametersNtB5_18ConvParameterState16apply_sgd_update
FN:230,_RNvMs3_NtNtCs1xmhvdYWKG8_9neuralnet6tensor10parametersNtB5_18ConvParameterState16new_mlx_mirrored
FN:238,_RNvMs3_NtNtCs1xmhvdYWKG8_9neuralnet6tensor10parametersNtB5_18ConvParameterState17new_cuda_mirrored
FN:312,_RNvMs3_NtNtCs1xmhvdYWKG8_9neuralnet6tensor10parametersNtB5_18ConvParameterState19parameter_views_mut
FN:491,_RNvMs3_NtNtCs1xmhvdYWKG8_9neuralnet6tensor10parametersNtB5_18ConvParameterState19sync_backend_mirror
FN:351,_RNvMs3_NtNtCs1xmhvdYWKG8_9neuralnet6tensor10parametersNtB5_18ConvParameterState20accumulate_gradients
FN:217,_RNvMs3_NtNtCs1xmhvdYWKG8_9neuralnet6tensor10parametersNtB5_18ConvParameterState22new_for_active_backend
FN:503,_RNvMs3_NtNtCs1xmhvdYWKG8_9neuralnet6tensor10parametersNtB5_18ConvParameterState25refresh_host_from_backend
FN:325,_RNvMs3_NtNtCs1xmhvdYWKG8_9neuralnet6tensor10parametersNtB5_18ConvParameterState27reset_accumulated_gradients
FN:213,_RNvMs3_NtNtCs1xmhvdYWKG8_9neuralnet6tensor10parametersNtB5_18ConvParameterState3new
FN:288,_RNvMs3_NtNtCs1xmhvdYWKG8_9neuralnet6tensor10parametersNtB5_18ConvParameterState4bias
FN:280,_RNvMs3_NtNtCs1xmhvdYWKG8_9neuralnet6tensor10parametersNtB5_18ConvParameterState7kernels
FN:447,_RNvMs3_NtNtCs1xmhvdYWKG8_9neuralnet6tensor10parametersNtB5_18ConvParameterState8snapshot
FN:276,_RNvMs3_NtNtCs1xmhvdYWKG8_9neuralnet6tensor10parametersNtB5_18ConvParameterState9residency
FN:121,_RNvMs_NtNtCs1xmhvdYWKG8_9neuralnet6tensor10parametersNtB4_29MlxMirroredConvParameterState16apply_sgd_update
FN:92,_RNvMs_NtNtCs1xmhvdYWKG8_9neuralnet6tensor10parametersNtB4_29MlxMirroredConvParameterState21sync_device_from_host
FN:103,_RNvMs_NtNtCs1xmhvdYWKG8_9neuralnet6tensor10parametersNtB4_29MlxMirroredConvParameterState21sync_host_from_device
FN:63,_RNvMs_NtNtCs1xmhvdYWKG8_9neuralnet6tensor10parametersNtB4_29MlxMirroredConvParameterState3new
FN:516,_RNvNtNtCs1xmhvdYWKG8_9neuralnet6tensor10parameters23apply_sgd_update_single
FN:172,_RNvXs0_NtNtCs1xmhvdYWKG8_9neuralnet6tensor10parametersNtB5_29MlxMirroredConvParameterStateNtNtCse2qo0L34Llq_4core5clone5Clone5clone
FNDA:0,_RNvMs3_NtNtCs1xmhvdYWKG8_9neuralnet6tensor10parametersNtB5_18ConvParameterState11kernels_mut
FNDA:0,_RNvMs3_NtNtCs1xmhvdYWKG8_9neuralnet6tensor10parametersNtB5_18ConvParameterState21accumulated_bias_grad
FNDA:0,_RNvMs3_NtNtCs1xmhvdYWKG8_9neuralnet6tensor10parametersNtB5_18ConvParameterState23accumulated_kernel_grad
FNDA:0,_RNvMs3_NtNtCs1xmhvdYWKG8_9neuralnet6tensor10parametersNtB5_18ConvParameterState26accumulated_gradient_views
FNDA:0,_RNvMs3_NtNtCs1xmhvdYWKG8_9neuralnet6tensor10parametersNtB5_18ConvParameterState8bias_mut
FNDA:0,_RNvXs1_NtNtCs1xmhvdYWKG8_9neuralnet6tensor10parametersNtB5_29MlxMirroredConvParameterStateNtNtCse2qo0L34Llq_4core3cmp9PartialEq2eq
FNDA:1,_RNvNtNtNtCs1xmhvdYWKG8_9neuralnet6tensor10parameters5testss_54conv_parameter_state_defaults_to_host_backed_residency
FNDA:1,_RNvNtNtNtCs1xmhvdYWKG8_9neuralnet6tensor10parameters5testss_55conv_parameter_state_can_represent_mlx_mirrored_storage
FNDA:24,_RNvMNtNtCs1xmhvdYWKG8_9neuralnet6tensor10parametersNtB2_22HostConvParameterState3new
FNDA:0,_RNvMs2_NtNtCs1xmhvdYWKG8_9neuralnet6tensor10parametersNtB5_30CudaMirroredConvParameterState3new
FNDA:2,_RNvMs3_NtNtCs1xmhvdYWKG8_9neuralnet6tensor10parametersNtB5_18ConvParameterState12backend_kind
FNDA:23,_RNvMs3_NtNtCs1xmhvdYWKG8_9neuralnet6tensor10parametersNtB5_18ConvParameterState15new_host_backed
FNDA:62,_RNvMs3_NtNtCs1xmhvdYWKG8_9neuralnet6tensor10parametersNtB5_18ConvParameterState16apply_sgd_update
FNDA:1,_RNvMs3_NtNtCs1xmhvdYWKG8_9neuralnet6tensor10parametersNtB5_18ConvParameterState16new_mlx_mirrored
FNDA:0,_RNvMs3_NtNtCs1xmhvdYWKG8_9neuralnet6tensor10parametersNtB5_18ConvParameterState17new_cuda_mirrored
FNDA:1153,_RNvMs3_NtNtCs1xmhvdYWKG8_9neuralnet6tensor10parametersNtB5_18ConvParameterState19parameter_views_mut
FNDA:1153,_RNvMs3_NtNtCs1xmhvdYWKG8_9neuralnet6tensor10parametersNtB5_18ConvParameterState19sync_backend_mirror
FNDA:62,_RNvMs3_NtNtCs1xmhvdYWKG8_9neuralnet6tensor10parametersNtB5_18ConvParameterState20accumulate_gradients
FNDA:22,_RNvMs3_NtNtCs1xmhvdYWKG8_9neuralnet6tensor10parametersNtB5_18ConvParameterState22new_for_active_backend
FNDA:2,_RNvMs3_NtNtCs1xmhvdYWKG8_9neuralnet6tensor10parametersNtB5_18ConvParameterState25refresh_host_from_backend
FNDA:62,_RNvMs3_NtNtCs1xmhvdYWKG8_9neuralnet6tensor10parametersNtB5_18ConvParameterState27reset_accumulated_gradients
FNDA:22,_RNvMs3_NtNtCs1xmhvdYWKG8_9neuralnet6tensor10parametersNtB5_18ConvParameterState3new
FNDA:1194,_RNvMs3_NtNtCs1xmhvdYWKG8_9neuralnet6tensor10parametersNtB5_18ConvParameterState4bias
FNDA:1194,_RNvMs3_NtNtCs1xmhvdYWKG8_9neuralnet6tensor10parametersNtB5_18ConvParameterState7kernels
FNDA:4,_RNvMs3_NtNtCs1xmhvdYWKG8_9neuralnet6tensor10parametersNtB5_18ConvParameterState8snapshot
FNDA:2,_RNvMs3_NtNtCs1xmhvdYWKG8_9neuralnet6tensor10parametersNtB5_18ConvParameterState9residency
FNDA:0,_RNvMs_NtNtCs1xmhvdYWKG8_9neuralnet6tensor10parametersNtB4_29MlxMirroredConvParameterState16apply_sgd_update
FNDA:0,_RNvMs_NtNtCs1xmhvdYWKG8_9neuralnet6tensor10parametersNtB4_29MlxMirroredConvParameterState21sync_device_from_host
FNDA:0,_RNvMs_NtNtCs1xmhvdYWKG8_9neuralnet6tensor10parametersNtB4_29MlxMirroredConvParameterState21sync_host_from_device
FNDA:1,_RNvMs_NtNtCs1xmhvdYWKG8_9neuralnet6tensor10parametersNtB4_29MlxMirroredConvParameterState3new
FNDA:62,_RNvNtNtCs1xmhvdYWKG8_9neuralnet6tensor10parameters23apply_sgd_update_single
FNDA:0,_RNvXs0_NtNtCs1xmhvdYWKG8_9neuralnet6tensor10parametersNtB5_29MlxMirroredConvParameterStateNtNtCse2qo0L34Llq_4core5clone5Clone5clone
FNF:32
FNH:20
DA:36,24
DA:37,24
DA:38,24
DA:39,24
DA:40,24
DA:41,24
DA:42,24
DA:43,24
DA:44,24
DA:63,1
DA:64,1
DA:77,1
DA:78,1
DA:79,1
DA:80,1
DA:81,1
DA:82,1
DA:83,1
DA:84,1
DA:85,1
DA:86,1
DA:87,1
DA:88,1
DA:89,1
DA:90,1
DA:92,0
DA:100,0
DA:101,0
DA:103,0
DA:118,0
DA:119,0
DA:121,0
DA:122,0
DA:123,0
DA:124,0
DA:125,0
DA:126,0
DA:127,0
DA:128,0
DA:129,0
DA:163,0
DA:164,0
DA:165,0
DA:166,0
DA:167,0
DA:168,0
DA:172,0
DA:173,0
DA:174,0
DA:178,0
DA:179,0
DA:180,0
DA:181,0
DA:182,0
DA:191,0
DA:192,0
DA:193,0
DA:194,0
DA:195,0
DA:213,22
DA:214,22
DA:215,22
DA:217,22
DA:218,22
DA:219,22
DA:220,0
DA:221,22
DA:223,22
DA:224,22
DA:225,22
DA:226,22
DA:228,22
DA:230,1
DA:231,1
DA:232,1
DA:233,1
DA:234,1
DA:235,1
DA:236,1
DA:238,0
DA:239,0
DA:240,0
DA:241,0
DA:242,0
DA:243,0
DA:244,0
DA:246,23
DA:247,23
DA:248,23
DA:249,23
DA:250,23
DA:251,23
DA:252,23
DA:254,2
DA:255,2
DA:256,2
DA:276,2
DA:277,2
DA:278,2
DA:280,1194
DA:281,1194
DA:282,1194
DA:283,0
DA:284,0
DA:286,1194
DA:288,1194
DA:289,1194
DA:290,1194
DA:291,0
DA:292,0
DA:294,1194
DA:296,0
DA:297,0
DA:298,0
DA:299,0
DA:300,0
DA:302,0
DA:304,0
DA:305,0
DA:306,0
DA:307,0
DA:308,0
DA:310,0
DA:312,1153
DA:313,1153
DA:314,1153
DA:315,0
DA:316,0
DA:317,0
DA:319,0
DA:320,0
DA:323,1153
DA:325,62
DA:326,62
DA:327,62
DA:328,62
DA:329,62
DA:330,62
DA:331,0
DA:332,0
DA:333,0
DA:334,0
DA:335,0
DA:336,0
DA:337,0
DA:338,0
DA:339,0
DA:340,0
DA:341,0
DA:342,0
DA:343,0
DA:344,0
DA:345,0
DA:346,0
DA:347,0
DA:349,62
DA:351,62
DA:352,62
DA:353,62
DA:354,62
DA:355,62
DA:356,62
DA:357,62
DA:358,62
DA:360,62
DA:361,0
DA:362,0
DA:363,0
DA:364,0
DA:365,62
DA:367,124
DA:368,124
DA:369,124
DA:371,0
DA:372,0
DA:374,0
DA:375,0
DA:376,0
DA:377,0
DA:378,0
DA:379,0
DA:381,0
DA:382,0
DA:383,0
DA:402,0
DA:403,0
DA:405,0
DA:406,0
DA:407,0
DA:408,0
DA:409,0
DA:410,0
DA:412,0
DA:413,0
DA:414,0
DA:418,62
DA:419,62
DA:421,0
DA:422,0
DA:423,0
DA:424,0
DA:425,0
DA:427,0
DA:429,0
DA:430,0
DA:431,0
DA:432,0
DA:433,0
DA:435,0
DA:437,0
DA:438,0
DA:439,0
DA:440,0
DA:442,0
DA:443,0
DA:445,0
DA:447,4
DA:448,4
DA:449,4
DA:450,0
DA:451,0
DA:453,4
DA:455,62
DA:456,62
DA:457,62
DA:458,62
DA:459,62
DA:460,62
DA:461,62
DA:462,62
DA:463,62
DA:464,62
DA:465,62
DA:466,62
DA:467,62
DA:468,62
DA:469,0
DA:470,62
DA:471,62
DA:472,62
DA:474,0
DA:475,0
DA:476,0
DA:477,0
DA:478,0
DA:479,0
DA:480,0
DA:481,0
DA:482,0
DA:483,0
DA:484,0
DA:485,0
DA:486,0
DA:489,62
DA:491,1153
DA:492,1153
DA:493,1153
DA:494,0
DA:495,0
DA:496,0
DA:497,0
DA:499,0
DA:501,1153
DA:503,2
DA:504,2
DA:505,2
DA:506,0
DA:507,0
DA:508,0
DA:509,0
DA:511,0
DA:513,2
DA:516,62
DA:517,62
DA:518,62
DA:519,62
DA:520,62
DA:521,62
DA:522,62
DA:523,62
DA:524,62
DA:525,0
DA:526,0
DA:527,0
DA:528,0
DA:529,62
DA:531,62
DA:532,0
DA:533,0
DA:534,0
DA:535,0
DA:536,62
DA:538,62
DA:539,1116
DA:540,1116
DA:541,1116
DA:542,124
DA:543,124
DA:544,124
DA:545,62
DA:546,62
DA:553,1
DA:554,1
DA:555,1
DA:556,1
DA:557,1
DA:560,1
DA:561,1
DA:562,1
DA:563,1
DA:564,1
BRF:0
BRH:0
LF:311
LH:152
end_of_record
SF:/Users/samcolak/Source Code/rust/neuron_server/library/neuralnet/src/tensor/tensor4d.rs
FN:32,_RNvXNtNtCs1xmhvdYWKG8_9neuralnet6tensor8tensor4dNtB2_11TensorErrorNtNtCse2qo0L34Llq_4core3fmt7Display3fmt
FN:557,_RNCNvNtNtNtCs1xmhvdYWKG8_9neuralnet6tensor8tensor4d5testss_25tensor4d_map_and_add_work0B9_
FN:561,_RNCNvNtNtNtCs1xmhvdYWKG8_9neuralnet6tensor8tensor4d5testss_25tensor4d_map_and_add_works0_0B9_
FN:559,_RNCNvNtNtNtCs1xmhvdYWKG8_9neuralnet6tensor8tensor4d5testss_25tensor4d_map_and_add_works_0B9_
FN:619,_RNCNvNtNtNtCs1xmhvdYWKG8_9neuralnet6tensor8tensor4d5testss_42tensor4d_max_pool2d_computes_window_maxima0B9_
FN:623,_RNCNvNtNtNtCs1xmhvdYWKG8_9neuralnet6tensor8tensor4d5testss_42tensor4d_max_pool2d_computes_window_maximas_0B9_
FN:645,_RNCNvNtNtNtCs1xmhvdYWKG8_9neuralnet6tensor8tensor4d5testss_44tensor4d_relu_inplace_clamps_negative_values0B9_
FN:580,_RNCNvNtNtNtCs1xmhvdYWKG8_9neuralnet6tensor8tensor4d5testss_45tensor4d_conv2d_valid_applies_kernel_and_bias0B9_
FN:587,_RNCNvNtNtNtCs1xmhvdYWKG8_9neuralnet6tensor8tensor4d5testss_45tensor4d_conv2d_valid_applies_kernel_and_biass0_0B9_
FN:583,_RNCNvNtNtNtCs1xmhvdYWKG8_9neuralnet6tensor8tensor4d5testss_45tensor4d_conv2d_valid_applies_kernel_and_biass_0B9_
FN:711,_RNCNvNtNtNtCs1xmhvdYWKG8_9neuralnet6tensor8tensor4d5testss_46tensor4d_backend_wrappers_match_cpu_operations0B9_
FN:717,_RNCNvNtNtNtCs1xmhvdYWKG8_9neuralnet6tensor8tensor4d5testss_46tensor4d_backend_wrappers_match_cpu_operationss0_0B9_
FN:720,_RNCNvNtNtNtCs1xmhvdYWKG8_9neuralnet6tensor8tensor4d5testss_46tensor4d_backend_wrappers_match_cpu_operationss1_0B9_
FN:723,_RNCNvNtNtNtCs1xmhvdYWKG8_9neuralnet6tensor8tensor4d5testss_46tensor4d_backend_wrappers_match_cpu_operationss2_0B9_
FN:730,_RNCNvNtNtNtCs1xmhvdYWKG8_9neuralnet6tensor8tensor4d5testss_46tensor4d_backend_wrappers_match_cpu_operationss3_0B9_
FN:713,_RNCNvNtNtNtCs1xmhvdYWKG8_9neuralnet6tensor8tensor4d5testss_46tensor4d_backend_wrappers_match_cpu_operationss_0B9_
FN:664,_RNCNvNtNtNtCs1xmhvdYWKG8_9neuralnet6tensor8tensor4d5testss_57tensor4d_global_average_pool2d_reduces_spatial_dimensions0B9_
FN:668,_RNCNvNtNtNtCs1xmhvdYWKG8_9neuralnet6tensor8tensor4d5testss_57tensor4d_global_average_pool2d_reduces_spatial_dimensionss_0B9_
FN:687,_RNCNvNtNtNtCs1xmhvdYWKG8_9neuralnet6tensor8tensor4d5testss_58tensor4d_flatten_batch_features_returns_per_sample_vectors0B9_
FN:555,_RNvNtNtNtCs1xmhvdYWKG8_9neuralnet6tensor8tensor4d5testss_25tensor4d_map_and_add_work
FN:526,_RNvNtNtNtCs1xmhvdYWKG8_9neuralnet6tensor8tensor4d5testss_27tensor4d_round_trip_get_set
FN:534,_RNvNtNtNtCs1xmhvdYWKG8_9neuralnet6tensor8tensor4d5testss_33tensor4d_from_vec_validates_shape
FN:546,_RNvNtNtNtCs1xmhvdYWKG8_9neuralnet6tensor8tensor4d5testss_40tensor4d_add_inplace_requires_same_shape
FN:594,_RNvNtNtNtCs1xmhvdYWKG8_9neuralnet6tensor8tensor4d5testss_41tensor4d_conv2d_valid_rejects_zero_stride
FN:606,_RNvNtNtNtCs1xmhvdYWKG8_9neuralnet6tensor8tensor4d5testss_42tensor4d_max_pool2d_computes_window_maxima
FN:630,_RNvNtNtNtCs1xmhvdYWKG8_9neuralnet6tensor8tensor4d5testss_42tensor4d_max_pool2d_rejects_invalid_window
FN:643,_RNvNtNtNtCs1xmhvdYWKG8_9neuralnet6tensor8tensor4d5testss_44tensor4d_relu_inplace_clamps_negative_values
FN:568,_RNvNtNtNtCs1xmhvdYWKG8_9neuralnet6tensor8tensor4d5testss_45tensor4d_conv2d_valid_applies_kernel_and_bias
FN:697,_RNvNtNtNtCs1xmhvdYWKG8_9neuralnet6tensor8tensor4d5testss_46tensor4d_backend_wrappers_match_cpu_operations
FN:653,_RNvNtNtNtCs1xmhvdYWKG8_9neuralnet6tensor8tensor4d5testss_57tensor4d_global_average_pool2d_reduces_spatial_dimensions
FN:676,_RNvNtNtNtCs1xmhvdYWKG8_9neuralnet6tensor8tensor4d5testss_58tensor4d_flatten_batch_features_returns_per_sample_vectors
FN:384,_RNvMs0_NtNtCs1xmhvdYWKG8_9neuralnet6tensor8tensor4dNtB5_8Tensor4D10max_pool2d
FN:200,_RNvMs0_NtNtCs1xmhvdYWKG8_9neuralnet6tensor8tensor4dNtB5_8Tensor4D11add_inplace
FN:127,_RNvMs0_NtNtCs1xmhvdYWKG8_9neuralnet6tensor8tensor4dNtB5_8Tensor4D12as_mut_slice
FN:215,_RNvMs0_NtNtCs1xmhvdYWKG8_9neuralnet6tensor8tensor4dNtB5_8Tensor4D12conv2d_valid
FN:192,_RNvMs0_NtNtCs1xmhvdYWKG8_9neuralnet6tensor8tensor4dNtB5_8Tensor4D12relu_inplace
FN:394,_RNvMs0_NtNtCs1xmhvdYWKG8_9neuralnet6tensor8tensor4dNtB5_8Tensor4D14max_pool2d_cpu
FN:225,_RNvMs0_NtNtCs1xmhvdYWKG8_9neuralnet6tensor8tensor4dNtB5_8Tensor4D16conv2d_valid_cpu
FN:196,_RNvMs0_NtNtCs1xmhvdYWKG8_9neuralnet6tensor8tensor4dNtB5_8Tensor4D16relu_inplace_cpu
FN:150,_RNvMs0_NtNtCs1xmhvdYWKG8_9neuralnet6tensor8tensor4dNtB5_8Tensor4D21first_sample_features
FN:471,_RNvMs0_NtNtCs1xmhvdYWKG8_9neuralnet6tensor8tensor4dNtB5_8Tensor4D21global_average_pool2d
FN:131,_RNvMs0_NtNtCs1xmhvdYWKG8_9neuralnet6tensor8tensor4dNtB5_8Tensor4D22flatten_batch_features
FN:475,_RNvMs0_NtNtCs1xmhvdYWKG8_9neuralnet6tensor8tensor4dNtB5_8Tensor4D25global_average_pool2d_cpu
FN:334,_RNvMs0_NtNtCs1xmhvdYWKG8_9neuralnet6tensor8tensor4dNtB5_8Tensor4D26conv_relu_max_pool2d_valid
FN:161,_RNvMs0_NtNtCs1xmhvdYWKG8_9neuralnet6tensor8tensor4dNtB5_8Tensor4D3get
FN:115,_RNvMs0_NtNtCs1xmhvdYWKG8_9neuralnet6tensor8tensor4dNtB5_8Tensor4D3len
FN:73,_RNvMs0_NtNtCs1xmhvdYWKG8_9neuralnet6tensor8tensor4dNtB5_8Tensor4D3new
FN:166,_RNvMs0_NtNtCs1xmhvdYWKG8_9neuralnet6tensor8tensor4dNtB5_8Tensor4D3set
FN:179,_RNvMs0_NtNtCs1xmhvdYWKG8_9neuralnet6tensor8tensor4dNtB5_8Tensor4D4fill
FN:111,_RNvMs0_NtNtCs1xmhvdYWKG8_9neuralnet6tensor8tensor4dNtB5_8Tensor4D5shape
FN:84,_RNvMs0_NtNtCs1xmhvdYWKG8_9neuralnet6tensor8tensor4dNtB5_8Tensor4D5zeros
FN:511,_RNvMs0_NtNtCs1xmhvdYWKG8_9neuralnet6tensor8tensor4dNtB5_8Tensor4D6offset
FN:123,_RNvMs0_NtNtCs1xmhvdYWKG8_9neuralnet6tensor8tensor4dNtB5_8Tensor4D8as_slice
FN:88,_RNvMs0_NtNtCs1xmhvdYWKG8_9neuralnet6tensor8tensor4dNtB5_8Tensor4D8from_vec
FN:119,_RNvMs0_NtNtCs1xmhvdYWKG8_9neuralnet6tensor8tensor4dNtB5_8Tensor4D8is_empty
FN:183,_RINvMs0_NtNtCs1xmhvdYWKG8_9neuralnet6tensor8tensor4dNtB6_8Tensor4D11map_inplaceNCNvB2_16relu_inplace_cpu0EBa_
FN:183,_RINvMs0_NtNtCs1xmhvdYWKG8_9neuralnet6tensor8tensor4dNtB6_8Tensor4D11map_inplaceNCNvNtB6_5testss_25tensor4d_map_and_add_works0_0EBa_
FN:460,_RINvMs0_NtNtCs1xmhvdYWKG8_9neuralnet6tensor8tensor4dNtB6_8Tensor4D23max_pool2d_with_backendDNtNtB8_7backend13TensorBackendEL_EBa_
FN:460,_RINvMs0_NtNtCs1xmhvdYWKG8_9neuralnet6tensor8tensor4dNtB6_8Tensor4D23max_pool2d_with_backendNtNtNtB8_10offloading11cpu_backend16CpuTensorBackendEBa_
FN:322,_RINvMs0_NtNtCs1xmhvdYWKG8_9neuralnet6tensor8tensor4dNtB6_8Tensor4D25conv2d_valid_with_backendDNtNtB8_7backend13TensorBackendEL_EBa_
FN:322,_RINvMs0_NtNtCs1xmhvdYWKG8_9neuralnet6tensor8tensor4dNtB6_8Tensor4D25conv2d_valid_with_backendNtNtNtB8_10offloading11cpu_backend16CpuTensorBackendEBa_
FN:507,_RINvMs0_NtNtCs1xmhvdYWKG8_9neuralnet6tensor8tensor4dNtB6_8Tensor4D25relu_inplace_with_backendDNtNtB8_7backend13TensorBackendEL_EBa_
FN:507,_RINvMs0_NtNtCs1xmhvdYWKG8_9neuralnet6tensor8tensor4dNtB6_8Tensor4D25relu_inplace_with_backendNtNtNtB8_10offloading11cpu_backend16CpuTensorBackendEBa_
FN:500,_RINvMs0_NtNtCs1xmhvdYWKG8_9neuralnet6tensor8tensor4dNtB6_8Tensor4D34global_average_pool2d_with_backendDNtNtB8_7backend13TensorBackendEL_EBa_
FN:500,_RINvMs0_NtNtCs1xmhvdYWKG8_9neuralnet6tensor8tensor4dNtB6_8Tensor4D34global_average_pool2d_with_backendNtNtNtB8_10offloading11cpu_backend16CpuTensorBackendEBa_
FN:500,_RINvMs0_NtNtCs1xmhvdYWKG8_9neuralnet6tensor8tensor4dNtB6_8Tensor4D34global_average_pool2d_with_backendNtNtNtB8_10offloading11mlx_backend16MlxTensorBackendEBa_
FN:359,_RINvMs0_NtNtCs1xmhvdYWKG8_9neuralnet6tensor8tensor4dNtB6_8Tensor4D39conv_relu_max_pool2d_valid_with_backendDNtNtB8_7backend13TensorBackendEL_EBa_
FN:197,_RNCNvMs0_NtNtCs1xmhvdYWKG8_9neuralnet6tensor8tensor4dNtB7_8Tensor4D16relu_inplace_cpu0Bb_
FN:143,_RNCNvMs0_NtNtCs1xmhvdYWKG8_9neuralnet6tensor8tensor4dNtB7_8Tensor4D22flatten_batch_features0Bb_
FN:97,_RNCNvMs0_NtNtCs1xmhvdYWKG8_9neuralnet6tensor8tensor4dNtB7_8Tensor4D8from_vec0Bb_
FN:98,_RNCNvMs0_NtNtCs1xmhvdYWKG8_9neuralnet6tensor8tensor4dNtB7_8Tensor4D8from_vecs_0Bb_
FNDA:0,_RNvXNtNtCs1xmhvdYWKG8_9neuralnet6tensor8tensor4dNtB2_11TensorErrorNtNtCse2qo0L34Llq_4core3fmt7Display3fmt
FNDA:0,_RNCNvNtNtNtCs1xmhvdYWKG8_9neuralnet6tensor8tensor4d5testss_25tensor4d_map_and_add_work0B9_
FNDA:4,_RNCNvNtNtNtCs1xmhvdYWKG8_9neuralnet6tensor8tensor4d5testss_25tensor4d_map_and_add_works0_0B9_
FNDA:0,_RNCNvNtNtNtCs1xmhvdYWKG8_9neuralnet6tensor8tensor4d5testss_25tensor4d_map_and_add_works_0B9_
FNDA:0,_RNCNvNtNtNtCs1xmhvdYWKG8_9neuralnet6tensor8tensor4d5testss_42tensor4d_max_pool2d_computes_window_maxima0B9_
FNDA:0,_RNCNvNtNtNtCs1xmhvdYWKG8_9neuralnet6tensor8tensor4d5testss_42tensor4d_max_pool2d_computes_window_maximas_0B9_
FNDA:0,_RNCNvNtNtNtCs1xmhvdYWKG8_9neuralnet6tensor8tensor4d5testss_44tensor4d_relu_inplace_clamps_negative_values0B9_
FNDA:0,_RNCNvNtNtNtCs1xmhvdYWKG8_9neuralnet6tensor8tensor4d5testss_45tensor4d_conv2d_valid_applies_kernel_and_bias0B9_
FNDA:0,_RNCNvNtNtNtCs1xmhvdYWKG8_9neuralnet6tensor8tensor4d5testss_45tensor4d_conv2d_valid_applies_kernel_and_biass0_0B9_
FNDA:0,_RNCNvNtNtNtCs1xmhvdYWKG8_9neuralnet6tensor8tensor4d5testss_45tensor4d_conv2d_valid_applies_kernel_and_biass_0B9_
FNDA:0,_RNCNvNtNtNtCs1xmhvdYWKG8_9neuralnet6tensor8tensor4d5testss_46tensor4d_backend_wrappers_match_cpu_operations0B9_
FNDA:0,_RNCNvNtNtNtCs1xmhvdYWKG8_9neuralnet6tensor8tensor4d5testss_46tensor4d_backend_wrappers_match_cpu_operationss0_0B9_
FNDA:0,_RNCNvNtNtNtCs1xmhvdYWKG8_9neuralnet6tensor8tensor4d5testss_46tensor4d_backend_wrappers_match_cpu_operationss1_0B9_
FNDA:0,_RNCNvNtNtNtCs1xmhvdYWKG8_9neuralnet6tensor8tensor4d5testss_46tensor4d_backend_wrappers_match_cpu_operationss2_0B9_
FNDA:0,_RNCNvNtNtNtCs1xmhvdYWKG8_9neuralnet6tensor8tensor4d5testss_46tensor4d_backend_wrappers_match_cpu_operationss3_0B9_
FNDA:0,_RNCNvNtNtNtCs1xmhvdYWKG8_9neuralnet6tensor8tensor4d5testss_46tensor4d_backend_wrappers_match_cpu_operationss_0B9_
FNDA:0,_RNCNvNtNtNtCs1xmhvdYWKG8_9neuralnet6tensor8tensor4d5testss_57tensor4d_global_average_pool2d_reduces_spatial_dimensions0B9_
FNDA:0,_RNCNvNtNtNtCs1xmhvdYWKG8_9neuralnet6tensor8tensor4d5testss_57tensor4d_global_average_pool2d_reduces_spatial_dimensionss_0B9_
FNDA:0,_RNCNvNtNtNtCs1xmhvdYWKG8_9neuralnet6tensor8tensor4d5testss_58tensor4d_flatten_batch_features_returns_per_sample_vectors0B9_
FNDA:1,_RNvNtNtNtCs1xmhvdYWKG8_9neuralnet6tensor8tensor4d5testss_25tensor4d_map_and_add_work
FNDA:1,_RNvNtNtNtCs1xmhvdYWKG8_9neuralnet6tensor8tensor4d5testss_27tensor4d_round_trip_get_set
FNDA:1,_RNvNtNtNtCs1xmhvdYWKG8_9neuralnet6tensor8tensor4d5testss_33tensor4d_from_vec_validates_shape
FNDA:1,_RNvNtNtNtCs1xmhvdYWKG8_9neuralnet6tensor8tensor4d5testss_40tensor4d_add_inplace_requires_same_shape
FNDA:1,_RNvNtNtNtCs1xmhvdYWKG8_9neuralnet6tensor8tensor4d5testss_41tensor4d_conv2d_valid_rejects_zero_stride
FNDA:1,_RNvNtNtNtCs1xmhvdYWKG8_9neuralnet6tensor8tensor4d5testss_42tensor4d_max_pool2d_computes_window_maxima
FNDA:1,_RNvNtNtNtCs1xmhvdYWKG8_9neuralnet6tensor8tensor4d5testss_42tensor4d_max_pool2d_rejects_invalid_window
FNDA:1,_RNvNtNtNtCs1xmhvdYWKG8_9neuralnet6tensor8tensor4d5testss_44tensor4d_relu_inplace_clamps_negative_values
FNDA:1,_RNvNtNtNtCs1xmhvdYWKG8_9neuralnet6tensor8tensor4d5testss_45tensor4d_conv2d_valid_applies_kernel_and_bias
FNDA:1,_RNvNtNtNtCs1xmhvdYWKG8_9neuralnet6tensor8tensor4d5testss_46tensor4d_backend_wrappers_match_cpu_operations
FNDA:1,_RNvNtNtNtCs1xmhvdYWKG8_9neuralnet6tensor8tensor4d5testss_57tensor4d_global_average_pool2d_reduces_spatial_dimensions
FNDA:1,_RNvNtNtNtCs1xmhvdYWKG8_9neuralnet6tensor8tensor4d5testss_58tensor4d_flatten_batch_features_returns_per_sample_vectors
FNDA:3,_RNvMs0_NtNtCs1xmhvdYWKG8_9neuralnet6tensor8tensor4dNtB5_8Tensor4D10max_pool2d
FNDA:64,_RNvMs0_NtNtCs1xmhvdYWKG8_9neuralnet6tensor8tensor4dNtB5_8Tensor4D11add_inplace
FNDA:426599,_RNvMs0_NtNtCs1xmhvdYWKG8_9neuralnet6tensor8tensor4dNtB5_8Tensor4D12as_mut_slice
FNDA:1198,_RNvMs0_NtNtCs1xmhvdYWKG8_9neuralnet6tensor8tensor4dNtB5_8Tensor4D12conv2d_valid
FNDA:1195,_RNvMs0_NtNtCs1xmhvdYWKG8_9neuralnet6tensor8tensor4dNtB5_8Tensor4D12relu_inplace
FNDA:32,_RNvMs0_NtNtCs1xmhvdYWKG8_9neuralnet6tensor8tensor4dNtB5_8Tensor4D14max_pool2d_cpu
FNDA:1229,_RNvMs0_NtNtCs1xmhvdYWKG8_9neuralnet6tensor8tensor4dNtB5_8Tensor4D16conv2d_valid_cpu
FNDA:1223,_RNvMs0_NtNtCs1xmhvdYWKG8_9neuralnet6tensor8tensor4dNtB5_8Tensor4D16relu_inplace_cpu
FNDA:877,_RNvMs0_NtNtCs1xmhvdYWKG8_9neuralnet6tensor8tensor4dNtB5_8Tensor4D21first_sample_features
FNDA:973,_RNvMs0_NtNtCs1xmhvdYWKG8_9neuralnet6tensor8tensor4dNtB5_8Tensor4D21global_average_pool2d
FNDA:70,_RNvMs0_NtNtCs1xmhvdYWKG8_9neuralnet6tensor8tensor4dNtB5_8Tensor4D22flatten_batch_features
FNDA:977,_RNvMs0_NtNtCs1xmhvdYWKG8_9neuralnet6tensor8tensor4dNtB5_8Tensor4D25global_average_pool2d_cpu
FNDA:25,_RNvMs0_NtNtCs1xmhvdYWKG8_9neuralnet6tensor8tensor4dNtB5_8Tensor4D26conv_relu_max_pool2d_valid
FNDA:3243,_RNvMs0_NtNtCs1xmhvdYWKG8_9neuralnet6tensor8tensor4dNtB5_8Tensor4D3get
FNDA:27,_RNvMs0_NtNtCs1xmhvdYWKG8_9neuralnet6tensor8tensor4dNtB5_8Tensor4D3len
FNDA:6924,_RNvMs0_NtNtCs1xmhvdYWKG8_9neuralnet6tensor8tensor4dNtB5_8Tensor4D3new
FNDA:63975,_RNvMs0_NtNtCs1xmhvdYWKG8_9neuralnet6tensor8tensor4dNtB5_8Tensor4D3set
FNDA:124,_RNvMs0_NtNtCs1xmhvdYWKG8_9neuralnet6tensor8tensor4dNtB5_8Tensor4D4fill
FNDA:12876,_RNvMs0_NtNtCs1xmhvdYWKG8_9neuralnet6tensor8tensor4dNtB5_8Tensor4D5shape
FNDA:6924,_RNvMs0_NtNtCs1xmhvdYWKG8_9neuralnet6tensor8tensor4dNtB5_8Tensor4D5zeros
FNDA:67218,_RNvMs0_NtNtCs1xmhvdYWKG8_9neuralnet6tensor8tensor4dNtB5_8Tensor4D6offset
FNDA:13598652,_RNvMs0_NtNtCs1xmhvdYWKG8_9neuralnet6tensor8tensor4dNtB5_8Tensor4D8as_slice
FNDA:1031,_RNvMs0_NtNtCs1xmhvdYWKG8_9neuralnet6tensor8tensor4dNtB5_8Tensor4D8from_vec
FNDA:25,_RNvMs0_NtNtCs1xmhvdYWKG8_9neuralnet6tensor8tensor4dNtB5_8Tensor4D8is_empty
FNDA:1223,_RINvMs0_NtNtCs1xmhvdYWKG8_9neuralnet6tensor8tensor4dNtB6_8Tensor4D11map_inplaceNCNvB2_16relu_inplace_cpu0EBa_
FNDA:1,_RINvMs0_NtNtCs1xmhvdYWKG8_9neuralnet6tensor8tensor4dNtB6_8Tensor4D11map_inplaceNCNvNtB6_5testss_25tensor4d_map_and_add_works0_0EBa_
FNDA:3,_RINvMs0_NtNtCs1xmhvdYWKG8_9neuralnet6tensor8tensor4dNtB6_8Tensor4D23max_pool2d_with_backendDNtNtB8_7backend13TensorBackendEL_EBa_
FNDA:1,_RINvMs0_NtNtCs1xmhvdYWKG8_9neuralnet6tensor8tensor4dNtB6_8Tensor4D23max_pool2d_with_backendNtNtNtB8_10offloading11cpu_backend16CpuTensorBackendEBa_
FNDA:1198,_RINvMs0_NtNtCs1xmhvdYWKG8_9neuralnet6tensor8tensor4dNtB6_8Tensor4D25conv2d_valid_with_backendDNtNtB8_7backend13TensorBackendEL_EBa_
FNDA:1,_RINvMs0_NtNtCs1xmhvdYWKG8_9neuralnet6tensor8tensor4dNtB6_8Tensor4D25conv2d_valid_with_backendNtNtNtB8_10offloading11cpu_backend16CpuTensorBackendEBa_
FNDA:1195,_RINvMs0_NtNtCs1xmhvdYWKG8_9neuralnet6tensor8tensor4dNtB6_8Tensor4D25relu_inplace_with_backendDNtNtB8_7backend13TensorBackendEL_EBa_
FNDA:1,_RINvMs0_NtNtCs1xmhvdYWKG8_9neuralnet6tensor8tensor4dNtB6_8Tensor4D25relu_inplace_with_backendNtNtNtB8_10offloading11cpu_backend16CpuTensorBackendEBa_
FNDA:973,_RINvMs0_NtNtCs1xmhvdYWKG8_9neuralnet6tensor8tensor4dNtB6_8Tensor4D34global_average_pool2d_with_backendDNtNtB8_7backend13TensorBackendEL_EBa_
FNDA:1,_RINvMs0_NtNtCs1xmhvdYWKG8_9neuralnet6tensor8tensor4dNtB6_8Tensor4D34global_average_pool2d_with_backendNtNtNtB8_10offloading11cpu_backend16CpuTensorBackendEBa_
FNDA:1,_RINvMs0_NtNtCs1xmhvdYWKG8_9neuralnet6tensor8tensor4dNtB6_8Tensor4D34global_average_pool2d_with_backendNtNtNtB8_10offloading11mlx_backend16MlxTensorBackendEBa_
FNDA:25,_RINvMs0_NtNtCs1xmhvdYWKG8_9neuralnet6tensor8tensor4dNtB6_8Tensor4D39conv_relu_max_pool2d_valid_with_backendDNtNtB8_7backend13TensorBackendEL_EBa_
FNDA:530806,_RNCNvMs0_NtNtCs1xmhvdYWKG8_9neuralnet6tensor8tensor4dNtB7_8Tensor4D16relu_inplace_cpu0Bb_
FNDA:143,_RNCNvMs0_NtNtCs1xmhvdYWKG8_9neuralnet6tensor8tensor4dNtB7_8Tensor4D22flatten_batch_features0Bb_
FNDA:1031,_RNCNvMs0_NtNtCs1xmhvdYWKG8_9neuralnet6tensor8tensor4dNtB7_8Tensor4D8from_vec0Bb_
FNDA:1031,_RNCNvMs0_NtNtCs1xmhvdYWKG8_9neuralnet6tensor8tensor4dNtB7_8Tensor4D8from_vecs_0Bb_
FNF:65
FNH:47
DA:32,0
DA:33,0
DA:34,0
DA:35,0
DA:36,0
DA:41,0
DA:42,0
DA:43,0
DA:48,0
DA:49,0
DA:50,0
DA:55,0
DA:57,0
DA:73,6924
DA:74,6924
DA:75,6924
DA:76,6924
DA:77,6924
DA:78,6924
DA:79,6924
DA:80,6924
DA:81,6924
DA:82,6924
DA:84,6924
DA:85,6924
DA:86,6924
DA:88,1031
DA:89,1031
DA:90,1031
DA:91,1031
DA:92,1031
DA:93,1031
DA:94,1031
DA:95,1031
DA:96,1031
DA:97,1031
DA:98,1031
DA:99,1031
DA:101,1031
DA:102,1
DA:103,1
DA:104,1
DA:105,1
DA:106,1030
DA:108,1030
DA:109,1031
DA:111,12876
DA:112,12876
DA:113,12876
DA:115,27
DA:116,27
DA:117,27
DA:119,25
DA:120,25
DA:121,25
DA:123,13598652
DA:124,13598652
DA:125,13598652
DA:127,426599
DA:128,426599
DA:129,426599
DA:131,70
DA:132,70
DA:133,0
DA:134,70
DA:136,70
DA:137,70
DA:138,0
DA:139,70
DA:141,70
DA:142,70
DA:143,143
DA:144,70
DA:145,70
DA:150,877
DA:151,877
DA:152,0
DA:153,877
DA:154,877
DA:155,877
DA:156,0
DA:157,877
DA:158,877
DA:159,877
DA:161,3243
DA:162,3243
DA:163,3243
DA:164,3243
DA:166,63975
DA:167,63975
DA:168,63975
DA:169,63975
DA:170,63975
DA:171,63975
DA:172,63975
DA:173,63975
DA:174,63975
DA:175,63975
DA:176,63975
DA:177,63975
DA:179,124
DA:180,124
DA:181,124
DA:183,1224
DA:184,1224
DA:185,1224
DA:187,530810
DA:188,530810
DA:189,530810
DA:190,1224
DA:192,1195
DA:193,1195
DA:194,1195
DA:196,1223
DA:197,530806
DA:198,1223
DA:200,64
DA:201,64
DA:202,1
DA:203,1
DA:204,1
DA:205,1
DA:206,63
DA:208,1120
DA:209,1120
DA:210,1120
DA:212,63
DA:213,64
DA:215,1198
DA:216,1198
DA:217,1198
DA:218,1198
DA:219,1198
DA:220,1198
DA:221,1198
DA:222,1198
DA:223,1198
DA:225,1229
DA:226,1229
DA:227,1229
DA:228,1229
DA:229,1229
DA:230,1229
DA:231,1229
DA:233,1229
DA:234,1
DA:235,1228
DA:237,1228
DA:238,0
DA:239,0
DA:240,0
DA:241,0
DA:242,1228
DA:244,1228
DA:245,0
DA:246,0
DA:247,0
DA:248,1228
DA:250,1228
DA:251,0
DA:252,0
DA:253,0
DA:254,1228
DA:256,1228
DA:257,1227
DA:259,0
DA:260,0
DA:261,0
DA:262,0
DA:263,1228
DA:265,1228
DA:266,1228
DA:267,1228
DA:269,1228
DA:270,1228
DA:271,1228
DA:272,1228
DA:273,1228
DA:274,1228
DA:275,1228
DA:277,1300
DA:278,1300
DA:279,1300
DA:281,3583
DA:282,3583
DA:283,3583
DA:284,3583
DA:286,41122
DA:287,41122
DA:288,41122
DA:290,530804
DA:291,530804
DA:292,530804
DA:294,669492
DA:295,669492
DA:296,669492
DA:298,2009016
DA:299,2009016
DA:300,2009016
DA:301,2009016
DA:302,2009016
DA:304,6029856
DA:305,2009016
DA:306,6029856
DA:307,6029856
DA:308,6029856
DA:312,530804
DA:318,1228
DA:320,1229
DA:322,1199
DA:323,1199
DA:324,1199
DA:325,1199
DA:326,1199
DA:327,1199
DA:328,1199
DA:329,1199
DA:330,1199
DA:331,1199
DA:334,25
DA:335,25
DA:336,25
DA:337,25
DA:338,25
DA:339,25
DA:340,25
DA:341,25
DA:342,25
DA:343,25
DA:344,25
DA:345,25
DA:346,25
DA:347,25
DA:348,25
DA:349,25
DA:350,25
DA:351,25
DA:352,25
DA:353,25
DA:354,25
DA:356,25
DA:359,25
DA:360,25
DA:361,25
DA:362,25
DA:363,25
DA:364,25
DA:365,25
DA:366,25
DA:367,25
DA:368,25
DA:369,25
DA:370,25
DA:371,25
DA:372,25
DA:373,25
DA:374,25
DA:375,25
DA:376,25
DA:377,25
DA:378,25
DA:379,25
DA:380,25
DA:382,25
DA:384,3
DA:385,3
DA:386,3
DA:387,3
DA:388,3
DA:389,3
DA:390,3
DA:391,3
DA:392,3
DA:394,32
DA:395,32
DA:396,32
DA:397,32
DA:398,32
DA:399,32
DA:400,32
DA:401,32
DA:402,1
DA:403,1
DA:404,1
DA:405,31
DA:406,31
DA:407,0
DA:408,31
DA:409,31
DA:410,0
DA:411,0
DA:412,0
DA:413,31
DA:415,31
DA:416,31
DA:417,31
DA:419,31
DA:420,31
DA:421,31
DA:422,31
DA:424,31
DA:425,31
DA:426,31
DA:428,56
DA:429,56
DA:430,56
DA:432,359
DA:433,359
DA:434,359
DA:436,2465
DA:437,2465
DA:438,2465
DA:440,4930
DA:441,4930
DA:442,4930
DA:444,9860
DA:445,9860
DA:446,2574
DA:447,7286
DA:451,2465
DA:457,31
DA:458,32
DA:460,4
DA:461,4
DA:462,4
DA:463,4
DA:464,4
DA:465,4
DA:466,4
DA:467,4
DA:468,4
DA:469,4
DA:471,973
DA:472,973
DA:473,973
DA:475,977
DA:476,977
DA:477,0
DA:478,0
DA:479,0
DA:480,977
DA:482,977
DA:483,977
DA:484,977
DA:486,1049
DA:487,1049
DA:488,2589
DA:489,2589
DA:490,2589
DA:491,2589
DA:492,2589
DA:493,2589
DA:494,2589
DA:497,977
DA:498,977
DA:500,975
DA:501,975
DA:502,975
DA:503,975
DA:504,975
DA:505,975
DA:507,1196
DA:508,1196
DA:509,1196
DA:511,67218
DA:512,67218
DA:513,0
DA:514,67218
DA:516,67218
DA:517,67218
DA:526,1
DA:527,1
DA:529,1
DA:530,1
DA:531,1
DA:534,1
DA:535,1
DA:536,1
DA:537,1
DA:543,1
DA:546,1
DA:547,1
DA:548,1
DA:550,1
DA:551,1
DA:552,1
DA:555,1
DA:556,1
DA:557,1
DA:558,1
DA:559,1
DA:561,4
DA:562,1
DA:564,1
DA:565,1
DA:568,1
DA:569,1
DA:574,1
DA:580,1
DA:582,1
DA:583,1
DA:585,1
DA:586,1
DA:587,1
DA:589,1
DA:590,1
DA:591,1
DA:594,1
DA:595,1
DA:596,1
DA:598,1
DA:599,1
DA:600,1
DA:601,1
DA:603,1
DA:606,1
DA:607,1
DA:612,1
DA:619,1
DA:621,1
DA:622,1
DA:623,1
DA:625,1
DA:626,1
DA:627,1
DA:630,1
DA:631,1
DA:633,1
DA:634,1
DA:635,1
DA:637,1
DA:640,1
DA:643,1
DA:644,1
DA:645,1
DA:647,1
DA:649,1
DA:650,1
DA:653,1
DA:654,1
DA:659,1
DA:664,1
DA:666,1
DA:667,1
DA:668,1
DA:670,1
DA:671,1
DA:672,1
DA:673,1
DA:676,1
DA:677,1
DA:682,1
DA:687,1
DA:689,1
DA:691,1
DA:692,1
DA:693,1
DA:694,1
DA:697,1
DA:698,1
DA:700,1
DA:705,1
DA:711,1
DA:712,1
DA:713,1
DA:715,1
DA:716,1
DA:717,1
DA:718,1
DA:719,1
DA:720,1
DA:721,1
DA:722,1
DA:723,1
DA:725,1
DA:726,1
DA:727,1
DA:729,1
DA:730,1
DA:731,1
DA:732,1
DA:733,1
BRF:0
BRH:0
LF:504
LH:448
end_of_record
SF:/Users/samcolak/Source Code/rust/neuron_server/library/neuralnet/src/tensor/tensor_io.rs
FN:242,_RNCNvNtNtNtCs1xmhvdYWKG8_9neuralnet6tensor9tensor_io5testss_43tensor_json_file_round_trip_restores_tensor0B9_
FN:247,_RNCNvNtNtNtCs1xmhvdYWKG8_9neuralnet6tensor9tensor_io5testss_43tensor_json_file_round_trip_restores_tensors_0B9_
FN:264,_RNCNvNtNtNtCs1xmhvdYWKG8_9neuralnet6tensor9tensor_io5testss_45tensor_binary_file_round_trip_restores_tensor0B9_
FN:269,_RNCNvNtNtNtCs1xmhvdYWKG8_9neuralnet6tensor9tensor_io5testss_45tensor_binary_file_round_trip_restores_tensors_0B9_
FN:214,_RNCNvNtNtNtCs1xmhvdYWKG8_9neuralnet6tensor9tensor_io5testss_48tensor_binary_round_trip_restores_shape_and_data0B9_
FN:218,_RNCNvNtNtNtCs1xmhvdYWKG8_9neuralnet6tensor9tensor_io5testss_48tensor_binary_round_trip_restores_shape_and_datas_0B9_
FN:26,_RNvXNtNtCs1xmhvdYWKG8_9neuralnet6tensor9tensor_ioNtB2_13TensorIoErrorNtNtCse2qo0L34Llq_4core3fmt7Display3fmt
FN:178,_RNCNvNtNtCs1xmhvdYWKG8_9neuralnet6tensor9tensor_io18save_tensor4d_json0B7_
FN:143,_RNCNvNtNtCs1xmhvdYWKG8_9neuralnet6tensor9tensor_io20save_tensor4d_binary0B7_
FN:111,_RNCNvNtNtCs1xmhvdYWKG8_9neuralnet6tensor9tensor_io26tensor4d_from_binary_bytes0B7_
FN:112,_RNCNvNtNtCs1xmhvdYWKG8_9neuralnet6tensor9tensor_io26tensor4d_from_binary_bytess_0B7_
FN:189,_RNvNtNtCs1xmhvdYWKG8_9neuralnet6tensor9tensor_io18load_tensor4d_json
FN:157,_RNvNtNtCs1xmhvdYWKG8_9neuralnet6tensor9tensor_io18save_tensor4d_json
FN:152,_RNvNtNtCs1xmhvdYWKG8_9neuralnet6tensor9tensor_io20load_tensor4d_binary
FN:132,_RNvNtNtCs1xmhvdYWKG8_9neuralnet6tensor9tensor_io20save_tensor4d_binary
FN:74,_RNvNtNtCs1xmhvdYWKG8_9neuralnet6tensor9tensor_io24tensor4d_to_binary_bytes
FN:91,_RNvNtNtCs1xmhvdYWKG8_9neuralnet6tensor9tensor_io26tensor4d_from_binary_bytes
FN:48,_RNvXs0_NtNtCs1xmhvdYWKG8_9neuralnet6tensor9tensor_ioNtB5_13TensorIoErrorINtNtCse2qo0L34Llq_4core7convert4FromNtNtNtCs6meVLhSyLsw_3std2io5error5ErrorE4from
FN:54,_RNvXs1_NtNtCs1xmhvdYWKG8_9neuralnet6tensor9tensor_ioNtB5_13TensorIoErrorINtNtCse2qo0L34Llq_4core7convert4FromNtNtCs5Ojbi4xJgVe_10serde_json5error5ErrorE4from
FN:60,_RNvXs2_NtNtCs1xmhvdYWKG8_9neuralnet6tensor9tensor_ioNtB5_13TensorIoErrorINtNtCse2qo0L34Llq_4core7convert4FromNtNtB7_8tensor4d11TensorErrorE4from
FN:201,_RNvNtNtNtCs1xmhvdYWKG8_9neuralnet6tensor9tensor_io5tests18tensor_io_test_dir
FN:207,_RNvNtNtNtCs1xmhvdYWKG8_9neuralnet6tensor9tensor_io5tests26cleanup_tensor_io_test_dir
FN:225,_RNvNtNtNtCs1xmhvdYWKG8_9neuralnet6tensor9tensor_io5testss_42tensor_binary_reader_rejects_invalid_magic
FN:234,_RNvNtNtNtCs1xmhvdYWKG8_9neuralnet6tensor9tensor_io5testss_43tensor_json_file_round_trip_restores_tensor
FN:256,_RNvNtNtNtCs1xmhvdYWKG8_9neuralnet6tensor9tensor_io5testss_45tensor_binary_file_round_trip_restores_tensor
FN:212,_RNvNtNtNtCs1xmhvdYWKG8_9neuralnet6tensor9tensor_io5testss_48tensor_binary_round_trip_restores_shape_and_data
FNDA:0,_RNCNvNtNtNtCs1xmhvdYWKG8_9neuralnet6tensor9tensor_io5testss_43tensor_json_file_round_trip_restores_tensor0B9_
FNDA:0,_RNCNvNtNtNtCs1xmhvdYWKG8_9neuralnet6tensor9tensor_io5testss_43tensor_json_file_round_trip_restores_tensors_0B9_
FNDA:0,_RNCNvNtNtNtCs1xmhvdYWKG8_9neuralnet6tensor9tensor_io5testss_45tensor_binary_file_round_trip_restores_tensor0B9_
FNDA:0,_RNCNvNtNtNtCs1xmhvdYWKG8_9neuralnet6tensor9tensor_io5testss_45tensor_binary_file_round_trip_restores_tensors_0B9_
FNDA:0,_RNCNvNtNtNtCs1xmhvdYWKG8_9neuralnet6tensor9tensor_io5testss_48tensor_binary_round_trip_restores_shape_and_data0B9_
FNDA:0,_RNCNvNtNtNtCs1xmhvdYWKG8_9neuralnet6tensor9tensor_io5testss_48tensor_binary_round_trip_restores_shape_and_datas_0B9_
FNDA:0,_RNvXNtNtCs1xmhvdYWKG8_9neuralnet6tensor9tensor_ioNtB2_13TensorIoErrorNtNtCse2qo0L34Llq_4core3fmt7Display3fmt
FNDA:1,_RNCNvNtNtCs1xmhvdYWKG8_9neuralnet6tensor9tensor_io18save_tensor4d_json0B7_
FNDA:1,_RNCNvNtNtCs1xmhvdYWKG8_9neuralnet6tensor9tensor_io20save_tensor4d_binary0B7_
FNDA:2,_RNCNvNtNtCs1xmhvdYWKG8_9neuralnet6tensor9tensor_io26tensor4d_from_binary_bytes0B7_
FNDA:2,_RNCNvNtNtCs1xmhvdYWKG8_9neuralnet6tensor9tensor_io26tensor4d_from_binary_bytess_0B7_
FNDA:1,_RNvNtNtCs1xmhvdYWKG8_9neuralnet6tensor9tensor_io18load_tensor4d_json
FNDA:1,_RNvNtNtCs1xmhvdYWKG8_9neuralnet6tensor9tensor_io18save_tensor4d_json
FNDA:1,_RNvNtNtCs1xmhvdYWKG8_9neuralnet6tensor9tensor_io20load_tensor4d_binary
FNDA:1,_RNvNtNtCs1xmhvdYWKG8_9neuralnet6tensor9tensor_io20save_tensor4d_binary
FNDA:2,_RNvNtNtCs1xmhvdYWKG8_9neuralnet6tensor9tensor_io24tensor4d_to_binary_bytes
FNDA:3,_RNvNtNtCs1xmhvdYWKG8_9neuralnet6tensor9tensor_io26tensor4d_from_binary_bytes
FNDA:0,_RNvXs0_NtNtCs1xmhvdYWKG8_9neuralnet6tensor9tensor_ioNtB5_13TensorIoErrorINtNtCse2qo0L34Llq_4core7convert4FromNtNtNtCs6meVLhSyLsw_3std2io5error5ErrorE4from
FNDA:0,_RNvXs1_NtNtCs1xmhvdYWKG8_9neuralnet6tensor9tensor_ioNtB5_13TensorIoErrorINtNtCse2qo0L34Llq_4core7convert4FromNtNtCs5Ojbi4xJgVe_10serde_json5error5ErrorE4from
FNDA:0,_RNvXs2_NtNtCs1xmhvdYWKG8_9neuralnet6tensor9tensor_ioNtB5_13TensorIoErrorINtNtCse2qo0L34Llq_4core7convert4FromNtNtB7_8tensor4d11TensorErrorE4from
FNDA:6,_RNvNtNtNtCs1xmhvdYWKG8_9neuralnet6tensor9tensor_io5tests18tensor_io_test_dir
FNDA:4,_RNvNtNtNtCs1xmhvdYWKG8_9neuralnet6tensor9tensor_io5tests26cleanup_tensor_io_test_dir
FNDA:1,_RNvNtNtNtCs1xmhvdYWKG8_9neuralnet6tensor9tensor_io5testss_42tensor_binary_reader_rejects_invalid_magic
FNDA:1,_RNvNtNtNtCs1xmhvdYWKG8_9neuralnet6tensor9tensor_io5testss_43tensor_json_file_round_trip_restores_tensor
FNDA:1,_RNvNtNtNtCs1xmhvdYWKG8_9neuralnet6tensor9tensor_io5testss_45tensor_binary_file_round_trip_restores_tensor
FNDA:1,_RNvNtNtNtCs1xmhvdYWKG8_9neuralnet6tensor9tensor_io5testss_48tensor_binary_round_trip_restores_shape_and_data
FNF:26
FNH:16
DA:26,0
DA:27,0
DA:28,0
DA:29,0
DA:30,0
DA:31,0
DA:33,0
DA:34,0
DA:35,0
DA:36,0
DA:41,0
DA:48,0
DA:49,0
DA:50,0
DA:54,0
DA:55,0
DA:56,0
DA:60,0
DA:61,0
DA:62,0
DA:74,2
DA:75,2
DA:77,2
DA:78,2
DA:79,2
DA:80,2
DA:81,2
DA:82,2
DA:84,8
DA:85,8
DA:86,8
DA:88,2
DA:89,2
DA:91,3
DA:92,3
DA:93,0
DA:94,0
DA:95,0
DA:96,0
DA:97,3
DA:99,3
DA:100,1
DA:101,2
DA:103,2
DA:104,2
DA:105,2
DA:106,2
DA:108,2
DA:109,2
DA:110,2
DA:111,2
DA:112,2
DA:113,2
DA:114,2
DA:116,2
DA:117,0
DA:118,0
DA:119,0
DA:120,0
DA:121,2
DA:123,2
DA:124,8
DA:125,8
DA:126,8
DA:127,8
DA:129,2
DA:130,3
DA:132,1
DA:133,1
DA:134,1
DA:136,1
DA:137,0
DA:139,1
DA:140,1
DA:142,1
DA:143,1
DA:144,1
DA:147,1
DA:148,1
DA:149,1
DA:150,1
DA:152,1
DA:153,1
DA:154,1
DA:155,1
DA:157,1
DA:159,1
DA:160,1
DA:162,1
DA:163,0
DA:165,1
DA:166,1
DA:167,1
DA:168,1
DA:169,1
DA:170,1
DA:171,1
DA:172,1
DA:174,1
DA:175,1
DA:177,1
DA:178,1
DA:179,1
DA:182,1
DA:183,1
DA:185,1
DA:187,1
DA:189,1
DA:190,1
DA:191,1
DA:192,1
DA:193,1
DA:201,6
DA:202,6
DA:203,6
DA:204,6
DA:205,6
DA:207,4
DA:208,4
DA:209,4
DA:212,1
DA:213,1
DA:214,1
DA:216,1
DA:217,1
DA:218,1
DA:220,1
DA:221,1
DA:222,1
DA:225,1
DA:226,1
DA:227,1
DA:229,1
DA:230,1
DA:231,1
DA:234,1
DA:235,1
DA:236,1
DA:238,1
DA:239,1
DA:241,1
DA:242,1
DA:244,1
DA:246,1
DA:247,1
DA:249,1
DA:250,1
DA:252,1
DA:253,1
DA:256,1
DA:257,1
DA:258,1
DA:260,1
DA:261,1
DA:263,1
DA:264,1
DA:266,1
DA:268,1
DA:269,1
DA:271,1
DA:272,1
DA:274,1
DA:275,1
BRF:0
BRH:0
LF:173
LH:137
end_of_record
SF:/Users/samcolak/Source Code/rust/neuron_server/library/neuralnet/src/training/dense_baseline.rs
FN:199,_RNvNtNtNtCs1xmhvdYWKG8_9neuralnet8training14dense_baseline5testss_45dense_baseline_trains_and_predicts_known_text
FN:46,_RNCNvMNtNtCs1xmhvdYWKG8_9neuralnet8training14dense_baselineNtB4_18DenseTokenBaseline13predict_label0B8_
FN:178,_RNCNvXs_NtNtCs1xmhvdYWKG8_9neuralnet8training14dense_baselineNtB6_18DenseTokenBaselineNtNtNtBa_4core5model14TrainableModel15load_checkpoint0Ba_
FN:161,_RNCNvXs_NtNtCs1xmhvdYWKG8_9neuralnet8training14dense_baselineNtB6_18DenseTokenBaselineNtNtNtBa_4core5model14TrainableModel15save_checkpoint0Ba_
FN:27,_RNvMNtNtCs1xmhvdYWKG8_9neuralnet8training14dense_baselineNtB2_18DenseTokenBaseline13predict_label
FN:23,_RNvMNtNtCs1xmhvdYWKG8_9neuralnet8training14dense_baselineNtB2_18DenseTokenBaseline3new
FN:69,_RNvXs_NtNtCs1xmhvdYWKG8_9neuralnet8training14dense_baselineNtB4_18DenseTokenBaselineNtNtNtB8_4core5model14TrainableModel11train_epoch
FN:175,_RNvXs_NtNtCs1xmhvdYWKG8_9neuralnet8training14dense_baselineNtB4_18DenseTokenBaselineNtNtNtB8_4core5model14TrainableModel15load_checkpoint
FN:158,_RNvXs_NtNtCs1xmhvdYWKG8_9neuralnet8training14dense_baselineNtB4_18DenseTokenBaselineNtNtNtB8_4core5model14TrainableModel15save_checkpoint
FN:112,_RNvXs_NtNtCs1xmhvdYWKG8_9neuralnet8training14dense_baselineNtB4_18DenseTokenBaselineNtNtNtB8_4core5model14TrainableModel16evaluate_dataset
FNDA:1,_RNvNtNtNtCs1xmhvdYWKG8_9neuralnet8training14dense_baseline5testss_45dense_baseline_trains_and_predicts_known_text
FNDA:162,_RNCNvMNtNtCs1xmhvdYWKG8_9neuralnet8training14dense_baselineNtB4_18DenseTokenBaseline13predict_label0B8_
FNDA:1,_RNCNvXs_NtNtCs1xmhvdYWKG8_9neuralnet8training14dense_baselineNtB6_18DenseTokenBaselineNtNtNtBa_4core5model14TrainableModel15load_checkpoint0Ba_
FNDA:0,_RNCNvXs_NtNtCs1xmhvdYWKG8_9neuralnet8training14dense_baselineNtB6_18DenseTokenBaselineNtNtNtBa_4core5model14TrainableModel15save_checkpoint0Ba_
FNDA:27,_RNvMNtNtCs1xmhvdYWKG8_9neuralnet8training14dense_baselineNtB2_18DenseTokenBaseline13predict_label
FNDA:7,_RNvMNtNtCs1xmhvdYWKG8_9neuralnet8training14dense_baselineNtB2_18DenseTokenBaseline3new
FNDA:8,_RNvXs_NtNtCs1xmhvdYWKG8_9neuralnet8training14dense_baselineNtB4_18DenseTokenBaselineNtNtNtB8_4core5model14TrainableModel11train_epoch
FNDA:3,_RNvXs_NtNtCs1xmhvdYWKG8_9neuralnet8training14dense_baselineNtB4_18DenseTokenBaselineNtNtNtB8_4core5model14TrainableModel15load_checkpoint
FNDA:1,_RNvXs_NtNtCs1xmhvdYWKG8_9neuralnet8training14dense_baselineNtB4_18DenseTokenBaselineNtNtNtB8_4core5model14TrainableModel15save_checkpoint
FNDA:10,_RNvXs_NtNtCs1xmhvdYWKG8_9neuralnet8training14dense_baselineNtB4_18DenseTokenBaselineNtNtNtB8_4core5model14TrainableModel16evaluate_dataset
FNF:10
FNH:9
DA:23,7
DA:24,7
DA:25,7
DA:27,27
DA:28,27
DA:29,27
DA:31,27
DA:32,0
DA:33,27
DA:35,27
DA:36,27
DA:38,54
DA:39,54
DA:40,54
DA:41,0
DA:42,54
DA:44,54
DA:45,54
DA:46,162
DA:47,54
DA:49,54
DA:51,54
DA:52,27
DA:53,27
DA:54,27
DA:57,27
DA:58,0
DA:60,27
DA:63,27
DA:69,8
DA:70,8
DA:71,8
DA:72,8
DA:73,8
DA:74,8
DA:75,8
DA:77,8
DA:78,8
DA:80,16
DA:81,16
DA:83,16
DA:84,16
DA:85,0
DA:86,0
DA:87,16
DA:89,16
DA:90,16
DA:91,0
DA:92,0
DA:93,16
DA:95,16
DA:96,16
DA:98,48
DA:99,48
DA:100,48
DA:101,48
DA:103,16
DA:104,16
DA:108,8
DA:110,8
DA:112,10
DA:114,10
DA:115,10
DA:116,10
DA:117,10
DA:119,27
DA:120,27
DA:121,27
DA:122,0
DA:123,0
DA:124,27
DA:126,27
DA:127,27
DA:129,27
DA:130,27
DA:131,20
DA:132,20
DA:133,20
DA:134,20
DA:135,7
DA:136,7
DA:137,7
DA:138,0
DA:139,0
DA:140,0
DA:141,0
DA:142,0
DA:143,0
DA:144,0
DA:145,0
DA:149,10
DA:150,10
DA:151,10
DA:153,10
DA:154,10
DA:156,10
DA:158,1
DA:159,1
DA:160,1
DA:161,1
DA:162,0
DA:163,0
DA:164,0
DA:166,0
DA:169,0
DA:171,1
DA:172,1
DA:173,1
DA:175,3
DA:176,3
DA:177,3
DA:178,2
DA:179,1
DA:180,1
DA:181,1
DA:183,1
DA:186,1
DA:188,1
DA:189,1
DA:190,3
DA:199,1
DA:200,1
DA:201,1
DA:202,1
DA:203,1
DA:204,1
DA:207,1
DA:208,1
DA:209,1
DA:210,1
DA:211,1
DA:214,1
DA:216,1
DA:217,1
DA:218,1
BRF:0
BRH:0
LF:140
LH:116
end_of_record
SF:/Users/samcolak/Source Code/rust/neuron_server/library/neuralnet/src/training/linear_head.rs
FN:152,_RNvMs0_NtNtCs1xmhvdYWKG8_9neuralnet8training11linear_headNtB5_10LinearHead10dimensions
FN:223,_RNvMs0_NtNtCs1xmhvdYWKG8_9neuralnet8training11linear_headNtB5_10LinearHead10train_step
FN:299,_RNvMs0_NtNtCs1xmhvdYWKG8_9neuralnet8training11linear_headNtB5_10LinearHead11train_batch
FN:206,_RNvMs0_NtNtCs1xmhvdYWKG8_9neuralnet8training11linear_headNtB5_10LinearHead13predict_class
FN:201,_RNvMs0_NtNtCs1xmhvdYWKG8_9neuralnet8training11linear_headNtB5_10LinearHead13probabilities
FN:164,_RNvMs0_NtNtCs1xmhvdYWKG8_9neuralnet8training11linear_headNtB5_10LinearHead13set_optimizer
FN:189,_RNvMs0_NtNtCs1xmhvdYWKG8_9neuralnet8training11linear_headNtB5_10LinearHead19compute_logits_into
FN:427,_RNvMs0_NtNtCs1xmhvdYWKG8_9neuralnet8training11linear_headNtB5_10LinearHead26ensure_scratch_initialized
FN:416,_RNvMs0_NtNtCs1xmhvdYWKG8_9neuralnet8training11linear_headNtB5_10LinearHead27synchronize_optimizer_state
FN:492,_RNvMs0_NtNtCs1xmhvdYWKG8_9neuralnet8training11linear_headNtB5_10LinearHead28apply_gradients_from_scratch
FN:256,_RNvMs0_NtNtCs1xmhvdYWKG8_9neuralnet8training11linear_headNtB5_10LinearHead30train_step_with_input_gradient
FN:351,_RNvMs0_NtNtCs1xmhvdYWKG8_9neuralnet8training11linear_headNtB5_10LinearHead32train_batch_with_input_gradients
FN:109,_RNvMs0_NtNtCs1xmhvdYWKG8_9neuralnet8training11linear_headNtB5_10LinearHead3new
FN:182,_RNvMs0_NtNtCs1xmhvdYWKG8_9neuralnet8training11linear_headNtB5_10LinearHead6logits
FN:569,_RNvNtNtCs1xmhvdYWKG8_9neuralnet8training11linear_head12softmax_into
FN:534,_RNvNtNtCs1xmhvdYWKG8_9neuralnet8training11linear_head15validate_target
FN:7,_RNvNtNtCs1xmhvdYWKG8_9neuralnet8training11linear_head17default_optimizer
FN:523,_RNvNtNtCs1xmhvdYWKG8_9neuralnet8training11linear_head17validate_features
FN:545,_RNvNtNtCs1xmhvdYWKG8_9neuralnet8training11linear_head7softmax
FN:160,_RNvMs0_NtNtCs1xmhvdYWKG8_9neuralnet8training11linear_headNtB5_10LinearHead13learning_rate
FN:175,_RNvMs0_NtNtCs1xmhvdYWKG8_9neuralnet8training11linear_headNtB5_10LinearHead14configure_adam
FN:461,_RNvMs0_NtNtCs1xmhvdYWKG8_9neuralnet8training11linear_headNtB5_10LinearHead15apply_gradients
FN:170,_RNvMs0_NtNtCs1xmhvdYWKG8_9neuralnet8training11linear_headNtB5_10LinearHead16set_weight_decay
FN:156,_RNvMs0_NtNtCs1xmhvdYWKG8_9neuralnet8training11linear_headNtB5_10LinearHead9optimizer
FN:35,_RNvXNtNtCs1xmhvdYWKG8_9neuralnet8training11linear_headNtB2_15LinearHeadErrorNtNtCse2qo0L34Llq_4core3fmt7Display3fmt
FN:556,_RNCNvNtNtCs1xmhvdYWKG8_9neuralnet8training11linear_head7softmax0B7_
FN:564,_RNCNvNtNtCs1xmhvdYWKG8_9neuralnet8training11linear_head7softmaxs_0B7_
FN:603,_RNCNvNtNtNtCs1xmhvdYWKG8_9neuralnet8training11linear_head5testss_36linear_head_probabilities_sum_to_one0B9_
FN:607,_RNCNvNtNtNtCs1xmhvdYWKG8_9neuralnet8training11linear_head5testss_36linear_head_probabilities_sum_to_ones_0B9_
FN:641,_RNCNvNtNtNtCs1xmhvdYWKG8_9neuralnet8training11linear_head5testss_54linear_head_train_batch_rejects_mismatched_batch_sizes0B9_
FN:616,_RNCNvNtNtNtCs1xmhvdYWKG8_9neuralnet8training11linear_head5testss_55linear_head_train_step_reduces_loss_on_repeated_example0B9_
FN:627,_RNCNvNtNtNtCs1xmhvdYWKG8_9neuralnet8training11linear_head5testss_55linear_head_train_step_reduces_loss_on_repeated_examples0_0B9_
FN:633,_RNCNvNtNtNtCs1xmhvdYWKG8_9neuralnet8training11linear_head5testss_55linear_head_train_step_reduces_loss_on_repeated_examples1_0B9_
FN:621,_RNCNvNtNtNtCs1xmhvdYWKG8_9neuralnet8training11linear_head5testss_55linear_head_train_step_reduces_loss_on_repeated_examples_0B9_
FN:689,_RNCNvNtNtNtCs1xmhvdYWKG8_9neuralnet8training11linear_head5testss_59linear_head_adam_optimizer_reduces_loss_on_repeated_example0B9_
FN:701,_RNCNvNtNtNtCs1xmhvdYWKG8_9neuralnet8training11linear_head5testss_59linear_head_adam_optimizer_reduces_loss_on_repeated_examples0_0B9_
FN:707,_RNCNvNtNtNtCs1xmhvdYWKG8_9neuralnet8training11linear_head5testss_59linear_head_adam_optimizer_reduces_loss_on_repeated_examples1_0B9_
FN:695,_RNCNvNtNtNtCs1xmhvdYWKG8_9neuralnet8training11linear_head5testss_59linear_head_adam_optimizer_reduces_loss_on_repeated_examples_0B9_
FN:656,_RNCNvNtNtNtCs1xmhvdYWKG8_9neuralnet8training11linear_head5testss_60linear_head_train_step_with_input_gradient_matches_input_dim0B9_
FN:663,_RNCNvNtNtNtCs1xmhvdYWKG8_9neuralnet8training11linear_head5testss_60linear_head_train_step_with_input_gradient_matches_input_dims0_0B9_
FN:660,_RNCNvNtNtNtCs1xmhvdYWKG8_9neuralnet8training11linear_head5testss_60linear_head_train_step_with_input_gradient_matches_input_dims_0B9_
FN:669,_RNCNvNtNtNtCs1xmhvdYWKG8_9neuralnet8training11linear_head5testss_69linear_head_train_batch_with_input_gradients_returns_per_sample_grads0B9_
FN:682,_RNCNvNtNtNtCs1xmhvdYWKG8_9neuralnet8training11linear_head5testss_69linear_head_train_batch_with_input_gradients_returns_per_sample_gradss0_0B9_
FN:676,_RNCNvNtNtNtCs1xmhvdYWKG8_9neuralnet8training11linear_head5testss_69linear_head_train_batch_with_input_gradients_returns_per_sample_gradss_0B9_
FN:601,_RNvNtNtNtCs1xmhvdYWKG8_9neuralnet8training11linear_head5testss_36linear_head_probabilities_sum_to_one
FN:639,_RNvNtNtNtCs1xmhvdYWKG8_9neuralnet8training11linear_head5testss_54linear_head_train_batch_rejects_mismatched_batch_sizes
FN:614,_RNvNtNtNtCs1xmhvdYWKG8_9neuralnet8training11linear_head5testss_55linear_head_train_step_reduces_loss_on_repeated_example
FN:687,_RNvNtNtNtCs1xmhvdYWKG8_9neuralnet8training11linear_head5testss_59linear_head_adam_optimizer_reduces_loss_on_repeated_example
FN:654,_RNvNtNtNtCs1xmhvdYWKG8_9neuralnet8training11linear_head5testss_60linear_head_train_step_with_input_gradient_matches_input_dim
FN:667,_RNvNtNtNtCs1xmhvdYWKG8_9neuralnet8training11linear_head5testss_69linear_head_train_batch_with_input_gradients_returns_per_sample_grads
FNDA:1,_RNvMs0_NtNtCs1xmhvdYWKG8_9neuralnet8training11linear_headNtB5_10LinearHead10dimensions
FNDA:132,_RNvMs0_NtNtCs1xmhvdYWKG8_9neuralnet8training11linear_headNtB5_10LinearHead10train_step
FNDA:1,_RNvMs0_NtNtCs1xmhvdYWKG8_9neuralnet8training11linear_headNtB5_10LinearHead11train_batch
FNDA:2,_RNvMs0_NtNtCs1xmhvdYWKG8_9neuralnet8training11linear_headNtB5_10LinearHead13predict_class
FNDA:41,_RNvMs0_NtNtCs1xmhvdYWKG8_9neuralnet8training11linear_headNtB5_10LinearHead13probabilities
FNDA:1,_RNvMs0_NtNtCs1xmhvdYWKG8_9neuralnet8training11linear_headNtB5_10LinearHead13set_optimizer
FNDA:1153,_RNvMs0_NtNtCs1xmhvdYWKG8_9neuralnet8training11linear_headNtB5_10LinearHead19compute_logits_into
FNDA:1047,_RNvMs0_NtNtCs1xmhvdYWKG8_9neuralnet8training11linear_headNtB5_10LinearHead26ensure_scratch_initialized
FNDA:1047,_RNvMs0_NtNtCs1xmhvdYWKG8_9neuralnet8training11linear_headNtB5_10LinearHead27synchronize_optimizer_state
FNDA:1047,_RNvMs0_NtNtCs1xmhvdYWKG8_9neuralnet8training11linear_headNtB5_10LinearHead28apply_gradients_from_scratch
FNDA:852,_RNvMs0_NtNtCs1xmhvdYWKG8_9neuralnet8training11linear_headNtB5_10LinearHead30train_step_with_input_gradient
FNDA:63,_RNvMs0_NtNtCs1xmhvdYWKG8_9neuralnet8training11linear_headNtB5_10LinearHead32train_batch_with_input_gradients
FNDA:23,_RNvMs0_NtNtCs1xmhvdYWKG8_9neuralnet8training11linear_headNtB5_10LinearHead3new
FNDA:43,_RNvMs0_NtNtCs1xmhvdYWKG8_9neuralnet8training11linear_headNtB5_10LinearHead6logits
FNDA:1110,_RNvNtNtCs1xmhvdYWKG8_9neuralnet8training11linear_head12softmax_into
FNDA:1110,_RNvNtNtCs1xmhvdYWKG8_9neuralnet8training11linear_head15validate_target
FNDA:0,_RNvNtNtCs1xmhvdYWKG8_9neuralnet8training11linear_head17default_optimizer
FNDA:1153,_RNvNtNtCs1xmhvdYWKG8_9neuralnet8training11linear_head17validate_features
FNDA:41,_RNvNtNtCs1xmhvdYWKG8_9neuralnet8training11linear_head7softmax
FNDA:0,_RNvMs0_NtNtCs1xmhvdYWKG8_9neuralnet8training11linear_headNtB5_10LinearHead13learning_rate
FNDA:0,_RNvMs0_NtNtCs1xmhvdYWKG8_9neuralnet8training11linear_headNtB5_10LinearHead14configure_adam
FNDA:0,_RNvMs0_NtNtCs1xmhvdYWKG8_9neuralnet8training11linear_headNtB5_10LinearHead15apply_gradients
FNDA:0,_RNvMs0_NtNtCs1xmhvdYWKG8_9neuralnet8training11linear_headNtB5_10LinearHead16set_weight_decay
FNDA:0,_RNvMs0_NtNtCs1xmhvdYWKG8_9neuralnet8training11linear_headNtB5_10LinearHead9optimizer
FNDA:0,_RNvXNtNtCs1xmhvdYWKG8_9neuralnet8training11linear_headNtB2_15LinearHeadErrorNtNtCse2qo0L34Llq_4core3fmt7Display3fmt
FNDA:83,_RNCNvNtNtCs1xmhvdYWKG8_9neuralnet8training11linear_head7softmax0B7_
FNDA:83,_RNCNvNtNtCs1xmhvdYWKG8_9neuralnet8training11linear_head7softmaxs_0B7_
FNDA:0,_RNCNvNtNtNtCs1xmhvdYWKG8_9neuralnet8training11linear_head5testss_36linear_head_probabilities_sum_to_one0B9_
FNDA:0,_RNCNvNtNtNtCs1xmhvdYWKG8_9neuralnet8training11linear_head5testss_36linear_head_probabilities_sum_to_ones_0B9_
FNDA:0,_RNCNvNtNtNtCs1xmhvdYWKG8_9neuralnet8training11linear_head5testss_54linear_head_train_batch_rejects_mismatched_batch_sizes0B9_
FNDA:0,_RNCNvNtNtNtCs1xmhvdYWKG8_9neuralnet8training11linear_head5testss_55linear_head_train_step_reduces_loss_on_repeated_example0B9_
FNDA:0,_RNCNvNtNtNtCs1xmhvdYWKG8_9neuralnet8training11linear_head5testss_55linear_head_train_step_reduces_loss_on_repeated_examples0_0B9_
FNDA:0,_RNCNvNtNtNtCs1xmhvdYWKG8_9neuralnet8training11linear_head5testss_55linear_head_train_step_reduces_loss_on_repeated_examples1_0B9_
FNDA:0,_RNCNvNtNtNtCs1xmhvdYWKG8_9neuralnet8training11linear_head5testss_55linear_head_train_step_reduces_loss_on_repeated_examples_0B9_
FNDA:0,_RNCNvNtNtNtCs1xmhvdYWKG8_9neuralnet8training11linear_head5testss_59linear_head_adam_optimizer_reduces_loss_on_repeated_example0B9_
FNDA:0,_RNCNvNtNtNtCs1xmhvdYWKG8_9neuralnet8training11linear_head5testss_59linear_head_adam_optimizer_reduces_loss_on_repeated_examples0_0B9_
FNDA:0,_RNCNvNtNtNtCs1xmhvdYWKG8_9neuralnet8training11linear_head5testss_59linear_head_adam_optimizer_reduces_loss_on_repeated_examples1_0B9_
FNDA:0,_RNCNvNtNtNtCs1xmhvdYWKG8_9neuralnet8training11linear_head5testss_59linear_head_adam_optimizer_reduces_loss_on_repeated_examples_0B9_
FNDA:0,_RNCNvNtNtNtCs1xmhvdYWKG8_9neuralnet8training11linear_head5testss_60linear_head_train_step_with_input_gradient_matches_input_dim0B9_
FNDA:3,_RNCNvNtNtNtCs1xmhvdYWKG8_9neuralnet8training11linear_head5testss_60linear_head_train_step_with_input_gradient_matches_input_dims0_0B9_
FNDA:0,_RNCNvNtNtNtCs1xmhvdYWKG8_9neuralnet8training11linear_head5testss_60linear_head_train_step_with_input_gradient_matches_input_dims_0B9_
FNDA:0,_RNCNvNtNtNtCs1xmhvdYWKG8_9neuralnet8training11linear_head5testss_69linear_head_train_batch_with_input_gradients_returns_per_sample_grads0B9_
FNDA:6,_RNCNvNtNtNtCs1xmhvdYWKG8_9neuralnet8training11linear_head5testss_69linear_head_train_batch_with_input_gradients_returns_per_sample_gradss0_0B9_
FNDA:0,_RNCNvNtNtNtCs1xmhvdYWKG8_9neuralnet8training11linear_head5testss_69linear_head_train_batch_with_input_gradients_returns_per_sample_gradss_0B9_
FNDA:1,_RNvNtNtNtCs1xmhvdYWKG8_9neuralnet8training11linear_head5testss_36linear_head_probabilities_sum_to_one
FNDA:1,_RNvNtNtNtCs1xmhvdYWKG8_9neuralnet8training11linear_head5testss_54linear_head_train_batch_rejects_mismatched_batch_sizes
FNDA:1,_RNvNtNtNtCs1xmhvdYWKG8_9neuralnet8training11linear_head5testss_55linear_head_train_step_reduces_loss_on_repeated_example
FNDA:1,_RNvNtNtNtCs1xmhvdYWKG8_9neuralnet8training11linear_head5testss_59linear_head_adam_optimizer_reduces_loss_on_repeated_example
FNDA:1,_RNvNtNtNtCs1xmhvdYWKG8_9neuralnet8training11linear_head5testss_60linear_head_train_step_with_input_gradient_matches_input_dim
FNDA:1,_RNvNtNtNtCs1xmhvdYWKG8_9neuralnet8training11linear_head5testss_69linear_head_train_batch_with_input_gradients_returns_per_sample_grads
FNF:50
FNH:28
DA:7,0
DA:8,0
DA:9,0
DA:35,0
DA:36,0
DA:38,0
DA:39,0
DA:40,0
DA:41,0
DA:45,0
DA:46,0
DA:51,0
DA:52,0
DA:53,0
DA:54,0
DA:59,0
DA:60,0
DA:61,0
DA:62,0
DA:66,0
DA:68,0
DA:109,23
DA:110,23
DA:111,23
DA:112,23
DA:113,23
DA:114,23
DA:115,0
DA:116,0
DA:117,0
DA:118,0
DA:119,23
DA:121,23
DA:122,23
DA:123,47
DA:124,124
DA:125,124
DA:126,124
DA:127,124
DA:131,23
DA:132,23
DA:133,23
DA:134,23
DA:135,23
DA:136,23
DA:137,23
DA:138,23
DA:139,23
DA:140,23
DA:141,23
DA:142,23
DA:143,23
DA:144,23
DA:145,23
DA:146,23
DA:147,23
DA:148,23
DA:149,23
DA:150,23
DA:152,1
DA:153,1
DA:154,1
DA:156,0
DA:157,0
DA:158,0
DA:160,0
DA:161,0
DA:162,0
DA:164,1
DA:165,1
DA:166,1
DA:167,1
DA:168,1
DA:170,0
DA:171,0
DA:172,0
DA:175,0
DA:176,0
DA:177,0
DA:178,0
DA:179,0
DA:180,0
DA:182,43
DA:183,43
DA:184,43
DA:185,43
DA:186,43
DA:187,43
DA:189,1153
DA:190,1153
DA:191,2307
DA:192,2307
DA:193,2307
DA:194,6146
DA:195,6146
DA:196,6146
DA:197,2307
DA:199,1153
DA:201,41
DA:202,41
DA:203,41
DA:204,41
DA:206,2
DA:208,2
DA:209,2
DA:210,2
DA:212,4
DA:213,4
DA:214,2
DA:215,2
DA:216,2
DA:219,2
DA:221,2
DA:223,132
DA:224,132
DA:225,132
DA:226,132
DA:227,132
DA:229,132
DA:230,132
DA:232,132
DA:233,132
DA:234,132
DA:236,132
DA:237,132
DA:239,132
DA:241,132
DA:242,132
DA:243,264
DA:244,264
DA:245,1056
DA:246,1056
DA:247,1056
DA:248,264
DA:251,132
DA:252,132
DA:254,132
DA:256,852
DA:257,852
DA:258,852
DA:259,852
DA:260,852
DA:262,852
DA:263,852
DA:265,852
DA:266,852
DA:267,852
DA:269,852
DA:270,852
DA:272,852
DA:274,852
DA:275,2185
DA:276,2185
DA:277,4370
DA:278,4370
DA:279,4370
DA:280,2185
DA:283,852
DA:284,852
DA:285,1704
DA:286,1704
DA:287,4370
DA:288,4370
DA:289,4370
DA:290,1704
DA:293,852
DA:295,852
DA:297,852
DA:299,1
DA:300,1
DA:301,1
DA:302,1
DA:303,1
DA:305,1
DA:306,0
DA:307,1
DA:308,1
DA:309,1
DA:310,1
DA:311,1
DA:312,1
DA:313,0
DA:315,0
DA:316,0
DA:317,0
DA:320,0
DA:321,0
DA:322,0
DA:323,0
DA:324,0
DA:326,0
DA:327,0
DA:328,0
DA:330,0
DA:331,0
DA:333,0
DA:335,0
DA:336,0
DA:337,0
DA:338,0
DA:339,0
DA:340,0
DA:344,0
DA:345,0
DA:347,0
DA:349,1
DA:351,63
DA:352,63
DA:353,63
DA:354,63
DA:355,63
DA:357,63
DA:358,0
DA:359,63
DA:360,63
DA:361,0
DA:362,0
DA:363,0
DA:364,0
DA:365,63
DA:367,126
DA:368,126
DA:369,126
DA:372,63
DA:373,63
DA:374,63
DA:375,63
DA:376,63
DA:377,63
DA:379,126
DA:381,126
DA:382,126
DA:384,126
DA:385,126
DA:387,126
DA:389,126
DA:390,254
DA:391,254
DA:392,508
DA:393,508
DA:394,508
DA:395,254
DA:397,126
DA:399,252
DA:400,252
DA:401,508
DA:402,508
DA:403,508
DA:404,252
DA:409,63
DA:410,63
DA:412,63
DA:414,63
DA:416,1047
DA:417,1047
DA:418,0
DA:419,1047
DA:420,1047
DA:421,0
DA:422,1047
DA:423,1047
DA:427,1047
DA:429,1047
DA:431,1047
DA:432,0
DA:433,1047
DA:435,1047
DA:436,0
DA:437,1047
DA:439,1047
DA:440,0
DA:441,1047
DA:443,1047
DA:444,0
DA:445,1047
DA:447,1047
DA:448,0
DA:449,1047
DA:451,1047
DA:452,0
DA:453,1047
DA:455,1047
DA:456,0
DA:457,1047
DA:459,1047
DA:461,0
DA:463,0
DA:465,0
DA:466,0
DA:468,0
DA:469,0
DA:470,0
DA:471,0
DA:472,0
DA:473,0
DA:475,0
DA:476,0
DA:477,0
DA:478,0
DA:479,0
DA:481,0
DA:482,0
DA:483,0
DA:484,0
DA:488,0
DA:492,1047
DA:494,1047
DA:496,1047
DA:497,1047
DA:499,5680
DA:500,5680
DA:501,5680
DA:502,2094
DA:503,2094
DA:504,2094
DA:506,1047
DA:507,1047
DA:508,1047
DA:509,1047
DA:510,1047
DA:512,1047
DA:513,1047
DA:514,1047
DA:515,1047
DA:519,1047
DA:523,1153
DA:524,1153
DA:525,0
DA:526,0
DA:527,0
DA:528,0
DA:529,1153
DA:531,1153
DA:532,1153
DA:534,1110
DA:535,1110
DA:536,0
DA:537,0
DA:538,0
DA:539,0
DA:540,1110
DA:542,1110
DA:543,1110
DA:545,41
DA:547,41
DA:548,0
DA:549,41
DA:551,41
DA:552,41
DA:553,41
DA:554,41
DA:556,83
DA:557,41
DA:559,41
DA:560,0
DA:561,0
DA:562,41
DA:564,83
DA:566,41
DA:569,1110
DA:571,1110
DA:573,1110
DA:574,0
DA:575,1110
DA:577,1110
DA:579,1110
DA:580,2220
DA:581,2220
DA:582,2220
DA:583,2220
DA:585,1110
DA:586,0
DA:587,0
DA:588,0
DA:589,2220
DA:590,2220
DA:591,2220
DA:594,1110
DA:601,1
DA:602,1
DA:603,1
DA:605,1
DA:606,1
DA:607,1
DA:609,1
DA:610,1
DA:611,1
DA:614,1
DA:615,1
DA:616,1
DA:617,1
DA:619,1
DA:620,1
DA:621,1
DA:623,1
DA:624,1
DA:625,50
DA:626,50
DA:627,50
DA:630,1
DA:631,1
DA:632,1
DA:633,1
DA:636,1
DA:639,1
DA:640,1
DA:641,1
DA:643,1
DA:644,1
DA:645,1
DA:651,1
DA:654,1
DA:655,1
DA:656,1
DA:658,1
DA:659,1
DA:660,1
DA:662,1
DA:663,3
DA:664,1
DA:667,1
DA:668,1
DA:669,1
DA:671,1
DA:672,1
DA:673,1
DA:674,1
DA:676,1
DA:678,1
DA:679,1
DA:680,1
DA:681,1
DA:682,6
DA:683,1
DA:687,1
DA:688,1
DA:689,1
DA:690,1
DA:691,1
DA:693,1
DA:694,1
DA:695,1
DA:697,1
DA:698,1
DA:699,80
DA:700,80
DA:701,80
DA:704,1
DA:705,1
DA:706,1
DA:707,1
DA:710,1
BRF:0
BRH:0
LF:471
LH:342
end_of_record
SF:/Users/samcolak/Source Code/rust/neuron_server/library/neuralnet/src/training/metrics.rs
FN:17,_RNvNtNtCs1xmhvdYWKG8_9neuralnet8training7metrics23compute_quality_metrics
FN:5,_RNvNtNtCs1xmhvdYWKG8_9neuralnet8training7metrics25increment_confusion_count
FN:60,_RNCNCNvNtNtCs1xmhvdYWKG8_9neuralnet8training7metrics23compute_quality_metricss1_00B9_
FN:44,_RNCNvNtNtCs1xmhvdYWKG8_9neuralnet8training7metrics23compute_quality_metrics0B7_
FN:52,_RNCNvNtNtCs1xmhvdYWKG8_9neuralnet8training7metrics23compute_quality_metricss0_0B7_
FN:58,_RNCNvNtNtCs1xmhvdYWKG8_9neuralnet8training7metrics23compute_quality_metricss1_0B7_
FN:51,_RNCNvNtNtCs1xmhvdYWKG8_9neuralnet8training7metrics23compute_quality_metricss_0B7_
FNDA:36,_RNvNtNtCs1xmhvdYWKG8_9neuralnet8training7metrics23compute_quality_metrics
FNDA:49,_RNvNtNtCs1xmhvdYWKG8_9neuralnet8training7metrics25increment_confusion_count
FNDA:92,_RNCNCNvNtNtCs1xmhvdYWKG8_9neuralnet8training7metrics23compute_quality_metricss1_00B9_
FNDA:92,_RNCNvNtNtCs1xmhvdYWKG8_9neuralnet8training7metrics23compute_quality_metrics0B7_
FNDA:154,_RNCNvNtNtCs1xmhvdYWKG8_9neuralnet8training7metrics23compute_quality_metricss0_0B7_
FNDA:92,_RNCNvNtNtCs1xmhvdYWKG8_9neuralnet8training7metrics23compute_quality_metricss1_0B7_
FNDA:246,_RNCNvNtNtCs1xmhvdYWKG8_9neuralnet8training7metrics23compute_quality_metricss_0B7_
FNF:7
FNH:7
DA:5,49
DA:6,49
DA:7,49
DA:8,49
DA:9,49
DA:10,49
DA:11,49
DA:12,49
DA:13,49
DA:14,49
DA:15,49
DA:17,36
DA:18,36
DA:20,36
DA:21,92
DA:22,92
DA:23,92
DA:24,77
DA:25,77
DA:29,36
DA:30,0
DA:31,36
DA:33,36
DA:34,36
DA:35,36
DA:36,36
DA:37,36
DA:38,36
DA:40,92
DA:41,92
DA:42,92
DA:43,92
DA:44,92
DA:45,92
DA:46,92
DA:48,92
DA:49,92
DA:50,92
DA:51,246
DA:52,154
DA:53,92
DA:55,92
DA:56,92
DA:57,92
DA:58,92
DA:59,92
DA:60,92
DA:61,92
DA:62,92
DA:63,92
DA:64,92
DA:66,92
DA:67,70
DA:69,22
DA:72,92
DA:73,92
DA:75,0
DA:78,92
DA:79,70
DA:81,22
DA:84,92
DA:86,92
DA:87,92
DA:88,92
DA:89,92
DA:90,92
DA:91,92
DA:92,92
DA:93,92
DA:96,92
DA:97,92
DA:98,92
DA:99,92
DA:100,92
DA:101,92
DA:104,36
DA:105,36
DA:106,36
DA:107,36
DA:108,36
DA:109,36
DA:111,36
DA:112,35
DA:114,1
DA:117,36
DA:118,36
DA:120,0
DA:123,36
DA:124,35
DA:125,35
DA:127,1
DA:129,36
BRF:0
BRH:0
LF:97
LH:94
end_of_record
SF:/Users/samcolak/Source Code/rust/neuron_server/library/neuralnet/src/training/optimizers/adam.rs
FN:56,_RNvMs_NtNtNtCs1xmhvdYWKG8_9neuralnet8training10optimizers4adamNtB4_13AdamOptimizer15hyperparameters
FN:50,_RNvMs_NtNtNtCs1xmhvdYWKG8_9neuralnet8training10optimizers4adamNtB4_13AdamOptimizer9configure
FN:60,_RNvMs_NtNtNtCs1xmhvdYWKG8_9neuralnet8training10optimizers4adamNtB4_13AdamOptimizer16ensure_state_len
FN:67,_RNvMs_NtNtNtCs1xmhvdYWKG8_9neuralnet8training10optimizers4adamNtB4_13AdamOptimizer5apply
FN:7,_RNvNtNtNtCs1xmhvdYWKG8_9neuralnet8training10optimizers4adam13default_beta1
FN:11,_RNvNtNtNtCs1xmhvdYWKG8_9neuralnet8training10optimizers4adam13default_beta2
FN:15,_RNvNtNtNtCs1xmhvdYWKG8_9neuralnet8training10optimizers4adam15default_epsilon
FN:36,_RNvXNtNtNtCs1xmhvdYWKG8_9neuralnet8training10optimizers4adamNtB2_13AdamOptimizerNtNtCse2qo0L34Llq_4core7default7Default7default
FNDA:0,_RNvMs_NtNtNtCs1xmhvdYWKG8_9neuralnet8training10optimizers4adamNtB4_13AdamOptimizer15hyperparameters
FNDA:0,_RNvMs_NtNtNtCs1xmhvdYWKG8_9neuralnet8training10optimizers4adamNtB4_13AdamOptimizer9configure
FNDA:162,_RNvMs_NtNtNtCs1xmhvdYWKG8_9neuralnet8training10optimizers4adamNtB4_13AdamOptimizer16ensure_state_len
FNDA:162,_RNvMs_NtNtNtCs1xmhvdYWKG8_9neuralnet8training10optimizers4adamNtB4_13AdamOptimizer5apply
FNDA:0,_RNvNtNtNtCs1xmhvdYWKG8_9neuralnet8training10optimizers4adam13default_beta1
FNDA:0,_RNvNtNtNtCs1xmhvdYWKG8_9neuralnet8training10optimizers4adam13default_beta2
FNDA:0,_RNvNtNtNtCs1xmhvdYWKG8_9neuralnet8training10optimizers4adam15default_epsilon
FNDA:2,_RNvXNtNtNtCs1xmhvdYWKG8_9neuralnet8training10optimizers4adamNtB2_13AdamOptimizerNtNtCse2qo0L34Llq_4core7default7Default7default
FNF:8
FNH:3
DA:7,0
DA:8,0
DA:9,0
DA:11,0
DA:12,0
DA:13,0
DA:15,0
DA:16,0
DA:17,0
DA:36,2
DA:37,2
DA:38,2
DA:39,2
DA:40,2
DA:41,2
DA:42,2
DA:43,2
DA:44,2
DA:45,2
DA:50,0
DA:51,0
DA:52,0
DA:53,0
DA:54,0
DA:56,0
DA:57,0
DA:58,0
DA:60,162
DA:61,162
DA:62,2
DA:63,2
DA:64,160
DA:65,162
DA:67,162
DA:68,162
DA:69,162
DA:70,162
DA:71,162
DA:72,162
DA:73,162
DA:74,162
DA:75,162
DA:77,162
DA:78,162
DA:79,162
DA:80,162
DA:82,810
DA:83,810
DA:84,810
DA:85,810
DA:86,810
DA:87,810
DA:88,810
DA:89,810
DA:90,810
DA:91,810
DA:92,810
DA:93,162
BRF:0
BRH:0
LF:58
LH:41
end_of_record
SF:/Users/samcolak/Source Code/rust/neuron_server/library/neuralnet/src/training/optimizers/mod.rs
FN:64,_RNvMs_NtNtCs1xmhvdYWKG8_9neuralnet8training10optimizersNtB4_14OptimizerState14configure_adam
FN:37,_RNvMs_NtNtCs1xmhvdYWKG8_9neuralnet8training10optimizersNtB4_14OptimizerState4kind
FN:45,_RNvMs_NtNtCs1xmhvdYWKG8_9neuralnet8training10optimizersNtB4_14OptimizerState5apply
FN:29,_RNvMs_NtNtCs1xmhvdYWKG8_9neuralnet8training10optimizersNtB4_14OptimizerState9from_kind
FN:23,_RNvXNtNtCs1xmhvdYWKG8_9neuralnet8training10optimizersNtB2_14OptimizerStateNtNtCse2qo0L34Llq_4core7default7Default7default
FNDA:0,_RNvMs_NtNtCs1xmhvdYWKG8_9neuralnet8training10optimizersNtB4_14OptimizerState14configure_adam
FNDA:2094,_RNvMs_NtNtCs1xmhvdYWKG8_9neuralnet8training10optimizersNtB4_14OptimizerState4kind
FNDA:2094,_RNvMs_NtNtCs1xmhvdYWKG8_9neuralnet8training10optimizersNtB4_14OptimizerState5apply
FNDA:48,_RNvMs_NtNtCs1xmhvdYWKG8_9neuralnet8training10optimizersNtB4_14OptimizerState9from_kind
FNDA:0,_RNvXNtNtCs1xmhvdYWKG8_9neuralnet8training10optimizersNtB2_14OptimizerStateNtNtCse2qo0L34Llq_4core7default7Default7default
FNF:5
FNH:3
DA:23,0
DA:24,0
DA:25,0
DA:29,48
DA:30,48
DA:31,46
DA:33,2
DA:35,48
DA:37,2094
DA:38,2094
DA:39,1932
DA:41,162
DA:43,2094
DA:45,2094
DA:46,2094
DA:47,2094
DA:48,2094
DA:49,2094
DA:50,2094
DA:51,2094
DA:52,2094
DA:53,1932
DA:54,1932
DA:57,162
DA:58,162
DA:61,2094
DA:64,0
DA:65,0
DA:66,0
DA:67,0
DA:68,0
BRF:0
BRH:0
LF:31
LH:23
end_of_record
SF:/Users/samcolak/Source Code/rust/neuron_server/library/neuralnet/src/training/optimizers/sgd.rs
FN:8,_RNvMNtNtNtCs1xmhvdYWKG8_9neuralnet8training10optimizers3sgdNtB2_12SgdOptimizer5apply
FNDA:1932,_RNvMNtNtNtCs1xmhvdYWKG8_9neuralnet8training10optimizers3sgdNtB2_12SgdOptimizer5apply
FNF:1
FNH:1
DA:8,1932
DA:9,1932
DA:10,1932
DA:11,1932
DA:12,1932
DA:13,1932
DA:14,1932
DA:15,6964
DA:16,6964
DA:17,6964
DA:18,6964
DA:19,1932
BRF:0
BRH:0
LF:12
LH:12
end_of_record
SF:/Users/samcolak/Source Code/rust/neuron_server/library/neuralnet/src/training/trainer.rs
FN:220,_RNvNtNtNtCs1xmhvdYWKG8_9neuralnet8training7trainer5tests26vertical_stripes_image_8x8
FN:248,_RNvNtNtNtCs1xmhvdYWKG8_9neuralnet8training7trainer5tests27diagonal_gradient_image_8x8
FN:234,_RNvNtNtNtCs1xmhvdYWKG8_9neuralnet8training7trainer5tests28horizontal_stripes_image_8x8
FN:362,_RNvNtNtNtCs1xmhvdYWKG8_9neuralnet8training7trainer5testss_39batch_trainer_reports_counts_and_routes
FN:307,_RNvNtNtNtCs1xmhvdYWKG8_9neuralnet8training7trainer5testss_42trainer_bridge_can_mirror_to_both_networks
FN:287,_RNvNtNtNtCs1xmhvdYWKG8_9neuralnet8training7trainer5testss_42trainer_bridge_can_route_to_memory_network
FN:396,_RNvNtNtNtCs1xmhvdYWKG8_9neuralnet8training7trainer5testss_52batch_evaluation_returns_accuracy_and_unknown_counts
FN:259,_RNvNtNtNtCs1xmhvdYWKG8_9neuralnet8training7trainer5testss_54trainer_bridge_trains_classifier_and_cognitive_network
FN:496,_RNvNtNtNtCs1xmhvdYWKG8_9neuralnet8training7trainer5testss_62image_batch_evaluation_uses_cnn_path_and_reports_micro_metrics
FN:333,_RNvNtNtNtCs1xmhvdYWKG8_9neuralnet8training7trainer5testss_75trainer_bridge_predictions_include_expected_confidence_and_unknown_behavior
FN:23,_RNvMNtNtCs1xmhvdYWKG8_9neuralnet8training7trainerNtB2_12TrainerBatch3new
FN:46,_RNvMs_NtNtCs1xmhvdYWKG8_9neuralnet8training7trainerNtB4_23TrainerEvaluationSample3new
FN:446,_RNCNvNtNtNtCs1xmhvdYWKG8_9neuralnet8training7trainer5testss_52batch_evaluation_returns_accuracy_and_unknown_counts0B9_
FN:460,_RNCNvNtNtNtCs1xmhvdYWKG8_9neuralnet8training7trainer5testss_52batch_evaluation_returns_accuracy_and_unknown_countss0_0B9_
FN:467,_RNCNvNtNtNtCs1xmhvdYWKG8_9neuralnet8training7trainer5testss_52batch_evaluation_returns_accuracy_and_unknown_countss1_0B9_
FN:479,_RNCNvNtNtNtCs1xmhvdYWKG8_9neuralnet8training7trainer5testss_52batch_evaluation_returns_accuracy_and_unknown_countss2_0B9_
FN:453,_RNCNvNtNtNtCs1xmhvdYWKG8_9neuralnet8training7trainer5testss_52batch_evaluation_returns_accuracy_and_unknown_countss_0B9_
FN:280,_RNCNvNtNtNtCs1xmhvdYWKG8_9neuralnet8training7trainer5testss_54trainer_bridge_trains_classifier_and_cognitive_network0B9_
FN:554,_RNCNvNtNtNtCs1xmhvdYWKG8_9neuralnet8training7trainer5testss_62image_batch_evaluation_uses_cnn_path_and_reports_micro_metrics0B9_
FN:568,_RNCNvNtNtNtCs1xmhvdYWKG8_9neuralnet8training7trainer5testss_62image_batch_evaluation_uses_cnn_path_and_reports_micro_metricss0_0B9_
FN:561,_RNCNvNtNtNtCs1xmhvdYWKG8_9neuralnet8training7trainer5testss_62image_batch_evaluation_uses_cnn_path_and_reports_micro_metricss_0B9_
FN:348,_RNCNvNtNtNtCs1xmhvdYWKG8_9neuralnet8training7trainer5testss_75trainer_bridge_predictions_include_expected_confidence_and_unknown_behavior0B9_
FN:109,_RNvMs0_NtNtCs1xmhvdYWKG8_9neuralnet8training7trainerNtNtNtB9_4core5brain15MultiModalBrain21train_labeled_batches
FN:84,_RNvMs0_NtNtCs1xmhvdYWKG8_9neuralnet8training7trainerNtNtNtB9_4core5brain15MultiModalBrain21train_labeled_pattern
FN:149,_RNvMs0_NtNtCs1xmhvdYWKG8_9neuralnet8training7trainerNtNtNtB9_4core5brain15MultiModalBrain24evaluate_labeled_samples
FNDA:2,_RNvNtNtNtCs1xmhvdYWKG8_9neuralnet8training7trainer5tests26vertical_stripes_image_8x8
FNDA:1,_RNvNtNtNtCs1xmhvdYWKG8_9neuralnet8training7trainer5tests27diagonal_gradient_image_8x8
FNDA:2,_RNvNtNtNtCs1xmhvdYWKG8_9neuralnet8training7trainer5tests28horizontal_stripes_image_8x8
FNDA:1,_RNvNtNtNtCs1xmhvdYWKG8_9neuralnet8training7trainer5testss_39batch_trainer_reports_counts_and_routes
FNDA:1,_RNvNtNtNtCs1xmhvdYWKG8_9neuralnet8training7trainer5testss_42trainer_bridge_can_mirror_to_both_networks
FNDA:1,_RNvNtNtNtCs1xmhvdYWKG8_9neuralnet8training7trainer5testss_42trainer_bridge_can_route_to_memory_network
FNDA:1,_RNvNtNtNtCs1xmhvdYWKG8_9neuralnet8training7trainer5testss_52batch_evaluation_returns_accuracy_and_unknown_counts
FNDA:1,_RNvNtNtNtCs1xmhvdYWKG8_9neuralnet8training7trainer5testss_54trainer_bridge_trains_classifier_and_cognitive_network
FNDA:1,_RNvNtNtNtCs1xmhvdYWKG8_9neuralnet8training7trainer5testss_62image_batch_evaluation_uses_cnn_path_and_reports_micro_metrics
FNDA:1,_RNvNtNtNtCs1xmhvdYWKG8_9neuralnet8training7trainer5testss_75trainer_bridge_predictions_include_expected_confidence_and_unknown_behavior
FNDA:6,_RNvMNtNtCs1xmhvdYWKG8_9neuralnet8training7trainerNtB2_12TrainerBatch3new
FNDA:18,_RNvMs_NtNtCs1xmhvdYWKG8_9neuralnet8training7trainerNtB4_23TrainerEvaluationSample3new
FNDA:1,_RNCNvNtNtNtCs1xmhvdYWKG8_9neuralnet8training7trainer5testss_52batch_evaluation_returns_accuracy_and_unknown_counts0B9_
FNDA:1,_RNCNvNtNtNtCs1xmhvdYWKG8_9neuralnet8training7trainer5testss_52batch_evaluation_returns_accuracy_and_unknown_countss0_0B9_
FNDA:1,_RNCNvNtNtNtCs1xmhvdYWKG8_9neuralnet8training7trainer5testss_52batch_evaluation_returns_accuracy_and_unknown_countss1_0B9_
FNDA:1,_RNCNvNtNtNtCs1xmhvdYWKG8_9neuralnet8training7trainer5testss_52batch_evaluation_returns_accuracy_and_unknown_countss2_0B9_
FNDA:1,_RNCNvNtNtNtCs1xmhvdYWKG8_9neuralnet8training7trainer5testss_52batch_evaluation_returns_accuracy_and_unknown_countss_0B9_
FNDA:0,_RNCNvNtNtNtCs1xmhvdYWKG8_9neuralnet8training7trainer5testss_54trainer_bridge_trains_classifier_and_cognitive_network0B9_
FNDA:1,_RNCNvNtNtNtCs1xmhvdYWKG8_9neuralnet8training7trainer5testss_62image_batch_evaluation_uses_cnn_path_and_reports_micro_metrics0B9_
FNDA:1,_RNCNvNtNtNtCs1xmhvdYWKG8_9neuralnet8training7trainer5testss_62image_batch_evaluation_uses_cnn_path_and_reports_micro_metricss0_0B9_
FNDA:1,_RNCNvNtNtNtCs1xmhvdYWKG8_9neuralnet8training7trainer5testss_62image_batch_evaluation_uses_cnn_path_and_reports_micro_metricss_0B9_
FNDA:0,_RNCNvNtNtNtCs1xmhvdYWKG8_9neuralnet8training7trainer5testss_75trainer_bridge_predictions_include_expected_confidence_and_unknown_behavior0B9_
FNDA:3,_RNvMs0_NtNtCs1xmhvdYWKG8_9neuralnet8training7trainerNtNtNtB9_4core5brain15MultiModalBrain21train_labeled_batches
FNDA:49,_RNvMs0_NtNtCs1xmhvdYWKG8_9neuralnet8training7trainerNtNtNtB9_4core5brain15MultiModalBrain21train_labeled_pattern
FNDA:6,_RNvMs0_NtNtCs1xmhvdYWKG8_9neuralnet8training7trainerNtNtNtB9_4core5brain15MultiModalBrain24evaluate_labeled_samples
FNF:25
FNH:23
DA:23,6
DA:24,6
DA:25,6
DA:26,6
DA:27,6
DA:28,6
DA:46,18
DA:47,18
DA:48,18
DA:49,18
DA:50,18
DA:51,18
DA:84,49
DA:85,49
DA:86,49
DA:87,49
DA:88,49
DA:89,49
DA:90,49
DA:91,49
DA:92,49
DA:93,49
DA:95,49
DA:96,47
DA:97,47
DA:98,47
DA:99,1
DA:100,1
DA:101,1
DA:102,1
DA:103,1
DA:104,1
DA:105,1
DA:107,49
DA:109,3
DA:110,3
DA:111,3
DA:112,3
DA:113,3
DA:114,3
DA:115,3
DA:116,3
DA:118,6
DA:119,6
DA:120,6
DA:122,6
DA:123,0
DA:124,6
DA:126,9
DA:127,9
DA:128,9
DA:129,9
DA:130,9
DA:131,9
DA:132,9
DA:135,9
DA:136,9
DA:137,3
DA:138,6
DA:139,6
DA:140,6
DA:144,3
DA:145,3
DA:147,3
DA:149,6
DA:150,6
DA:151,6
DA:152,6
DA:154,6
DA:155,6
DA:156,6
DA:157,6
DA:159,18
DA:160,18
DA:162,18
DA:163,0
DA:164,0
DA:165,18
DA:167,18
DA:168,18
DA:169,2
DA:170,16
DA:171,16
DA:172,16
DA:174,18
DA:175,14
DA:176,14
DA:177,14
DA:178,14
DA:179,14
DA:180,14
DA:181,14
DA:182,14
DA:183,14
DA:184,0
DA:185,0
DA:186,0
DA:187,0
DA:188,0
DA:189,0
DA:190,0
DA:191,4
DA:192,4
DA:193,4
DA:194,4
DA:195,4
DA:196,4
DA:197,4
DA:198,4
DA:202,6
DA:203,6
DA:204,6
DA:206,6
DA:208,6
DA:210,6
DA:220,2
DA:221,2
DA:222,16
DA:223,128
DA:224,128
DA:225,64
DA:226,64
DA:227,64
DA:228,64
DA:231,2
DA:232,2
DA:234,2
DA:235,2
DA:236,16
DA:237,128
DA:238,128
DA:239,64
DA:240,64
DA:241,64
DA:242,64
DA:245,2
DA:246,2
DA:248,1
DA:249,1
DA:250,8
DA:251,64
DA:252,64
DA:253,64
DA:255,1
DA:256,1
DA:259,1
DA:260,1
DA:261,1
DA:262,1
DA:264,1
DA:265,1
DA:266,1
DA:267,1
DA:268,1
DA:269,1
DA:272,1
DA:273,1
DA:274,1
DA:276,1
DA:277,1
DA:278,1
DA:279,1
DA:280,1
DA:284,1
DA:287,1
DA:288,1
DA:289,1
DA:290,1
DA:292,1
DA:293,1
DA:294,1
DA:295,1
DA:296,1
DA:297,1
DA:300,1
DA:301,1
DA:302,1
DA:303,1
DA:304,1
DA:307,1
DA:308,1
DA:309,1
DA:310,1
DA:311,1
DA:312,1
DA:313,1
DA:315,1
DA:316,1
DA:317,1
DA:318,1
DA:319,1
DA:320,1
DA:323,1
DA:324,1
DA:325,1
DA:327,1
DA:328,1
DA:329,1
DA:330,1
DA:333,1
DA:334,1
DA:335,1
DA:337,1
DA:338,1
DA:339,1
DA:340,1
DA:341,1
DA:342,1
DA:345,1
DA:346,1
DA:347,1
DA:348,1
DA:349,1
DA:350,1
DA:352,1
DA:353,1
DA:355,1
DA:356,1
DA:357,1
DA:358,1
DA:359,1
DA:362,1
DA:363,1
DA:364,1
DA:366,1
DA:367,1
DA:368,1
DA:369,1
DA:370,1
DA:371,1
DA:374,1
DA:375,1
DA:376,1
DA:380,1
DA:381,1
DA:382,1
DA:383,1
DA:384,1
DA:387,1
DA:388,1
DA:389,1
DA:390,1
DA:391,1
DA:392,1
DA:393,1
DA:396,1
DA:397,1
DA:398,1
DA:400,1
DA:401,1
DA:402,1
DA:403,1
DA:405,1
DA:406,1
DA:407,1
DA:411,1
DA:412,1
DA:413,1
DA:414,1
DA:415,1
DA:416,1
DA:418,1
DA:419,1
DA:420,1
DA:421,1
DA:423,1
DA:424,1
DA:425,1
DA:427,1
DA:428,1
DA:429,1
DA:433,1
DA:434,1
DA:435,1
DA:436,1
DA:437,1
DA:438,1
DA:439,1
DA:440,1
DA:441,1
DA:442,1
DA:443,1
DA:444,1
DA:445,1
DA:446,1
DA:449,1
DA:450,1
DA:451,1
DA:452,1
DA:453,1
DA:456,1
DA:457,1
DA:458,1
DA:459,1
DA:460,1
DA:463,1
DA:464,1
DA:465,1
DA:466,1
DA:467,1
DA:468,1
DA:469,1
DA:470,1
DA:471,1
DA:472,1
DA:473,1
DA:475,1
DA:476,1
DA:477,1
DA:478,1
DA:479,1
DA:480,1
DA:481,1
DA:482,1
DA:483,1
DA:484,1
DA:485,1
DA:487,1
DA:488,1
DA:489,1
DA:490,1
DA:491,1
DA:492,1
DA:493,1
DA:496,1
DA:497,1
DA:498,1
DA:499,1
DA:500,1
DA:502,1
DA:503,1
DA:504,1
DA:505,1
DA:507,1
DA:508,1
DA:509,1
DA:510,1
DA:511,1
DA:512,1
DA:515,1
DA:516,1
DA:517,1
DA:518,1
DA:519,1
DA:524,1
DA:525,1
DA:526,1
DA:527,1
DA:528,1
DA:531,1
DA:533,1
DA:534,1
DA:535,1
DA:536,1
DA:537,1
DA:538,1
DA:539,1
DA:540,1
DA:544,1
DA:546,1
DA:547,1
DA:548,1
DA:549,1
DA:550,1
DA:551,1
DA:552,1
DA:553,1
DA:554,1
DA:557,1
DA:558,1
DA:559,1
DA:560,1
DA:561,1
DA:564,1
DA:565,1
DA:566,1
DA:567,1
DA:568,1
DA:571,1
DA:572,1
DA:573,1
DA:574,1
DA:575,1
BRF:0
BRH:0
LF:393
LH:381
end_of_record
SF:/Users/samcolak/Source Code/rust/neuron_server/library/neuralnet/src/training/training_loop.rs
FN:25,_RNvXNtNtCs1xmhvdYWKG8_9neuralnet8training13training_loopNtB2_18TrainingLoopConfigNtNtCse2qo0L34Llq_4core7default7Default7default
FN:237,_RNCNvNtNtNtCs1xmhvdYWKG8_9neuralnet8training13training_loop5testss_38training_loop_runs_and_reports_history0B9_
FN:538,_RNCNvNtNtNtCs1xmhvdYWKG8_9neuralnet8training13training_loop5testss_44training_loop_metrics_fixture_remains_stable0B9_
FN:555,_RNCNvNtNtNtCs1xmhvdYWKG8_9neuralnet8training13training_loop5testss_44training_loop_metrics_fixture_remains_stables0_0B9_
FN:562,_RNCNvNtNtNtCs1xmhvdYWKG8_9neuralnet8training13training_loop5testss_44training_loop_metrics_fixture_remains_stables1_0B9_
FN:548,_RNCNvNtNtNtCs1xmhvdYWKG8_9neuralnet8training13training_loop5testss_44training_loop_metrics_fixture_remains_stables_0B9_
FN:354,_RNCNvNtNtNtCs1xmhvdYWKG8_9neuralnet8training13training_loop5testss_54training_loop_persists_epoch_best_and_last_checkpoints0B9_
FN:358,_RNCNvNtNtNtCs1xmhvdYWKG8_9neuralnet8training13training_loop5testss_54training_loop_persists_epoch_best_and_last_checkpointss_0B9_
FN:404,_RNCNvNtNtNtCs1xmhvdYWKG8_9neuralnet8training13training_loop5testss_62training_loop_resume_from_best_checkpoint_restores_predictions0B9_
FN:466,_RNCNvNtNtNtCs1xmhvdYWKG8_9neuralnet8training13training_loop5testss_64training_loop_does_not_resume_when_checkpoint_payload_is_corrupt0B9_
FN:470,_RNCNvNtNtNtCs1xmhvdYWKG8_9neuralnet8training13training_loop5testss_64training_loop_does_not_resume_when_checkpoint_payload_is_corrupts_0B9_
FN:697,_RNCNvNtNtNtCs1xmhvdYWKG8_9neuralnet8training13training_loop5testss_67brain_training_loop_does_not_resume_when_classifier_file_is_missing0B9_
FN:616,_RNCNvNtNtNtCs1xmhvdYWKG8_9neuralnet8training13training_loop5testss_70brain_training_loop_does_not_resume_when_checkpoint_payload_is_corrupt0B9_
FN:623,_RNCNvNtNtNtCs1xmhvdYWKG8_9neuralnet8training13training_loop5testss_70brain_training_loop_does_not_resume_when_checkpoint_payload_is_corrupts_0B9_
FN:66,_RNvMs_NtNtCs1xmhvdYWKG8_9neuralnet8training13training_loopNtNtNtB8_4core5brain15MultiModalBrain28run_supervised_training_loop
FN:77,_RINvNtNtCs1xmhvdYWKG8_9neuralnet8training13training_loop38run_supervised_training_loop_for_modelNtNtB4_14dense_baseline18DenseTokenBaselineEB6_
FN:77,_RINvNtNtCs1xmhvdYWKG8_9neuralnet8training13training_loop38run_supervised_training_loop_for_modelNtNtNtB6_4core5brain15MultiModalBrainEB6_
FN:192,_RNvNtNtNtCs1xmhvdYWKG8_9neuralnet8training13training_loop5tests19checkpoint_test_dir
FN:198,_RNvNtNtNtCs1xmhvdYWKG8_9neuralnet8training13training_loop5tests27cleanup_checkpoint_test_dir
FN:203,_RNvNtNtNtCs1xmhvdYWKG8_9neuralnet8training13training_loop5testss_38training_loop_runs_and_reports_history
FN:508,_RNvNtNtNtCs1xmhvdYWKG8_9neuralnet8training13training_loop5testss_44training_loop_metrics_fixture_remains_stable
FN:243,_RNvNtNtNtCs1xmhvdYWKG8_9neuralnet8training13training_loop5testss_47training_loop_stops_early_when_patience_reached
FN:277,_RNvNtNtNtCs1xmhvdYWKG8_9neuralnet8training13training_loop5testss_52generic_training_loop_runs_with_dense_baseline_model
FN:313,_RNvNtNtNtCs1xmhvdYWKG8_9neuralnet8training13training_loop5testss_54training_loop_persists_epoch_best_and_last_checkpoints
FN:416,_RNvNtNtNtCs1xmhvdYWKG8_9neuralnet8training13training_loop5testss_59training_loop_does_not_resume_when_checkpoint_id_is_missing
FN:364,_RNvNtNtNtCs1xmhvdYWKG8_9neuralnet8training13training_loop5testss_62training_loop_resume_from_best_checkpoint_restores_predictions
FN:459,_RNvNtNtNtCs1xmhvdYWKG8_9neuralnet8training13training_loop5testss_64training_loop_does_not_resume_when_checkpoint_payload_is_corrupt
FN:568,_RNvNtNtNtCs1xmhvdYWKG8_9neuralnet8training13training_loop5testss_65brain_training_loop_does_not_resume_when_checkpoint_id_is_missing
FN:659,_RNvNtNtNtCs1xmhvdYWKG8_9neuralnet8training13training_loop5testss_67brain_training_loop_does_not_resume_when_classifier_file_is_missing
FN:609,_RNvNtNtNtCs1xmhvdYWKG8_9neuralnet8training13training_loop5testss_70brain_training_loop_does_not_resume_when_checkpoint_payload_is_corrupt
FNDA:16,_RNvXNtNtCs1xmhvdYWKG8_9neuralnet8training13training_loopNtB2_18TrainingLoopConfigNtNtCse2qo0L34Llq_4core7default7Default7default
FNDA:1,_RNCNvNtNtNtCs1xmhvdYWKG8_9neuralnet8training13training_loop5testss_38training_loop_runs_and_reports_history0B9_
FNDA:0,_RNCNvNtNtNtCs1xmhvdYWKG8_9neuralnet8training13training_loop5testss_44training_loop_metrics_fixture_remains_stable0B9_
FNDA:1,_RNCNvNtNtNtCs1xmhvdYWKG8_9neuralnet8training13training_loop5testss_44training_loop_metrics_fixture_remains_stables0_0B9_
FNDA:1,_RNCNvNtNtNtCs1xmhvdYWKG8_9neuralnet8training13training_loop5testss_44training_loop_metrics_fixture_remains_stables1_0B9_
FNDA:1,_RNCNvNtNtNtCs1xmhvdYWKG8_9neuralnet8training13training_loop5testss_44training_loop_metrics_fixture_remains_stables_0B9_
FNDA:1,_RNCNvNtNtNtCs1xmhvdYWKG8_9neuralnet8training13training_loop5testss_54training_loop_persists_epoch_best_and_last_checkpoints0B9_
FNDA:1,_RNCNvNtNtNtCs1xmhvdYWKG8_9neuralnet8training13training_loop5testss_54training_loop_persists_epoch_best_and_last_checkpointss_0B9_
FNDA:0,_RNCNvNtNtNtCs1xmhvdYWKG8_9neuralnet8training13training_loop5testss_62training_loop_resume_from_best_checkpoint_restores_predictions0B9_
FNDA:0,_RNCNvNtNtNtCs1xmhvdYWKG8_9neuralnet8training13training_loop5testss_64training_loop_does_not_resume_when_checkpoint_payload_is_corrupt0B9_
FNDA:0,_RNCNvNtNtNtCs1xmhvdYWKG8_9neuralnet8training13training_loop5testss_64training_loop_does_not_resume_when_checkpoint_payload_is_corrupts_0B9_
FNDA:0,_RNCNvNtNtNtCs1xmhvdYWKG8_9neuralnet8training13training_loop5testss_67brain_training_loop_does_not_resume_when_classifier_file_is_missing0B9_
FNDA:0,_RNCNvNtNtNtCs1xmhvdYWKG8_9neuralnet8training13training_loop5testss_70brain_training_loop_does_not_resume_when_checkpoint_payload_is_corrupt0B9_
FNDA:0,_RNCNvNtNtNtCs1xmhvdYWKG8_9neuralnet8training13training_loop5testss_70brain_training_loop_does_not_resume_when_checkpoint_payload_is_corrupts_0B9_
FNDA:11,_RNvMs_NtNtCs1xmhvdYWKG8_9neuralnet8training13training_loopNtNtNtB8_4core5brain15MultiModalBrain28run_supervised_training_loop
FNDA:5,_RINvNtNtCs1xmhvdYWKG8_9neuralnet8training13training_loop38run_supervised_training_loop_for_modelNtNtB4_14dense_baseline18DenseTokenBaselineEB6_
FNDA:11,_RINvNtNtCs1xmhvdYWKG8_9neuralnet8training13training_loop38run_supervised_training_loop_for_modelNtNtNtB6_4core5brain15MultiModalBrainEB6_
FNDA:21,_RNvNtNtNtCs1xmhvdYWKG8_9neuralnet8training13training_loop5tests19checkpoint_test_dir
FNDA:14,_RNvNtNtNtCs1xmhvdYWKG8_9neuralnet8training13training_loop5tests27cleanup_checkpoint_test_dir
FNDA:1,_RNvNtNtNtCs1xmhvdYWKG8_9neuralnet8training13training_loop5testss_38training_loop_runs_and_reports_history
FNDA:1,_RNvNtNtNtCs1xmhvdYWKG8_9neuralnet8training13training_loop5testss_44training_loop_metrics_fixture_remains_stable
FNDA:1,_RNvNtNtNtCs1xmhvdYWKG8_9neuralnet8training13training_loop5testss_47training_loop_stops_early_when_patience_reached
FNDA:1,_RNvNtNtNtCs1xmhvdYWKG8_9neuralnet8training13training_loop5testss_52generic_training_loop_runs_with_dense_baseline_model
FNDA:1,_RNvNtNtNtCs1xmhvdYWKG8_9neuralnet8training13training_loop5testss_54training_loop_persists_epoch_best_and_last_checkpoints
FNDA:1,_RNvNtNtNtCs1xmhvdYWKG8_9neuralnet8training13training_loop5testss_59training_loop_does_not_resume_when_checkpoint_id_is_missing
FNDA:1,_RNvNtNtNtCs1xmhvdYWKG8_9neuralnet8training13training_loop5testss_62training_loop_resume_from_best_checkpoint_restores_predictions
FNDA:1,_RNvNtNtNtCs1xmhvdYWKG8_9neuralnet8training13training_loop5testss_64training_loop_does_not_resume_when_checkpoint_payload_is_corrupt
FNDA:1,_RNvNtNtNtCs1xmhvdYWKG8_9neuralnet8training13training_loop5testss_65brain_training_loop_does_not_resume_when_checkpoint_id_is_missing
FNDA:1,_RNvNtNtNtCs1xmhvdYWKG8_9neuralnet8training13training_loop5testss_67brain_training_loop_does_not_resume_when_classifier_file_is_missing
FNDA:1,_RNvNtNtNtCs1xmhvdYWKG8_9neuralnet8training13training_loop5testss_70brain_training_loop_does_not_resume_when_checkpoint_payload_is_corrupt
FNF:29
FNH:22
DA:25,16
DA:26,16
DA:27,16
DA:28,16
DA:29,16
DA:30,16
DA:31,16
DA:32,16
DA:33,16
DA:34,16
DA:35,16
DA:36,16
DA:37,16
DA:38,16
DA:66,11
DA:67,11
DA:68,11
DA:69,11
DA:70,11
DA:71,11
DA:72,11
DA:73,11
DA:74,11
DA:77,16
DA:78,16
DA:79,16
DA:80,16
DA:81,16
DA:82,16
DA:83,16
DA:85,16
DA:86,16
DA:87,16
DA:88,16
DA:90,16
DA:91,0
DA:92,16
DA:94,16
DA:95,10
DA:97,10
DA:98,6
DA:99,6
DA:100,6
DA:101,1
DA:102,1
DA:103,9
DA:104,6
DA:106,16
DA:108,25
DA:109,25
DA:110,25
DA:111,25
DA:112,25
DA:113,25
DA:116,25
DA:117,0
DA:119,25
DA:122,25
DA:123,25
DA:124,25
DA:125,25
DA:126,25
DA:127,25
DA:128,25
DA:129,25
DA:131,25
DA:132,25
DA:133,25
DA:135,25
DA:136,25
DA:138,25
DA:139,16
DA:140,16
DA:141,16
DA:143,16
DA:144,10
DA:145,4
DA:146,4
DA:147,4
DA:148,12
DA:149,9
DA:150,9
DA:151,9
DA:153,25
DA:154,4
DA:155,4
DA:156,2
DA:158,2
DA:159,2
DA:160,2
DA:161,2
DA:162,23
DA:164,25
DA:165,6
DA:167,2
DA:168,23
DA:171,16
DA:172,7
DA:173,1
DA:174,1
DA:175,1
DA:176,15
DA:178,16
DA:179,16
DA:192,21
DA:193,21
DA:194,21
DA:195,21
DA:196,21
DA:198,14
DA:199,14
DA:200,14
DA:203,1
DA:204,1
DA:205,1
DA:207,1
DA:208,1
DA:209,1
DA:212,1
DA:213,1
DA:214,1
DA:215,1
DA:218,1
DA:219,1
DA:220,1
DA:221,1
DA:223,1
DA:224,1
DA:225,1
DA:226,1
DA:227,1
DA:230,1
DA:231,1
DA:232,1
DA:233,1
DA:234,1
DA:235,1
DA:236,1
DA:237,1
DA:238,1
DA:240,1
DA:243,1
DA:244,1
DA:245,1
DA:247,1
DA:248,1
DA:249,1
DA:252,1
DA:253,1
DA:254,1
DA:257,1
DA:258,1
DA:259,1
DA:260,1
DA:261,1
DA:262,1
DA:264,1
DA:265,1
DA:266,1
DA:267,1
DA:268,1
DA:271,1
DA:272,1
DA:274,1
DA:277,1
DA:278,1
DA:279,1
DA:281,1
DA:282,1
DA:283,1
DA:286,1
DA:287,1
DA:288,1
DA:289,1
DA:292,1
DA:293,1
DA:294,1
DA:295,1
DA:296,1
DA:297,1
DA:299,1
DA:300,1
DA:301,1
DA:302,1
DA:303,1
DA:304,1
DA:307,1
DA:308,1
DA:309,1
DA:310,1
DA:313,1
DA:314,1
DA:315,1
DA:317,1
DA:318,1
DA:319,1
DA:321,1
DA:322,1
DA:323,1
DA:326,1
DA:327,1
DA:328,1
DA:329,1
DA:332,1
DA:333,1
DA:334,1
DA:335,1
DA:336,1
DA:337,1
DA:338,1
DA:339,1
DA:341,1
DA:342,1
DA:343,1
DA:344,1
DA:345,1
DA:348,1
DA:349,1
DA:350,1
DA:351,1
DA:352,1
DA:353,1
DA:354,1
DA:355,1
DA:356,1
DA:357,1
DA:358,1
DA:360,1
DA:361,1
DA:364,1
DA:365,1
DA:366,1
DA:368,1
DA:369,1
DA:370,1
DA:371,1
DA:372,1
DA:374,1
DA:375,1
DA:376,1
DA:377,1
DA:380,1
DA:381,1
DA:382,1
DA:383,1
DA:384,1
DA:385,1
DA:386,1
DA:387,1
DA:389,1
DA:390,1
DA:391,1
DA:392,1
DA:393,1
DA:394,1
DA:397,1
DA:399,1
DA:401,1
DA:402,1
DA:403,1
DA:404,1
DA:406,1
DA:408,1
DA:409,1
DA:410,1
DA:412,1
DA:413,1
DA:416,1
DA:417,1
DA:418,1
DA:420,1
DA:421,1
DA:422,1
DA:424,1
DA:425,1
DA:426,1
DA:429,1
DA:430,1
DA:431,1
DA:434,1
DA:435,1
DA:436,1
DA:437,1
DA:438,1
DA:439,1
DA:440,1
DA:441,1
DA:442,1
DA:444,1
DA:445,1
DA:446,1
DA:447,1
DA:448,1
DA:449,1
DA:452,1
DA:453,1
DA:455,1
DA:456,1
DA:459,1
DA:460,1
DA:461,1
DA:463,1
DA:464,1
DA:465,1
DA:466,1
DA:468,1
DA:469,1
DA:470,1
DA:472,1
DA:473,1
DA:474,1
DA:475,1
DA:478,1
DA:479,1
DA:480,1
DA:483,1
DA:484,1
DA:485,1
DA:486,1
DA:487,1
DA:488,1
DA:489,1
DA:490,1
DA:491,1
DA:493,1
DA:494,1
DA:495,1
DA:496,1
DA:497,1
DA:498,1
DA:501,1
DA:502,1
DA:504,1
DA:505,1
DA:508,1
DA:509,1
DA:510,1
DA:512,1
DA:513,1
DA:514,1
DA:517,1
DA:518,1
DA:519,1
DA:520,1
DA:523,1
DA:524,1
DA:525,1
DA:526,1
DA:528,1
DA:529,1
DA:530,1
DA:531,1
DA:532,1
DA:533,1
DA:536,1
DA:537,1
DA:538,1
DA:540,1
DA:541,1
DA:542,1
DA:543,1
DA:544,1
DA:545,1
DA:546,1
DA:547,1
DA:548,1
DA:551,1
DA:552,1
DA:553,1
DA:554,1
DA:555,1
DA:558,1
DA:559,1
DA:560,1
DA:561,1
DA:562,1
DA:565,1
DA:568,1
DA:569,1
DA:570,1
DA:572,1
DA:573,1
DA:574,1
DA:576,1
DA:577,1
DA:578,1
DA:581,1
DA:582,1
DA:583,1
DA:586,1
DA:587,1
DA:588,1
DA:589,1
DA:590,1
DA:591,1
DA:592,1
DA:593,1
DA:595,1
DA:596,1
DA:597,1
DA:598,1
DA:599,1
DA:602,1
DA:603,1
DA:605,1
DA:606,1
DA:609,1
DA:610,1
DA:611,1
DA:613,1
DA:614,1
DA:615,1
DA:616,1
DA:618,1
DA:619,1
DA:620,1
DA:622,1
DA:623,1
DA:625,1
DA:626,1
DA:627,1
DA:628,1
DA:631,1
DA:632,1
DA:633,1
DA:636,1
DA:637,1
DA:638,1
DA:639,1
DA:640,1
DA:641,1
DA:642,1
DA:643,1
DA:645,1
DA:646,1
DA:647,1
DA:648,1
DA:649,1
DA:652,1
DA:653,1
DA:655,1
DA:656,1
DA:659,1
DA:660,1
DA:661,1
DA:663,1
DA:664,1
DA:666,1
DA:667,1
DA:668,1
DA:671,1
DA:672,1
DA:673,1
DA:676,1
DA:677,1
DA:678,1
DA:679,1
DA:680,1
DA:681,1
DA:682,1
DA:683,1
DA:685,1
DA:686,1
DA:687,1
DA:688,1
DA:689,1
DA:691,1
DA:693,1
DA:694,1
DA:695,1
DA:696,1
DA:697,1
DA:699,1
DA:700,1
DA:701,1
DA:702,1
DA:703,1
DA:704,1
DA:705,1
DA:706,1
DA:707,1
DA:709,1
DA:710,1
DA:711,1
DA:712,1
DA:713,1
DA:716,1
DA:717,1
DA:719,1
DA:720,1
BRF:0
BRH:0
LF:503
LH:494
end_of_record