SF:/Users/samcolak/Source Code/rust/neuron_server/pt5/neuron/src/brain_stress_walkthrough.rs
FN:51,_RNvNtCsl67wFTZafe0_6neuron24brain_stress_walkthrough19run_stress_scenario
FN:45,_RNvNtCsl67wFTZafe0_6neuron24brain_stress_walkthrough19stress_snapshot_dir
FN:192,_RNvNtNtCsl67wFTZafe0_6neuron24brain_stress_walkthrough5testss_37stress_scenario_runs_without_snapshot
FN:209,_RNvNtNtCsl67wFTZafe0_6neuron24brain_stress_walkthrough5testss_42stress_scenario_runs_with_batched_snapshot
FN:39,_RNCNvNtCsl67wFTZafe0_6neuron24brain_stress_walkthrough15parse_env_usize0B5_
FN:33,_RNvNtCsl67wFTZafe0_6neuron24brain_stress_walkthrough15parse_env_usize
FN:143,_RNvNtCsl67wFTZafe0_6neuron24brain_stress_walkthrough28run_brain_stress_walkthrough
FNDA:2,_RNvNtCsl67wFTZafe0_6neuron24brain_stress_walkthrough19run_stress_scenario
FNDA:1,_RNvNtCsl67wFTZafe0_6neuron24brain_stress_walkthrough19stress_snapshot_dir
FNDA:1,_RNvNtNtCsl67wFTZafe0_6neuron24brain_stress_walkthrough5testss_37stress_scenario_runs_without_snapshot
FNDA:1,_RNvNtNtCsl67wFTZafe0_6neuron24brain_stress_walkthrough5testss_42stress_scenario_runs_with_batched_snapshot
FNDA:0,_RNCNvNtCsl67wFTZafe0_6neuron24brain_stress_walkthrough15parse_env_usize0B5_
FNDA:0,_RNvNtCsl67wFTZafe0_6neuron24brain_stress_walkthrough15parse_env_usize
FNDA:0,_RNvNtCsl67wFTZafe0_6neuron24brain_stress_walkthrough28run_brain_stress_walkthrough
FNF:7
FNH:4
DA:33,0
DA:34,0
DA:35,0
DA:36,0
DA:37,0
DA:38,0
DA:39,0
DA:40,0
DA:41,0
DA:43,0
DA:45,1
DA:46,1
DA:47,1
DA:48,1
DA:49,1
DA:51,2
DA:52,2
DA:53,2
DA:55,2
DA:56,2
DA:57,2
DA:59,2
DA:60,1
DA:61,1
DA:62,1
DA:63,1
DA:65,1
DA:66,1
DA:68,1
DA:69,200
DA:70,200
DA:71,200
DA:72,40
DA:73,160
DA:74,160
DA:75,160
DA:77,1
DA:79,1
DA:80,1
DA:81,1
DA:82,1
DA:84,1
DA:85,1
DA:86,40
DA:87,40
DA:88,40
DA:89,40
DA:90,40
DA:91,1
DA:93,1
DA:94,1
DA:95,1
DA:96,1
DA:97,1
DA:98,1
DA:99,1
DA:100,1
DA:101,1
DA:102,1
DA:103,1
DA:104,1
DA:105,1
DA:106,1
DA:108,1
DA:109,200
DA:110,200
DA:111,200
DA:112,40
DA:113,160
DA:114,160
DA:115,160
DA:117,1
DA:119,1
DA:120,1
DA:121,40
DA:122,40
DA:123,40
DA:124,40
DA:125,40
DA:126,1
DA:128,1
DA:129,1
DA:130,1
DA:131,1
DA:132,1
DA:133,1
DA:134,1
DA:135,1
DA:136,1
DA:137,1
DA:138,1
DA:139,1
DA:140,1
DA:141,2
DA:143,0
DA:144,0
DA:145,0
DA:146,0
DA:147,0
DA:148,0
DA:150,0
DA:151,0
DA:156,0
DA:157,0
DA:166,0
DA:167,0
DA:175,0
DA:180,0
DA:181,0
DA:182,0
DA:183,0
DA:185,0
DA:192,1
DA:193,1
DA:194,1
DA:195,1
DA:196,1
DA:197,1
DA:198,1
DA:202,1
DA:203,1
DA:204,1
DA:205,1
DA:206,1
DA:209,1
DA:210,1
DA:211,1
DA:212,1
DA:213,1
DA:214,1
DA:215,1
DA:219,1
DA:220,1
DA:221,1
DA:222,1
DA:223,1
BRF:0
BRH:0
LF:137
LH:108
end_of_record
SF:/Users/samcolak/Source Code/rust/neuron_server/pt5/neuron/src/cnn_classifier_walkthrough.rs
FN:862,_RNvNtNtCsl67wFTZafe0_6neuron26cnn_classifier_walkthrough5testss_50cnn_classifier_walkthrough_improves_cat_prediction
FN:1065,_RNvNtNtCsl67wFTZafe0_6neuron26cnn_classifier_walkthrough5testss_66cnn_classifier_walkthrough_scale_summary_reports_threshold_metrics
FN:1033,_RNvNtNtCsl67wFTZafe0_6neuron26cnn_classifier_walkthrough5testss_68cnn_classifier_walkthrough_optimizer_summary_reports_both_optimizers
FN:916,_RNvNtNtCsl67wFTZafe0_6neuron26cnn_classifier_walkthrough5testss_68cnn_classifier_walkthrough_pipeline_wireup_trains_with_augmentations
FN:973,_RNvNtNtCsl67wFTZafe0_6neuron26cnn_classifier_walkthrough5testss_69cnn_classifier_walkthrough_optimizer_comparison_supports_sgd_and_adam
FN:109,_RNCNvNtCsl67wFTZafe0_6neuron26cnn_classifier_walkthrough25collect_optimizer_summary0B5_
FN:163,_RNCNvNtCsl67wFTZafe0_6neuron26cnn_classifier_walkthrough25collect_optimizer_summarys_0B5_
FN:265,_RNCNvNtCsl67wFTZafe0_6neuron26cnn_classifier_walkthrough28collect_scale_option_summary0B5_
FN:307,_RNCNvNtCsl67wFTZafe0_6neuron26cnn_classifier_walkthrough28collect_scale_option_summarys_0B5_
FN:90,_RNCNvNtCsl67wFTZafe0_6neuron26cnn_classifier_walkthrough6stddev0B5_
FN:869,_RNCNvNtNtCsl67wFTZafe0_6neuron26cnn_classifier_walkthrough5testss_50cnn_classifier_walkthrough_improves_cat_prediction0B7_
FN:1082,_RNCNvNtNtCsl67wFTZafe0_6neuron26cnn_classifier_walkthrough5testss_66cnn_classifier_walkthrough_scale_summary_reports_threshold_metrics0B7_
FN:1084,_RNCNvNtNtCsl67wFTZafe0_6neuron26cnn_classifier_walkthrough5testss_66cnn_classifier_walkthrough_scale_summary_reports_threshold_metricss0_0B7_
FN:1083,_RNCNvNtNtCsl67wFTZafe0_6neuron26cnn_classifier_walkthrough5testss_66cnn_classifier_walkthrough_scale_summary_reports_threshold_metricss_0B7_
FN:1054,_RNCNvNtNtCsl67wFTZafe0_6neuron26cnn_classifier_walkthrough5testss_68cnn_classifier_walkthrough_optimizer_summary_reports_both_optimizers0B7_
FN:1056,_RNCNvNtNtCsl67wFTZafe0_6neuron26cnn_classifier_walkthrough5testss_68cnn_classifier_walkthrough_optimizer_summary_reports_both_optimizerss0_0B7_
FN:1057,_RNCNvNtNtCsl67wFTZafe0_6neuron26cnn_classifier_walkthrough5testss_68cnn_classifier_walkthrough_optimizer_summary_reports_both_optimizerss1_0B7_
FN:1058,_RNCNvNtNtCsl67wFTZafe0_6neuron26cnn_classifier_walkthrough5testss_68cnn_classifier_walkthrough_optimizer_summary_reports_both_optimizerss2_0B7_
FN:1061,_RNCNvNtNtCsl67wFTZafe0_6neuron26cnn_classifier_walkthrough5testss_68cnn_classifier_walkthrough_optimizer_summary_reports_both_optimizerss3_0B7_
FN:1055,_RNCNvNtNtCsl67wFTZafe0_6neuron26cnn_classifier_walkthrough5testss_68cnn_classifier_walkthrough_optimizer_summary_reports_both_optimizerss_0B7_
FN:923,_RNCNvNtNtCsl67wFTZafe0_6neuron26cnn_classifier_walkthrough5testss_68cnn_classifier_walkthrough_pipeline_wireup_trains_with_augmentations0B7_
FN:1018,_RNCNvNtNtCsl67wFTZafe0_6neuron26cnn_classifier_walkthrough5testss_69cnn_classifier_walkthrough_optimizer_comparison_supports_sgd_and_adam0B7_
FN:99,_RNvNtCsl67wFTZafe0_6neuron26cnn_classifier_walkthrough25collect_optimizer_summary
FN:242,_RNvNtCsl67wFTZafe0_6neuron26cnn_classifier_walkthrough28collect_scale_option_summary
FN:77,_RNvNtCsl67wFTZafe0_6neuron26cnn_classifier_walkthrough4mean
FN:84,_RNvNtCsl67wFTZafe0_6neuron26cnn_classifier_walkthrough6stddev
FN:466,_RNCNCNvNtCsl67wFTZafe0_6neuron26cnn_classifier_walkthrough31run_scheduler_production_recipe00B7_
FN:479,_RNCNCNvNtCsl67wFTZafe0_6neuron26cnn_classifier_walkthrough31run_scheduler_production_recipes0_00B7_
FN:501,_RNCNvNtCsl67wFTZafe0_6neuron26cnn_classifier_walkthrough30run_cnn_classifier_walkthrough0B5_
FN:528,_RNCNvNtCsl67wFTZafe0_6neuron26cnn_classifier_walkthrough30run_cnn_classifier_walkthroughs0_0B5_
FN:590,_RNCNvNtCsl67wFTZafe0_6neuron26cnn_classifier_walkthrough30run_cnn_classifier_walkthroughs1_0B5_
FN:614,_RNCNvNtCsl67wFTZafe0_6neuron26cnn_classifier_walkthrough30run_cnn_classifier_walkthroughs2_0B5_
FN:632,_RNCNvNtCsl67wFTZafe0_6neuron26cnn_classifier_walkthrough30run_cnn_classifier_walkthroughs3_0B5_
FN:635,_RNCNvNtCsl67wFTZafe0_6neuron26cnn_classifier_walkthrough30run_cnn_classifier_walkthroughs4_0B5_
FN:639,_RNCNvNtCsl67wFTZafe0_6neuron26cnn_classifier_walkthrough30run_cnn_classifier_walkthroughs5_0B5_
FN:682,_RNCNvNtCsl67wFTZafe0_6neuron26cnn_classifier_walkthrough30run_cnn_classifier_walkthroughs6_0B5_
FN:742,_RNCNvNtCsl67wFTZafe0_6neuron26cnn_classifier_walkthrough30run_cnn_classifier_walkthroughs7_0B5_
FN:541,_RNCNvNtCsl67wFTZafe0_6neuron26cnn_classifier_walkthrough30run_cnn_classifier_walkthroughs8_0B5_
FN:542,_RNCNvNtCsl67wFTZafe0_6neuron26cnn_classifier_walkthrough30run_cnn_classifier_walkthroughs9_0B5_
FN:503,_RNCNvNtCsl67wFTZafe0_6neuron26cnn_classifier_walkthrough30run_cnn_classifier_walkthroughs_0B5_
FN:585,_RNCNvNtCsl67wFTZafe0_6neuron26cnn_classifier_walkthrough30run_cnn_classifier_walkthroughsa_0B5_
FN:586,_RNCNvNtCsl67wFTZafe0_6neuron26cnn_classifier_walkthrough30run_cnn_classifier_walkthroughsb_0B5_
FN:374,_RNCNvNtCsl67wFTZafe0_6neuron26cnn_classifier_walkthrough31collect_large_benchmark_summary0B5_
FN:423,_RNCNvNtCsl67wFTZafe0_6neuron26cnn_classifier_walkthrough31collect_large_benchmark_summarys_0B5_
FN:463,_RNCNvNtCsl67wFTZafe0_6neuron26cnn_classifier_walkthrough31run_scheduler_production_recipe0B5_
FN:476,_RNCNvNtCsl67wFTZafe0_6neuron26cnn_classifier_walkthrough31run_scheduler_production_recipes0_0B5_
FN:485,_RNCNvNtCsl67wFTZafe0_6neuron26cnn_classifier_walkthrough31run_scheduler_production_recipes1_0B5_
FN:487,_RNCNvNtCsl67wFTZafe0_6neuron26cnn_classifier_walkthrough31run_scheduler_production_recipes2_0B5_
FN:472,_RNCNvNtCsl67wFTZafe0_6neuron26cnn_classifier_walkthrough31run_scheduler_production_recipes_0B5_
FN:354,_RNvNtCsl67wFTZafe0_6neuron26cnn_classifier_walkthrough13striped_image
FN:494,_RNvNtCsl67wFTZafe0_6neuron26cnn_classifier_walkthrough30run_cnn_classifier_walkthrough
FN:366,_RNvNtCsl67wFTZafe0_6neuron26cnn_classifier_walkthrough31collect_large_benchmark_summary
FN:452,_RNvNtCsl67wFTZafe0_6neuron26cnn_classifier_walkthrough31run_scheduler_production_recipe
FNDA:1,_RNvNtNtCsl67wFTZafe0_6neuron26cnn_classifier_walkthrough5testss_50cnn_classifier_walkthrough_improves_cat_prediction
FNDA:1,_RNvNtNtCsl67wFTZafe0_6neuron26cnn_classifier_walkthrough5testss_66cnn_classifier_walkthrough_scale_summary_reports_threshold_metrics
FNDA:1,_RNvNtNtCsl67wFTZafe0_6neuron26cnn_classifier_walkthrough5testss_68cnn_classifier_walkthrough_optimizer_summary_reports_both_optimizers
FNDA:1,_RNvNtNtCsl67wFTZafe0_6neuron26cnn_classifier_walkthrough5testss_68cnn_classifier_walkthrough_pipeline_wireup_trains_with_augmentations
FNDA:1,_RNvNtNtCsl67wFTZafe0_6neuron26cnn_classifier_walkthrough5testss_69cnn_classifier_walkthrough_optimizer_comparison_supports_sgd_and_adam
FNDA:0,_RNCNvNtCsl67wFTZafe0_6neuron26cnn_classifier_walkthrough25collect_optimizer_summary0B5_
FNDA:0,_RNCNvNtCsl67wFTZafe0_6neuron26cnn_classifier_walkthrough25collect_optimizer_summarys_0B5_
FNDA:0,_RNCNvNtCsl67wFTZafe0_6neuron26cnn_classifier_walkthrough28collect_scale_option_summary0B5_
FNDA:0,_RNCNvNtCsl67wFTZafe0_6neuron26cnn_classifier_walkthrough28collect_scale_option_summarys_0B5_
FNDA:24,_RNCNvNtCsl67wFTZafe0_6neuron26cnn_classifier_walkthrough6stddev0B5_
FNDA:0,_RNCNvNtNtCsl67wFTZafe0_6neuron26cnn_classifier_walkthrough5testss_50cnn_classifier_walkthrough_improves_cat_prediction0B7_
FNDA:3,_RNCNvNtNtCsl67wFTZafe0_6neuron26cnn_classifier_walkthrough5testss_66cnn_classifier_walkthrough_scale_summary_reports_threshold_metrics0B7_
FNDA:3,_RNCNvNtNtCsl67wFTZafe0_6neuron26cnn_classifier_walkthrough5testss_66cnn_classifier_walkthrough_scale_summary_reports_threshold_metricss0_0B7_
FNDA:3,_RNCNvNtNtCsl67wFTZafe0_6neuron26cnn_classifier_walkthrough5testss_66cnn_classifier_walkthrough_scale_summary_reports_threshold_metricss_0B7_
FNDA:4,_RNCNvNtNtCsl67wFTZafe0_6neuron26cnn_classifier_walkthrough5testss_68cnn_classifier_walkthrough_optimizer_summary_reports_both_optimizers0B7_
FNDA:4,_RNCNvNtNtCsl67wFTZafe0_6neuron26cnn_classifier_walkthrough5testss_68cnn_classifier_walkthrough_optimizer_summary_reports_both_optimizerss0_0B7_
FNDA:4,_RNCNvNtNtCsl67wFTZafe0_6neuron26cnn_classifier_walkthrough5testss_68cnn_classifier_walkthrough_optimizer_summary_reports_both_optimizerss1_0B7_
FNDA:4,_RNCNvNtNtCsl67wFTZafe0_6neuron26cnn_classifier_walkthrough5testss_68cnn_classifier_walkthrough_optimizer_summary_reports_both_optimizerss2_0B7_
FNDA:4,_RNCNvNtNtCsl67wFTZafe0_6neuron26cnn_classifier_walkthrough5testss_68cnn_classifier_walkthrough_optimizer_summary_reports_both_optimizerss3_0B7_
FNDA:4,_RNCNvNtNtCsl67wFTZafe0_6neuron26cnn_classifier_walkthrough5testss_68cnn_classifier_walkthrough_optimizer_summary_reports_both_optimizerss_0B7_
FNDA:0,_RNCNvNtNtCsl67wFTZafe0_6neuron26cnn_classifier_walkthrough5testss_68cnn_classifier_walkthrough_pipeline_wireup_trains_with_augmentations0B7_
FNDA:0,_RNCNvNtNtCsl67wFTZafe0_6neuron26cnn_classifier_walkthrough5testss_69cnn_classifier_walkthrough_optimizer_comparison_supports_sgd_and_adam0B7_
FNDA:1,_RNvNtCsl67wFTZafe0_6neuron26cnn_classifier_walkthrough25collect_optimizer_summary
FNDA:1,_RNvNtCsl67wFTZafe0_6neuron26cnn_classifier_walkthrough28collect_scale_option_summary
FNDA:18,_RNvNtCsl67wFTZafe0_6neuron26cnn_classifier_walkthrough4mean
FNDA:8,_RNvNtCsl67wFTZafe0_6neuron26cnn_classifier_walkthrough6stddev
FNDA:0,_RNCNCNvNtCsl67wFTZafe0_6neuron26cnn_classifier_walkthrough31run_scheduler_production_recipe00B7_
FNDA:0,_RNCNCNvNtCsl67wFTZafe0_6neuron26cnn_classifier_walkthrough31run_scheduler_production_recipes0_00B7_
FNDA:0,_RNCNvNtCsl67wFTZafe0_6neuron26cnn_classifier_walkthrough30run_cnn_classifier_walkthrough0B5_
FNDA:0,_RNCNvNtCsl67wFTZafe0_6neuron26cnn_classifier_walkthrough30run_cnn_classifier_walkthroughs0_0B5_
FNDA:0,_RNCNvNtCsl67wFTZafe0_6neuron26cnn_classifier_walkthrough30run_cnn_classifier_walkthroughs1_0B5_
FNDA:0,_RNCNvNtCsl67wFTZafe0_6neuron26cnn_classifier_walkthrough30run_cnn_classifier_walkthroughs2_0B5_
FNDA:0,_RNCNvNtCsl67wFTZafe0_6neuron26cnn_classifier_walkthrough30run_cnn_classifier_walkthroughs3_0B5_
FNDA:0,_RNCNvNtCsl67wFTZafe0_6neuron26cnn_classifier_walkthrough30run_cnn_classifier_walkthroughs4_0B5_
FNDA:0,_RNCNvNtCsl67wFTZafe0_6neuron26cnn_classifier_walkthrough30run_cnn_classifier_walkthroughs5_0B5_
FNDA:0,_RNCNvNtCsl67wFTZafe0_6neuron26cnn_classifier_walkthrough30run_cnn_classifier_walkthroughs6_0B5_
FNDA:0,_RNCNvNtCsl67wFTZafe0_6neuron26cnn_classifier_walkthrough30run_cnn_classifier_walkthroughs7_0B5_
FNDA:0,_RNCNvNtCsl67wFTZafe0_6neuron26cnn_classifier_walkthrough30run_cnn_classifier_walkthroughs8_0B5_
FNDA:0,_RNCNvNtCsl67wFTZafe0_6neuron26cnn_classifier_walkthrough30run_cnn_classifier_walkthroughs9_0B5_
FNDA:0,_RNCNvNtCsl67wFTZafe0_6neuron26cnn_classifier_walkthrough30run_cnn_classifier_walkthroughs_0B5_
FNDA:0,_RNCNvNtCsl67wFTZafe0_6neuron26cnn_classifier_walkthrough30run_cnn_classifier_walkthroughsa_0B5_
FNDA:0,_RNCNvNtCsl67wFTZafe0_6neuron26cnn_classifier_walkthrough30run_cnn_classifier_walkthroughsb_0B5_
FNDA:0,_RNCNvNtCsl67wFTZafe0_6neuron26cnn_classifier_walkthrough31collect_large_benchmark_summary0B5_
FNDA:0,_RNCNvNtCsl67wFTZafe0_6neuron26cnn_classifier_walkthrough31collect_large_benchmark_summarys_0B5_
FNDA:0,_RNCNvNtCsl67wFTZafe0_6neuron26cnn_classifier_walkthrough31run_scheduler_production_recipe0B5_
FNDA:0,_RNCNvNtCsl67wFTZafe0_6neuron26cnn_classifier_walkthrough31run_scheduler_production_recipes0_0B5_
FNDA:0,_RNCNvNtCsl67wFTZafe0_6neuron26cnn_classifier_walkthrough31run_scheduler_production_recipes1_0B5_
FNDA:0,_RNCNvNtCsl67wFTZafe0_6neuron26cnn_classifier_walkthrough31run_scheduler_production_recipes2_0B5_
FNDA:0,_RNCNvNtCsl67wFTZafe0_6neuron26cnn_classifier_walkthrough31run_scheduler_production_recipes_0B5_
FNDA:0,_RNvNtCsl67wFTZafe0_6neuron26cnn_classifier_walkthrough13striped_image
FNDA:0,_RNvNtCsl67wFTZafe0_6neuron26cnn_classifier_walkthrough30run_cnn_classifier_walkthrough
FNDA:0,_RNvNtCsl67wFTZafe0_6neuron26cnn_classifier_walkthrough31collect_large_benchmark_summary
FNDA:0,_RNvNtCsl67wFTZafe0_6neuron26cnn_classifier_walkthrough31run_scheduler_production_recipe
FNF:53
FNH:19
DA:77,18
DA:78,18
DA:79,0
DA:80,18
DA:81,18
DA:82,18
DA:84,8
DA:85,8
DA:86,0
DA:87,8
DA:88,8
DA:89,8
DA:90,24
DA:91,24
DA:92,24
DA:93,24
DA:94,8
DA:95,8
DA:96,8
DA:97,8
DA:99,1
DA:100,1
DA:101,1
DA:102,1
DA:103,1
DA:104,1
DA:105,1
DA:106,1
DA:107,1
DA:108,1
DA:109,1
DA:111,1
DA:112,1
DA:113,1
DA:114,1
DA:115,1
DA:116,1
DA:117,1
DA:118,1
DA:119,1
DA:120,1
DA:121,1
DA:122,1
DA:123,1
DA:124,1
DA:125,1
DA:126,1
DA:127,1
DA:128,1
DA:129,1
DA:130,1
DA:131,1
DA:132,1
DA:133,1
DA:134,1
DA:135,1
DA:136,1
DA:137,1
DA:138,1
DA:139,1
DA:140,1
DA:141,1
DA:142,1
DA:143,1
DA:144,1
DA:145,1
DA:146,1
DA:147,1
DA:150,4
DA:151,4
DA:152,4
DA:153,4
DA:154,4
DA:156,12
DA:157,12
DA:158,12
DA:161,12
DA:163,12
DA:164,12
DA:165,12
DA:166,12
DA:167,6
DA:168,12
DA:169,6
DA:170,6
DA:171,6
DA:173,12
DA:174,12
DA:175,12
DA:176,12
DA:177,12
DA:178,12
DA:179,12
DA:180,12
DA:181,12
DA:182,12
DA:185,12
DA:186,12
DA:187,12
DA:188,12
DA:189,12
DA:190,12
DA:191,12
DA:192,12
DA:193,12
DA:194,12
DA:195,12
DA:196,12
DA:199,12
DA:200,240
DA:201,240
DA:203,240
DA:204,240
DA:205,240
DA:206,12
DA:207,12
DA:208,12
DA:209,228
DA:212,12
DA:213,12
DA:215,12
DA:216,12
DA:217,12
DA:218,12
DA:221,4
DA:222,4
DA:223,4
DA:224,4
DA:226,4
DA:227,4
DA:228,4
DA:229,4
DA:230,4
DA:231,4
DA:232,4
DA:233,4
DA:234,4
DA:235,4
DA:236,4
DA:239,1
DA:240,1
DA:242,1
DA:243,1
DA:244,1
DA:245,1
DA:246,1
DA:247,1
DA:248,1
DA:249,1
DA:250,1
DA:251,1
DA:252,1
DA:253,1
DA:254,1
DA:255,1
DA:256,1
DA:257,1
DA:258,1
DA:259,1
DA:260,1
DA:261,1
DA:262,1
DA:264,1
DA:265,1
DA:267,1
DA:268,1
DA:269,1
DA:270,1
DA:271,1
DA:272,1
DA:273,1
DA:274,1
DA:275,1
DA:276,1
DA:277,1
DA:278,1
DA:281,1
DA:283,3
DA:284,3
DA:285,3
DA:286,3
DA:288,6
DA:289,6
DA:290,6
DA:291,6
DA:292,6
DA:293,6
DA:294,6
DA:295,6
DA:296,6
DA:297,6
DA:298,6
DA:301,6
DA:302,6
DA:307,6
DA:308,6
DA:309,6
DA:310,6
DA:312,6
DA:314,72
DA:315,72
DA:316,72
DA:317,72
DA:318,72
DA:319,72
DA:321,72
DA:323,72
DA:324,72
DA:325,72
DA:326,6
DA:327,66
DA:330,6
DA:331,6
DA:332,6
DA:333,6
DA:336,3
DA:337,3
DA:338,3
DA:339,3
DA:340,3
DA:341,3
DA:342,3
DA:343,3
DA:344,3
DA:345,3
DA:346,3
DA:347,3
DA:348,3
DA:351,1
DA:352,1
DA:354,0
DA:355,0
DA:356,0
DA:357,0
DA:358,0
DA:359,0
DA:360,0
DA:363,0
DA:364,0
DA:366,0
DA:372,0
DA:373,0
DA:374,0
DA:375,0
DA:376,0
DA:377,0
DA:378,0
DA:379,0
DA:380,0
DA:381,0
DA:382,0
DA:383,0
DA:384,0
DA:385,0
DA:386,0
DA:387,0
DA:389,0
DA:390,0
DA:391,0
DA:394,0
DA:395,0
DA:396,0
DA:397,0
DA:398,0
DA:399,0
DA:400,0
DA:401,0
DA:402,0
DA:403,0
DA:406,0
DA:407,0
DA:408,0
DA:409,0
DA:410,0
DA:411,0
DA:412,0
DA:413,0
DA:416,0
DA:417,0
DA:418,0
DA:419,0
DA:420,0
DA:423,0
DA:424,0
DA:425,0
DA:426,0
DA:428,0
DA:429,0
DA:430,0
DA:431,0
DA:432,0
DA:433,0
DA:434,0
DA:435,0
DA:436,0
DA:437,0
DA:438,0
DA:439,0
DA:443,0
DA:444,0
DA:445,0
DA:446,0
DA:447,0
DA:448,0
DA:449,0
DA:450,0
DA:452,0
DA:453,0
DA:454,0
DA:455,0
DA:456,0
DA:457,0
DA:458,0
DA:460,0
DA:461,0
DA:462,0
DA:463,0
DA:464,0
DA:465,0
DA:466,0
DA:467,0
DA:468,0
DA:470,0
DA:471,0
DA:472,0
DA:474,0
DA:475,0
DA:476,0
DA:477,0
DA:478,0
DA:479,0
DA:480,0
DA:481,0
DA:483,0
DA:484,0
DA:485,0
DA:487,0
DA:488,0
DA:489,0
DA:490,0
DA:491,0
DA:492,0
DA:494,0
DA:495,0
DA:496,0
DA:497,0
DA:499,0
DA:500,0
DA:501,0
DA:502,0
DA:503,0
DA:504,0
DA:505,0
DA:506,0
DA:507,0
DA:508,0
DA:509,0
DA:510,0
DA:511,0
DA:513,0
DA:514,0
DA:516,0
DA:519,0
DA:520,0
DA:522,0
DA:523,0
DA:528,0
DA:529,0
DA:531,0
DA:532,0
DA:534,0
DA:535,0
DA:536,0
DA:537,0
DA:539,0
DA:541,0
DA:542,0
DA:545,0
DA:546,0
DA:547,0
DA:548,0
DA:550,0
DA:551,0
DA:552,0
DA:556,0
DA:557,0
DA:558,0
DA:560,0
DA:562,0
DA:563,0
DA:564,0
DA:565,0
DA:568,0
DA:570,0
DA:575,0
DA:576,0
DA:578,0
DA:579,0
DA:580,0
DA:581,0
DA:583,0
DA:585,0
DA:586,0
DA:589,0
DA:590,0
DA:592,0
DA:593,0
DA:594,0
DA:595,0
DA:596,0
DA:597,0
DA:598,0
DA:599,0
DA:600,0
DA:603,0
DA:604,0
DA:605,0
DA:609,0
DA:610,0
DA:611,0
DA:612,0
DA:614,0
DA:616,0
DA:623,0
DA:624,0
DA:625,0
DA:626,0
DA:627,0
DA:628,0
DA:629,0
DA:630,0
DA:631,0
DA:632,0
DA:633,0
DA:634,0
DA:635,0
DA:637,0
DA:638,0
DA:639,0
DA:641,0
DA:648,0
DA:649,0
DA:650,0
DA:651,0
DA:652,0
DA:653,0
DA:654,0
DA:655,0
DA:656,0
DA:657,0
DA:658,0
DA:661,0
DA:662,0
DA:664,0
DA:667,0
DA:669,0
DA:674,0
DA:676,0
DA:677,0
DA:682,0
DA:683,0
DA:685,0
DA:686,0
DA:687,0
DA:688,0
DA:689,0
DA:691,0
DA:692,0
DA:693,0
DA:694,0
DA:695,0
DA:696,0
DA:697,0
DA:698,0
DA:699,0
DA:700,0
DA:703,0
DA:704,0
DA:705,0
DA:706,0
DA:707,0
DA:708,0
DA:709,0
DA:710,0
DA:711,0
DA:712,0
DA:713,0
DA:714,0
DA:717,0
DA:718,0
DA:719,0
DA:721,0
DA:722,0
DA:724,0
DA:729,0
DA:730,0
DA:732,0
DA:733,0
DA:735,0
DA:736,0
DA:737,0
DA:742,0
DA:743,0
DA:744,0
DA:746,0
DA:747,0
DA:748,0
DA:750,0
DA:751,0
DA:752,0
DA:762,0
DA:763,0
DA:764,0
DA:765,0
DA:766,0
DA:768,0
DA:769,0
DA:770,0
DA:771,0
DA:777,0
DA:778,0
DA:779,0
DA:780,0
DA:781,0
DA:782,0
DA:783,0
DA:784,0
DA:785,0
DA:786,0
DA:787,0
DA:788,0
DA:789,0
DA:790,0
DA:791,0
DA:793,0
DA:794,0
DA:795,0
DA:796,0
DA:802,0
DA:803,0
DA:804,0
DA:805,0
DA:806,0
DA:807,0
DA:808,0
DA:809,0
DA:810,0
DA:811,0
DA:812,0
DA:813,0
DA:814,0
DA:816,0
DA:817,0
DA:818,0
DA:827,0
DA:828,0
DA:829,0
DA:830,0
DA:831,0
DA:832,0
DA:833,0
DA:834,0
DA:835,0
DA:836,0
DA:837,0
DA:838,0
DA:839,0
DA:840,0
DA:841,0
DA:842,0
DA:843,0
DA:844,0
DA:845,0
DA:846,0
DA:847,0
DA:848,0
DA:849,0
DA:850,0
DA:851,0
DA:852,0
DA:854,0
DA:855,0
DA:862,1
DA:863,1
DA:864,1
DA:869,1
DA:870,1
DA:872,1
DA:873,1
DA:875,1
DA:876,1
DA:877,1
DA:878,1
DA:879,1
DA:881,1
DA:882,1
DA:883,1
DA:884,1
DA:886,1
DA:887,1
DA:888,1
DA:892,40
DA:893,40
DA:894,40
DA:896,1
DA:897,1
DA:898,1
DA:899,1
DA:900,1
DA:902,1
DA:904,1
DA:905,1
DA:906,1
DA:907,1
DA:910,1
DA:911,1
DA:912,1
DA:913,1
DA:916,1
DA:917,1
DA:918,1
DA:923,1
DA:924,1
DA:926,1
DA:927,1
DA:928,1
DA:929,1
DA:930,1
DA:932,1
DA:933,1
DA:934,1
DA:935,1
DA:936,1
DA:937,1
DA:938,1
DA:939,1
DA:940,1
DA:943,1
DA:944,1
DA:945,1
DA:946,1
DA:947,1
DA:948,1
DA:949,1
DA:950,1
DA:951,1
DA:952,1
DA:953,1
DA:954,1
DA:957,25
DA:958,25
DA:959,25
DA:961,1
DA:962,1
DA:963,1
DA:964,1
DA:967,1
DA:968,1
DA:969,1
DA:970,1
DA:973,1
DA:974,1
DA:975,1
DA:976,1
DA:977,1
DA:978,1
DA:980,1
DA:981,1
DA:982,1
DA:983,1
DA:984,1
DA:985,1
DA:986,1
DA:987,1
DA:988,1
DA:991,1
DA:992,1
DA:993,1
DA:994,1
DA:995,1
DA:996,1
DA:997,1
DA:998,1
DA:999,1
DA:1000,1
DA:1001,1
DA:1002,1
DA:1005,1
DA:1006,1
DA:1007,1
DA:1008,1
DA:1011,2
DA:1012,2
DA:1013,2
DA:1018,2
DA:1019,2
DA:1020,2
DA:1022,50
DA:1023,50
DA:1024,50
DA:1026,2
DA:1027,2
DA:1028,2
DA:1030,1
DA:1033,1
DA:1034,1
DA:1035,1
DA:1036,1
DA:1037,1
DA:1038,1
DA:1040,1
DA:1041,1
DA:1042,1
DA:1043,1
DA:1046,1
DA:1047,1
DA:1049,1
DA:1050,1
DA:1051,1
DA:1052,1
DA:1053,1
DA:1054,4
DA:1055,4
DA:1056,4
DA:1057,4
DA:1058,4
DA:1059,1
DA:1060,1
DA:1061,4
DA:1062,1
DA:1065,1
DA:1066,1
DA:1067,1
DA:1068,1
DA:1069,1
DA:1070,1
DA:1072,1
DA:1073,1
DA:1074,1
DA:1075,1
DA:1078,1
DA:1079,1
DA:1081,1
DA:1082,3
DA:1083,3
DA:1084,3
DA:1085,1
BRF:0
BRH:0
LF:787
LH:403
end_of_record
SF:/Users/samcolak/Source Code/rust/neuron_server/pt5/neuron/src/main.rs
FN:25,_RNvCsl67wFTZafe0_6neuron4main
FNDA:0,_RNvCsl67wFTZafe0_6neuron4main
FNF:1
FNH:0
DA:25,0
DA:26,0
DA:27,0
DA:29,0
DA:31,0
DA:32,0
DA:33,0
DA:34,0
DA:35,0
DA:36,0
DA:37,0
DA:38,0
BRF:0
BRH:0
LF:12
LH:0
end_of_record
SF:/Users/samcolak/Source Code/rust/neuron_server/pt5/neuron/src/multimodal_demo.rs
FN:416,_RNCNvNtNtCsl67wFTZafe0_6neuron15multimodal_demo5testss_43demo_classifier_layer_predicts_known_labels0B7_
FN:427,_RNCNvNtNtCsl67wFTZafe0_6neuron15multimodal_demo5testss_43demo_classifier_layer_predicts_known_labelss_0B7_
FN:390,_RNvNtNtCsl67wFTZafe0_6neuron15multimodal_demo5testss_33demo_network_exposes_a_brain_dump
FN:404,_RNvNtNtCsl67wFTZafe0_6neuron15multimodal_demo5testss_43demo_classifier_layer_predicts_known_labels
FN:315,_RNvNtNtCsl67wFTZafe0_6neuron15multimodal_demo5testss_46demo_network_keeps_learning_and_truth_separate
FN:365,_RNvNtNtCsl67wFTZafe0_6neuron15multimodal_demo5testss_48demo_network_rejects_empty_or_unsupported_inputs
FN:344,_RNvNtNtCsl67wFTZafe0_6neuron15multimodal_demo5testss_55demo_network_scores_known_partial_and_unknown_questions
FN:19,_RNvNtCsl67wFTZafe0_6neuron15multimodal_demo29build_multimodal_demo_network
FN:262,_RNCNvNtCsl67wFTZafe0_6neuron15multimodal_demo19run_multimodal_demo0B5_
FN:210,_RNCNvNtCsl67wFTZafe0_6neuron15multimodal_demo19run_multimodal_demos0_0B5_
FN:217,_RNCNvNtCsl67wFTZafe0_6neuron15multimodal_demo19run_multimodal_demos1_0B5_
FN:224,_RNCNvNtCsl67wFTZafe0_6neuron15multimodal_demo19run_multimodal_demos2_0B5_
FN:231,_RNCNvNtCsl67wFTZafe0_6neuron15multimodal_demo19run_multimodal_demos3_0B5_
FN:238,_RNCNvNtCsl67wFTZafe0_6neuron15multimodal_demo19run_multimodal_demos4_0B5_
FN:245,_RNCNvNtCsl67wFTZafe0_6neuron15multimodal_demo19run_multimodal_demos5_0B5_
FN:252,_RNCNvNtCsl67wFTZafe0_6neuron15multimodal_demo19run_multimodal_demos6_0B5_
FN:203,_RNCNvNtCsl67wFTZafe0_6neuron15multimodal_demo19run_multimodal_demos_0B5_
FN:66,_RNvNtCsl67wFTZafe0_6neuron15multimodal_demo16run_model_checks
FN:164,_RNvNtCsl67wFTZafe0_6neuron15multimodal_demo19run_multimodal_demo
FN:38,_RNCNvNtCsl67wFTZafe0_6neuron15multimodal_demo29build_multimodal_demo_network0B5_
FNDA:0,_RNCNvNtNtCsl67wFTZafe0_6neuron15multimodal_demo5testss_43demo_classifier_layer_predicts_known_labels0B7_
FNDA:0,_RNCNvNtNtCsl67wFTZafe0_6neuron15multimodal_demo5testss_43demo_classifier_layer_predicts_known_labelss_0B7_
FNDA:1,_RNvNtNtCsl67wFTZafe0_6neuron15multimodal_demo5testss_33demo_network_exposes_a_brain_dump
FNDA:1,_RNvNtNtCsl67wFTZafe0_6neuron15multimodal_demo5testss_43demo_classifier_layer_predicts_known_labels
FNDA:1,_RNvNtNtCsl67wFTZafe0_6neuron15multimodal_demo5testss_46demo_network_keeps_learning_and_truth_separate
FNDA:1,_RNvNtNtCsl67wFTZafe0_6neuron15multimodal_demo5testss_48demo_network_rejects_empty_or_unsupported_inputs
FNDA:1,_RNvNtNtCsl67wFTZafe0_6neuron15multimodal_demo5testss_55demo_network_scores_known_partial_and_unknown_questions
FNDA:4,_RNvNtCsl67wFTZafe0_6neuron15multimodal_demo29build_multimodal_demo_network
FNDA:0,_RNCNvNtCsl67wFTZafe0_6neuron15multimodal_demo19run_multimodal_demo0B5_
FNDA:0,_RNCNvNtCsl67wFTZafe0_6neuron15multimodal_demo19run_multimodal_demos0_0B5_
FNDA:0,_RNCNvNtCsl67wFTZafe0_6neuron15multimodal_demo19run_multimodal_demos1_0B5_
FNDA:0,_RNCNvNtCsl67wFTZafe0_6neuron15multimodal_demo19run_multimodal_demos2_0B5_
FNDA:0,_RNCNvNtCsl67wFTZafe0_6neuron15multimodal_demo19run_multimodal_demos3_0B5_
FNDA:0,_RNCNvNtCsl67wFTZafe0_6neuron15multimodal_demo19run_multimodal_demos4_0B5_
FNDA:0,_RNCNvNtCsl67wFTZafe0_6neuron15multimodal_demo19run_multimodal_demos5_0B5_
FNDA:0,_RNCNvNtCsl67wFTZafe0_6neuron15multimodal_demo19run_multimodal_demos6_0B5_
FNDA:0,_RNCNvNtCsl67wFTZafe0_6neuron15multimodal_demo19run_multimodal_demos_0B5_
FNDA:0,_RNvNtCsl67wFTZafe0_6neuron15multimodal_demo16run_model_checks
FNDA:0,_RNvNtCsl67wFTZafe0_6neuron15multimodal_demo19run_multimodal_demo
FNDA:1024,_RNCNvNtCsl67wFTZafe0_6neuron15multimodal_demo29build_multimodal_demo_network0B5_
FNF:20
FNH:7
DA:19,4
DA:20,4
DA:21,4
DA:22,4
DA:23,4
DA:24,4
DA:25,4
DA:27,4
DA:28,4
DA:29,4
DA:30,4
DA:31,4
DA:32,4
DA:33,4
DA:35,4
DA:36,4
DA:37,4
DA:38,1024
DA:40,4
DA:41,4
DA:42,4
DA:43,4
DA:45,4
DA:46,4
DA:47,4
DA:48,4
DA:49,4
DA:51,4
DA:52,4
DA:53,4
DA:54,4
DA:55,4
DA:57,4
DA:58,4
DA:59,4
DA:60,4
DA:61,4
DA:63,4
DA:64,4
DA:66,0
DA:67,0
DA:68,0
DA:70,0
DA:71,0
DA:72,0
DA:73,0
DA:75,0
DA:76,0
DA:77,0
DA:78,0
DA:80,0
DA:81,0
DA:82,0
DA:83,0
DA:84,0
DA:86,0
DA:87,0
DA:89,0
DA:90,0
DA:91,0
DA:92,0
DA:93,0
DA:94,0
DA:95,0
DA:96,0
DA:97,0
DA:98,0
DA:99,0
DA:100,0
DA:101,0
DA:102,0
DA:103,0
DA:104,0
DA:105,0
DA:106,0
DA:107,0
DA:108,0
DA:109,0
DA:110,0
DA:111,0
DA:112,0
DA:113,0
DA:114,0
DA:115,0
DA:116,0
DA:117,0
DA:118,0
DA:119,0
DA:120,0
DA:121,0
DA:122,0
DA:123,0
DA:124,0
DA:125,0
DA:126,0
DA:127,0
DA:128,0
DA:129,0
DA:130,0
DA:131,0
DA:132,0
DA:133,0
DA:134,0
DA:135,0
DA:136,0
DA:137,0
DA:138,0
DA:139,0
DA:140,0
DA:141,0
DA:142,0
DA:143,0
DA:144,0
DA:145,0
DA:146,0
DA:147,0
DA:148,0
DA:149,0
DA:150,0
DA:151,0
DA:152,0
DA:153,0
DA:154,0
DA:155,0
DA:156,0
DA:157,0
DA:158,0
DA:161,0
DA:162,0
DA:164,0
DA:165,0
DA:167,0
DA:168,0
DA:169,0
DA:170,0
DA:171,0
DA:172,0
DA:173,0
DA:174,0
DA:175,0
DA:176,0
DA:177,0
DA:178,0
DA:179,0
DA:180,0
DA:181,0
DA:182,0
DA:183,0
DA:184,0
DA:185,0
DA:186,0
DA:187,0
DA:188,0
DA:190,0
DA:192,0
DA:194,0
DA:196,0
DA:197,0
DA:199,0
DA:201,0
DA:202,0
DA:203,0
DA:204,0
DA:206,0
DA:208,0
DA:209,0
DA:210,0
DA:211,0
DA:213,0
DA:215,0
DA:216,0
DA:217,0
DA:218,0
DA:220,0
DA:222,0
DA:223,0
DA:224,0
DA:225,0
DA:227,0
DA:229,0
DA:230,0
DA:231,0
DA:232,0
DA:234,0
DA:236,0
DA:237,0
DA:238,0
DA:239,0
DA:241,0
DA:243,0
DA:244,0
DA:245,0
DA:246,0
DA:248,0
DA:250,0
DA:251,0
DA:252,0
DA:253,0
DA:256,0
DA:257,0
DA:259,0
DA:260,0
DA:261,0
DA:262,0
DA:263,0
DA:265,0
DA:266,0
DA:267,0
DA:269,0
DA:270,0
DA:272,0
DA:278,0
DA:280,0
DA:282,0
DA:283,0
DA:284,0
DA:285,0
DA:286,0
DA:287,0
DA:288,0
DA:289,0
DA:290,0
DA:291,0
DA:292,0
DA:293,0
DA:294,0
DA:295,0
DA:296,0
DA:297,0
DA:298,0
DA:299,0
DA:300,0
DA:303,0
DA:304,0
DA:305,0
DA:307,0
DA:315,1
DA:316,1
DA:318,1
DA:319,1
DA:320,1
DA:321,1
DA:322,1
DA:323,1
DA:324,1
DA:326,1
DA:327,1
DA:328,1
DA:329,1
DA:330,1
DA:331,1
DA:332,1
DA:334,1
DA:335,1
DA:336,1
DA:337,1
DA:338,1
DA:339,1
DA:340,1
DA:341,1
DA:344,1
DA:345,1
DA:347,1
DA:348,1
DA:349,1
DA:350,1
DA:352,1
DA:353,1
DA:354,1
DA:355,1
DA:358,1
DA:359,1
DA:362,1
DA:365,1
DA:366,1
DA:368,1
DA:369,1
DA:370,1
DA:371,1
DA:372,1
DA:374,1
DA:375,1
DA:376,1
DA:377,1
DA:380,1
DA:381,1
DA:382,1
DA:383,1
DA:384,1
DA:387,1
DA:390,1
DA:391,1
DA:392,1
DA:394,1
DA:395,1
DA:396,1
DA:397,1
DA:398,1
DA:399,1
DA:400,1
DA:401,1
DA:404,1
DA:405,1
DA:406,1
DA:407,1
DA:408,1
DA:409,1
DA:410,1
DA:413,1
DA:414,1
DA:415,1
DA:416,1
DA:417,1
DA:418,1
DA:420,1
DA:421,1
DA:422,1
DA:423,1
DA:425,1
DA:426,1
DA:427,1
DA:428,1
DA:429,1
DA:431,1
DA:432,1
DA:434,1
DA:435,1
DA:436,1
DA:437,1
DA:438,1
BRF:0
BRH:0
LF:342
LH:134
end_of_record
SF:/Users/samcolak/Source Code/rust/neuron_server/pt5/neuron/src/multimodal_tensor_walkthrough.rs
FN:41,_RNCNvNtCsl67wFTZafe0_6neuron29multimodal_tensor_walkthrough33run_multimodal_tensor_walkthrough0B5_
FN:69,_RNCNvNtCsl67wFTZafe0_6neuron29multimodal_tensor_walkthrough33run_multimodal_tensor_walkthroughs0_0B5_
FN:87,_RNCNvNtCsl67wFTZafe0_6neuron29multimodal_tensor_walkthrough33run_multimodal_tensor_walkthroughs1_0B5_
FN:103,_RNCNvNtCsl67wFTZafe0_6neuron29multimodal_tensor_walkthrough33run_multimodal_tensor_walkthroughs2_0B5_
FN:114,_RNCNvNtCsl67wFTZafe0_6neuron29multimodal_tensor_walkthrough33run_multimodal_tensor_walkthroughs3_0B5_
FN:117,_RNCNvNtCsl67wFTZafe0_6neuron29multimodal_tensor_walkthrough33run_multimodal_tensor_walkthroughs4_0B5_
FN:119,_RNCNvNtCsl67wFTZafe0_6neuron29multimodal_tensor_walkthrough33run_multimodal_tensor_walkthroughs5_0B5_
FN:124,_RNCNvNtCsl67wFTZafe0_6neuron29multimodal_tensor_walkthrough33run_multimodal_tensor_walkthroughs6_0B5_
FN:130,_RNCNvNtCsl67wFTZafe0_6neuron29multimodal_tensor_walkthrough33run_multimodal_tensor_walkthroughs7_0B5_
FN:151,_RNCNvNtCsl67wFTZafe0_6neuron29multimodal_tensor_walkthrough33run_multimodal_tensor_walkthroughs8_0B5_
FN:153,_RNCNvNtCsl67wFTZafe0_6neuron29multimodal_tensor_walkthrough33run_multimodal_tensor_walkthroughs9_0B5_
FN:57,_RNCNvNtCsl67wFTZafe0_6neuron29multimodal_tensor_walkthrough33run_multimodal_tensor_walkthroughs_0B5_
FN:155,_RNCNvNtCsl67wFTZafe0_6neuron29multimodal_tensor_walkthrough33run_multimodal_tensor_walkthroughsa_0B5_
FN:157,_RNCNvNtCsl67wFTZafe0_6neuron29multimodal_tensor_walkthrough33run_multimodal_tensor_walkthroughsb_0B5_
FN:161,_RNCNvNtCsl67wFTZafe0_6neuron29multimodal_tensor_walkthrough33run_multimodal_tensor_walkthroughsc_0B5_
FN:164,_RNCNvNtCsl67wFTZafe0_6neuron29multimodal_tensor_walkthrough33run_multimodal_tensor_walkthroughsd_0B5_
FN:12,_RNvNtCsl67wFTZafe0_6neuron29multimodal_tensor_walkthrough15compare_tensors
FN:35,_RNvNtCsl67wFTZafe0_6neuron29multimodal_tensor_walkthrough33run_multimodal_tensor_walkthrough
FNDA:0,_RNCNvNtCsl67wFTZafe0_6neuron29multimodal_tensor_walkthrough33run_multimodal_tensor_walkthrough0B5_
FNDA:0,_RNCNvNtCsl67wFTZafe0_6neuron29multimodal_tensor_walkthrough33run_multimodal_tensor_walkthroughs0_0B5_
FNDA:0,_RNCNvNtCsl67wFTZafe0_6neuron29multimodal_tensor_walkthrough33run_multimodal_tensor_walkthroughs1_0B5_
FNDA:0,_RNCNvNtCsl67wFTZafe0_6neuron29multimodal_tensor_walkthrough33run_multimodal_tensor_walkthroughs2_0B5_
FNDA:0,_RNCNvNtCsl67wFTZafe0_6neuron29multimodal_tensor_walkthrough33run_multimodal_tensor_walkthroughs3_0B5_
FNDA:0,_RNCNvNtCsl67wFTZafe0_6neuron29multimodal_tensor_walkthrough33run_multimodal_tensor_walkthroughs4_0B5_
FNDA:0,_RNCNvNtCsl67wFTZafe0_6neuron29multimodal_tensor_walkthrough33run_multimodal_tensor_walkthroughs5_0B5_
FNDA:0,_RNCNvNtCsl67wFTZafe0_6neuron29multimodal_tensor_walkthrough33run_multimodal_tensor_walkthroughs6_0B5_
FNDA:0,_RNCNvNtCsl67wFTZafe0_6neuron29multimodal_tensor_walkthrough33run_multimodal_tensor_walkthroughs7_0B5_
FNDA:0,_RNCNvNtCsl67wFTZafe0_6neuron29multimodal_tensor_walkthrough33run_multimodal_tensor_walkthroughs8_0B5_
FNDA:0,_RNCNvNtCsl67wFTZafe0_6neuron29multimodal_tensor_walkthrough33run_multimodal_tensor_walkthroughs9_0B5_
FNDA:0,_RNCNvNtCsl67wFTZafe0_6neuron29multimodal_tensor_walkthrough33run_multimodal_tensor_walkthroughs_0B5_
FNDA:0,_RNCNvNtCsl67wFTZafe0_6neuron29multimodal_tensor_walkthrough33run_multimodal_tensor_walkthroughsa_0B5_
FNDA:0,_RNCNvNtCsl67wFTZafe0_6neuron29multimodal_tensor_walkthrough33run_multimodal_tensor_walkthroughsb_0B5_
FNDA:0,_RNCNvNtCsl67wFTZafe0_6neuron29multimodal_tensor_walkthrough33run_multimodal_tensor_walkthroughsc_0B5_
FNDA:0,_RNCNvNtCsl67wFTZafe0_6neuron29multimodal_tensor_walkthrough33run_multimodal_tensor_walkthroughsd_0B5_
FNDA:0,_RNvNtCsl67wFTZafe0_6neuron29multimodal_tensor_walkthrough15compare_tensors
FNDA:0,_RNvNtCsl67wFTZafe0_6neuron29multimodal_tensor_walkthrough33run_multimodal_tensor_walkthrough
FNF:18
FNH:0
DA:12,0
DA:13,0
DA:14,0
DA:15,0
DA:17,0
DA:18,0
DA:19,0
DA:20,0
DA:21,0
DA:22,0
DA:23,0
DA:24,0
DA:25,0
DA:28,0
DA:29,0
DA:30,0
DA:32,0
DA:33,0
DA:35,0
DA:36,0
DA:38,0
DA:39,0
DA:40,0
DA:41,0
DA:42,0
DA:44,0
DA:45,0
DA:46,0
DA:49,0
DA:50,0
DA:56,0
DA:57,0
DA:58,0
DA:60,0
DA:61,0
DA:62,0
DA:63,0
DA:66,0
DA:67,0
DA:68,0
DA:69,0
DA:70,0
DA:72,0
DA:73,0
DA:74,0
DA:77,0
DA:78,0
DA:79,0
DA:87,0
DA:88,0
DA:90,0
DA:91,0
DA:92,0
DA:93,0
DA:96,0
DA:97,0
DA:98,0
DA:99,0
DA:101,0
DA:102,0
DA:103,0
DA:104,0
DA:109,0
DA:114,0
DA:116,0
DA:117,0
DA:118,0
DA:119,0
DA:121,0
DA:122,0
DA:123,0
DA:124,0
DA:125,0
DA:127,0
DA:128,0
DA:129,0
DA:130,0
DA:131,0
DA:133,0
DA:134,0
DA:136,0
DA:138,0
DA:143,0
DA:150,0
DA:151,0
DA:152,0
DA:153,0
DA:154,0
DA:155,0
DA:156,0
DA:157,0
DA:159,0
DA:160,0
DA:161,0
DA:162,0
DA:163,0
DA:164,0
DA:166,0
DA:167,0
DA:168,0
DA:170,0
DA:176,0
BRF:0
BRH:0
LF:118
LH:0
end_of_record
SF:/Users/samcolak/Source Code/rust/neuron_server/pt5/neuron/src/rag_dataset_walkthrough.rs
FN:417,_RNCNvNtNtCsl67wFTZafe0_6neuron23rag_dataset_walkthrough5testss_42dataset_vpn_query_returns_relevant_results0B7_
FN:424,_RNCNvNtNtCsl67wFTZafe0_6neuron23rag_dataset_walkthrough5testss_42dataset_vpn_query_returns_relevant_resultss_0B7_
FN:396,_RNCNvNtNtCsl67wFTZafe0_6neuron23rag_dataset_walkthrough5testss_51dataset_import_and_validation_succeeds_for_demo_csv0B7_
FN:399,_RNCNvNtNtCsl67wFTZafe0_6neuron23rag_dataset_walkthrough5testss_51dataset_import_and_validation_succeeds_for_demo_csvs_0B7_
FN:286,_RNCNCNvNtCsl67wFTZafe0_6neuron23rag_dataset_walkthrough15query_documentss0_00B7_
FN:281,_RNCNvNtCsl67wFTZafe0_6neuron23rag_dataset_walkthrough15query_documents0B5_
FN:285,_RNCNvNtCsl67wFTZafe0_6neuron23rag_dataset_walkthrough15query_documentss0_0B5_
FN:282,_RNCNvNtCsl67wFTZafe0_6neuron23rag_dataset_walkthrough15query_documentss_0B5_
FN:239,_RNCNvNtCsl67wFTZafe0_6neuron23rag_dataset_walkthrough19tokenize_for_search0B5_
FN:231,_RNCNvNtCsl67wFTZafe0_6neuron23rag_dataset_walkthrough20normalize_for_search0B5_
FN:7,_RNvNtCsl67wFTZafe0_6neuron23rag_dataset_walkthrough12dataset_path
FN:278,_RNvNtCsl67wFTZafe0_6neuron23rag_dataset_walkthrough15query_documents
FN:23,_RNvNtCsl67wFTZafe0_6neuron23rag_dataset_walkthrough18validate_documents
FN:235,_RNvNtCsl67wFTZafe0_6neuron23rag_dataset_walkthrough19tokenize_for_search
FN:227,_RNvNtCsl67wFTZafe0_6neuron23rag_dataset_walkthrough20normalize_for_search
FN:244,_RNvNtCsl67wFTZafe0_6neuron23rag_dataset_walkthrough24score_document_for_query
FN:405,_RNvNtNtCsl67wFTZafe0_6neuron23rag_dataset_walkthrough5testss_42dataset_vpn_query_returns_relevant_results
FN:384,_RNvNtNtCsl67wFTZafe0_6neuron23rag_dataset_walkthrough5testss_51dataset_import_and_validation_succeeds_for_demo_csv
FN:192,_RNCNvNtCsl67wFTZafe0_6neuron23rag_dataset_walkthrough10build_dump0B5_
FN:211,_RNCNvNtCsl67wFTZafe0_6neuron23rag_dataset_walkthrough10build_dumps0_0B5_
FN:207,_RNCNvNtCsl67wFTZafe0_6neuron23rag_dataset_walkthrough10build_dumps_0B5_
FN:53,_RNvNtCsl67wFTZafe0_6neuron23rag_dataset_walkthrough10build_dump
FN:306,_RNvNtCsl67wFTZafe0_6neuron23rag_dataset_walkthrough27run_rag_dataset_walkthrough
FN:15,_RNvNtCsl67wFTZafe0_6neuron23rag_dataset_walkthrough9dump_path
FNDA:0,_RNCNvNtNtCsl67wFTZafe0_6neuron23rag_dataset_walkthrough5testss_42dataset_vpn_query_returns_relevant_results0B7_
FNDA:1,_RNCNvNtNtCsl67wFTZafe0_6neuron23rag_dataset_walkthrough5testss_42dataset_vpn_query_returns_relevant_resultss_0B7_
FNDA:0,_RNCNvNtNtCsl67wFTZafe0_6neuron23rag_dataset_walkthrough5testss_51dataset_import_and_validation_succeeds_for_demo_csv0B7_
FNDA:0,_RNCNvNtNtCsl67wFTZafe0_6neuron23rag_dataset_walkthrough5testss_51dataset_import_and_validation_succeeds_for_demo_csvs_0B7_
FNDA:469,_RNCNCNvNtCsl67wFTZafe0_6neuron23rag_dataset_walkthrough15query_documentss0_00B7_
FNDA:100,_RNCNvNtCsl67wFTZafe0_6neuron23rag_dataset_walkthrough15query_documents0B5_
FNDA:706,_RNCNvNtCsl67wFTZafe0_6neuron23rag_dataset_walkthrough15query_documentss0_0B5_
FNDA:100,_RNCNvNtCsl67wFTZafe0_6neuron23rag_dataset_walkthrough15query_documentss_0B5_
FNDA:500,_RNCNvNtCsl67wFTZafe0_6neuron23rag_dataset_walkthrough19tokenize_for_search0B5_
FNDA:509053,_RNCNvNtCsl67wFTZafe0_6neuron23rag_dataset_walkthrough20normalize_for_search0B5_
FNDA:2,_RNvNtCsl67wFTZafe0_6neuron23rag_dataset_walkthrough12dataset_path
FNDA:1,_RNvNtCsl67wFTZafe0_6neuron23rag_dataset_walkthrough15query_documents
FNDA:1,_RNvNtCsl67wFTZafe0_6neuron23rag_dataset_walkthrough18validate_documents
FNDA:100,_RNvNtCsl67wFTZafe0_6neuron23rag_dataset_walkthrough19tokenize_for_search
FNDA:200,_RNvNtCsl67wFTZafe0_6neuron23rag_dataset_walkthrough20normalize_for_search
FNDA:100,_RNvNtCsl67wFTZafe0_6neuron23rag_dataset_walkthrough24score_document_for_query
FNDA:1,_RNvNtNtCsl67wFTZafe0_6neuron23rag_dataset_walkthrough5testss_42dataset_vpn_query_returns_relevant_results
FNDA:1,_RNvNtNtCsl67wFTZafe0_6neuron23rag_dataset_walkthrough5testss_51dataset_import_and_validation_succeeds_for_demo_csv
FNDA:0,_RNCNvNtCsl67wFTZafe0_6neuron23rag_dataset_walkthrough10build_dump0B5_
FNDA:0,_RNCNvNtCsl67wFTZafe0_6neuron23rag_dataset_walkthrough10build_dumps0_0B5_
FNDA:0,_RNCNvNtCsl67wFTZafe0_6neuron23rag_dataset_walkthrough10build_dumps_0B5_
FNDA:0,_RNvNtCsl67wFTZafe0_6neuron23rag_dataset_walkthrough10build_dump
FNDA:0,_RNvNtCsl67wFTZafe0_6neuron23rag_dataset_walkthrough27run_rag_dataset_walkthrough
FNDA:0,_RNvNtCsl67wFTZafe0_6neuron23rag_dataset_walkthrough9dump_path
FNF:24
FNH:15
DA:7,2
DA:9,2
DA:10,2
DA:11,2
DA:13,2
DA:15,0
DA:17,0
DA:18,0
DA:19,0
DA:21,0
DA:23,1
DA:25,1
DA:26,0
DA:27,1
DA:29,100
DA:31,100
DA:32,0
DA:33,100
DA:35,100
DA:36,0
DA:37,100
DA:39,100
DA:40,0
DA:41,100
DA:43,100
DA:44,0
DA:45,100
DA:49,1
DA:51,1
DA:53,0
DA:55,0
DA:56,0
DA:57,0
DA:59,0
DA:60,0
DA:61,0
DA:62,0
DA:63,0
DA:65,0
DA:66,0
DA:67,0
DA:68,0
DA:70,0
DA:71,0
DA:72,0
DA:73,0
DA:75,0
DA:76,0
DA:77,0
DA:78,0
DA:80,0
DA:81,0
DA:82,0
DA:83,0
DA:84,0
DA:87,0
DA:88,0
DA:89,0
DA:90,0
DA:91,0
DA:92,0
DA:93,0
DA:95,0
DA:96,0
DA:97,0
DA:98,0
DA:99,0
DA:100,0
DA:102,0
DA:103,0
DA:104,0
DA:105,0
DA:106,0
DA:107,0
DA:109,0
DA:110,0
DA:111,0
DA:112,0
DA:113,0
DA:116,0
DA:117,0
DA:118,0
DA:120,0
DA:121,0
DA:123,0
DA:126,0
DA:127,0
DA:129,0
DA:132,0
DA:133,0
DA:135,0
DA:138,0
DA:139,0
DA:140,0
DA:141,0
DA:142,0
DA:143,0
DA:144,0
DA:145,0
DA:146,0
DA:147,0
DA:149,0
DA:151,0
DA:152,0
DA:153,0
DA:154,0
DA:155,0
DA:156,0
DA:159,0
DA:160,0
DA:161,0
DA:162,0
DA:163,0
DA:164,0
DA:165,0
DA:166,0
DA:168,0
DA:169,0
DA:170,0
DA:171,0
DA:173,0
DA:175,0
DA:176,0
DA:177,0
DA:178,0
DA:179,0
DA:180,0
DA:181,0
DA:182,0
DA:183,0
DA:184,0
DA:185,0
DA:186,0
DA:187,0
DA:188,0
DA:189,0
DA:190,0
DA:192,0
DA:194,0
DA:195,0
DA:196,0
DA:197,0
DA:198,0
DA:199,0
DA:200,0
DA:201,0
DA:202,0
DA:204,0
DA:205,0
DA:206,0
DA:207,0
DA:208,0
DA:209,0
DA:210,0
DA:211,0
DA:213,0
DA:214,0
DA:215,0
DA:216,0
DA:217,0
DA:218,0
DA:219,0
DA:223,0
DA:225,0
DA:227,200
DA:228,200
DA:229,200
DA:230,200
DA:231,509053
DA:232,200
DA:233,200
DA:235,100
DA:236,100
DA:237,100
DA:238,100
DA:239,500
DA:240,100
DA:241,100
DA:242,100
DA:244,100
DA:245,100
DA:246,100
DA:247,0
DA:248,100
DA:250,100
DA:251,100
DA:252,100
DA:253,100
DA:254,100
DA:255,100
DA:257,100
DA:258,100
DA:260,100
DA:261,500
DA:262,500
DA:263,222
DA:264,278
DA:267,100
DA:268,16
DA:269,84
DA:271,100
DA:272,97
DA:273,97
DA:275,100
DA:276,100
DA:278,1
DA:279,1
DA:280,1
DA:281,100
DA:282,100
DA:283,1
DA:285,706
DA:286,706
DA:287,469
DA:288,469
DA:289,469
DA:290,469
DA:291,469
DA:292,469
DA:293,469
DA:294,469
DA:295,469
DA:296,469
DA:297,469
DA:298,469
DA:299,469
DA:300,469
DA:301,706
DA:303,1
DA:304,1
DA:306,0
DA:308,0
DA:310,0
DA:311,0
DA:313,0
DA:314,0
DA:315,0
DA:316,0
DA:317,0
DA:318,0
DA:319,0
DA:320,0
DA:321,0
DA:323,0
DA:324,0
DA:325,0
DA:326,0
DA:327,0
DA:331,0
DA:333,0
DA:334,0
DA:335,0
DA:336,0
DA:337,0
DA:338,0
DA:342,0
DA:343,0
DA:344,0
DA:345,0
DA:346,0
DA:347,0
DA:348,0
DA:349,0
DA:350,0
DA:351,0
DA:352,0
DA:353,0
DA:354,0
DA:355,0
DA:356,0
DA:357,0
DA:358,0
DA:359,0
DA:360,0
DA:361,0
DA:362,0
DA:364,0
DA:365,0
DA:366,0
DA:368,0
DA:369,0
DA:370,0
DA:372,0
DA:373,0
DA:374,0
DA:377,0
DA:384,1
DA:385,1
DA:386,1
DA:387,1
DA:388,1
DA:389,1
DA:390,1
DA:391,1
DA:392,1
DA:393,1
DA:395,1
DA:396,1
DA:398,1
DA:399,1
DA:401,1
DA:402,1
DA:405,1
DA:406,1
DA:407,1
DA:408,1
DA:409,1
DA:410,1
DA:411,1
DA:412,1
DA:413,1
DA:414,1
DA:416,1
DA:417,1
DA:419,1
DA:420,1
DA:422,1
DA:424,1
DA:425,1
DA:426,1
DA:427,1
DA:428,1
DA:429,1
DA:430,1
DA:431,1
DA:432,1
DA:433,1
DA:435,1
DA:436,1
BRF:0
BRH:0
LF:342
LH:134
end_of_record
SF:/Users/samcolak/Source Code/rust/neuron_server/pt5/neuron/src/rag_walkthrough.rs
FN:30,_RNvNtCsl67wFTZafe0_6neuron15rag_walkthrough19run_rag_walkthrough
FN:13,_RNvXNtCsl67wFTZafe0_6neuron15rag_walkthroughNtB2_15StaticRetrieverNtNtNtCsd5qScJ76khD_9neuralnet3rag8pipeline9Retriever8retrieve
FN:21,_RNvXs_NtCsl67wFTZafe0_6neuron15rag_walkthroughNtB4_13EchoGeneratorNtNtNtCsd5qScJ76khD_9neuralnet3rag8pipeline9Generator8generate
FNDA:0,_RNvNtCsl67wFTZafe0_6neuron15rag_walkthrough19run_rag_walkthrough
FNDA:0,_RNvXNtCsl67wFTZafe0_6neuron15rag_walkthroughNtB2_15StaticRetrieverNtNtNtCsd5qScJ76khD_9neuralnet3rag8pipeline9Retriever8retrieve
FNDA:0,_RNvXs_NtCsl67wFTZafe0_6neuron15rag_walkthroughNtB4_13EchoGeneratorNtNtNtCsd5qScJ76khD_9neuralnet3rag8pipeline9Generator8generate
FNF:3
FNH:0
DA:13,0
DA:14,0
DA:15,0
DA:21,0
DA:22,0
DA:25,0
DA:27,0
DA:30,0
DA:31,0
DA:33,0
DA:34,0
DA:35,0
DA:36,0
DA:37,0
DA:38,0
DA:39,0
DA:40,0
DA:41,0
DA:42,0
DA:43,0
DA:44,0
DA:45,0
DA:46,0
DA:47,0
DA:48,0
DA:50,0
DA:52,0
DA:53,0
DA:54,0
DA:57,0
DA:61,0
DA:62,0
DA:63,0
DA:65,0
DA:66,0
DA:67,0
DA:68,0
DA:69,0
DA:70,0
DA:73,0
DA:74,0
DA:75,0
DA:78,0
DA:83,0
DA:86,0
DA:89,0
DA:90,0
DA:91,0
DA:92,0
DA:93,0
DA:94,0
DA:95,0
DA:100,0
BRF:0
BRH:0
LF:53
LH:0
end_of_record
SF:/Users/samcolak/Source Code/rust/neuron_server/pt5/neuron/src/trainer_fixtures.rs
FN:12,_RNvNtCsl67wFTZafe0_6neuron16trainer_fixtures14image_metadata
FN:158,_RNvNtCsl67wFTZafe0_6neuron16trainer_fixtures22cnn_image_probe_inputs
FN:128,_RNvNtCsl67wFTZafe0_6neuron16trainer_fixtures23cnn_image_train_samples
FN:16,_RNvNtCsl67wFTZafe0_6neuron16trainer_fixtures26vertical_stripes_image_8x8
FN:44,_RNvNtCsl67wFTZafe0_6neuron16trainer_fixtures27diagonal_gradient_image_8x8
FN:141,_RNvNtCsl67wFTZafe0_6neuron16trainer_fixtures28cnn_image_validation_samples
FN:30,_RNvNtCsl67wFTZafe0_6neuron16trainer_fixtures28horizontal_stripes_image_8x8
FN:196,_RNvNtNtCsl67wFTZafe0_6neuron16trainer_fixtures5testss_39cnn_image_fixture_shapes_are_consistent
FN:203,_RNvNtNtCsl67wFTZafe0_6neuron16trainer_fixtures5testss_55cnn_image_sample_builders_include_expected_modal_inputs
FN:165,_RNvNtCsl67wFTZafe0_6neuron16trainer_fixtures11loop_config
FN:70,_RNvNtCsl67wFTZafe0_6neuron16trainer_fixtures12eval_samples
FN:121,_RNvNtCsl67wFTZafe0_6neuron16trainer_fixtures12probe_inputs
FN:178,_RNvNtCsl67wFTZafe0_6neuron16trainer_fixtures13resume_config
FN:87,_RNvNtCsl67wFTZafe0_6neuron16trainer_fixtures13train_samples
FN:8,_RNvNtCsl67wFTZafe0_6neuron16trainer_fixtures16english_metadata
FN:104,_RNvNtCsl67wFTZafe0_6neuron16trainer_fixtures18validation_samples
FN:54,_RNvNtCsl67wFTZafe0_6neuron16trainer_fixtures23initial_trainer_batches
FNDA:1,_RNvNtCsl67wFTZafe0_6neuron16trainer_fixtures14image_metadata
FNDA:2,_RNvNtCsl67wFTZafe0_6neuron16trainer_fixtures22cnn_image_probe_inputs
FNDA:2,_RNvNtCsl67wFTZafe0_6neuron16trainer_fixtures23cnn_image_train_samples
FNDA:21,_RNvNtCsl67wFTZafe0_6neuron16trainer_fixtures26vertical_stripes_image_8x8
FNDA:5,_RNvNtCsl67wFTZafe0_6neuron16trainer_fixtures27diagonal_gradient_image_8x8
FNDA:2,_RNvNtCsl67wFTZafe0_6neuron16trainer_fixtures28cnn_image_validation_samples
FNDA:19,_RNvNtCsl67wFTZafe0_6neuron16trainer_fixtures28horizontal_stripes_image_8x8
FNDA:1,_RNvNtNtCsl67wFTZafe0_6neuron16trainer_fixtures5testss_39cnn_image_fixture_shapes_are_consistent
FNDA:1,_RNvNtNtCsl67wFTZafe0_6neuron16trainer_fixtures5testss_55cnn_image_sample_builders_include_expected_modal_inputs
FNDA:0,_RNvNtCsl67wFTZafe0_6neuron16trainer_fixtures11loop_config
FNDA:0,_RNvNtCsl67wFTZafe0_6neuron16trainer_fixtures12eval_samples
FNDA:0,_RNvNtCsl67wFTZafe0_6neuron16trainer_fixtures12probe_inputs
FNDA:0,_RNvNtCsl67wFTZafe0_6neuron16trainer_fixtures13resume_config
FNDA:0,_RNvNtCsl67wFTZafe0_6neuron16trainer_fixtures13train_samples
FNDA:0,_RNvNtCsl67wFTZafe0_6neuron16trainer_fixtures16english_metadata
FNDA:0,_RNvNtCsl67wFTZafe0_6neuron16trainer_fixtures18validation_samples
FNDA:0,_RNvNtCsl67wFTZafe0_6neuron16trainer_fixtures23initial_trainer_batches
FNF:17
FNH:9
DA:8,0
DA:9,0
DA:10,0
DA:12,1
DA:13,1
DA:14,1
DA:16,21
DA:17,21
DA:18,168
DA:19,1344
DA:20,1344
DA:21,672
DA:22,672
DA:23,672
DA:24,672
DA:27,21
DA:28,21
DA:30,19
DA:31,19
DA:32,152
DA:33,1216
DA:34,1216
DA:35,608
DA:36,608
DA:37,608
DA:38,608
DA:41,19
DA:42,19
DA:44,5
DA:45,5
DA:46,40
DA:47,320
DA:48,320
DA:49,320
DA:51,5
DA:52,5
DA:54,0
DA:55,0
DA:56,0
DA:57,0
DA:58,0
DA:59,0
DA:60,0
DA:63,0
DA:64,0
DA:65,0
DA:68,0
DA:70,0
DA:71,0
DA:72,0
DA:73,0
DA:74,0
DA:76,0
DA:77,0
DA:78,0
DA:80,0
DA:81,0
DA:82,0
DA:85,0
DA:87,0
DA:88,0
DA:89,0
DA:90,0
DA:91,0
DA:93,0
DA:94,0
DA:95,0
DA:97,0
DA:98,0
DA:99,0
DA:102,0
DA:104,0
DA:105,0
DA:106,0
DA:107,0
DA:108,0
DA:110,0
DA:111,0
DA:112,0
DA:114,0
DA:115,0
DA:116,0
DA:119,0
DA:121,0
DA:122,0
DA:123,0
DA:124,0
DA:126,0
DA:128,2
DA:129,2
DA:130,2
DA:131,2
DA:132,2
DA:134,2
DA:135,2
DA:136,2
DA:139,2
DA:141,2
DA:142,2
DA:143,2
DA:144,2
DA:145,2
DA:147,2
DA:148,2
DA:149,2
DA:151,2
DA:152,2
DA:153,2
DA:156,2
DA:158,2
DA:159,2
DA:160,2
DA:161,2
DA:163,2
DA:165,0
DA:166,0
DA:167,0
DA:168,0
DA:169,0
DA:170,0
DA:171,0
DA:172,0
DA:173,0
DA:174,0
DA:175,0
DA:176,0
DA:178,0
DA:179,0
DA:180,0
DA:181,0
DA:182,0
DA:183,0
DA:184,0
DA:185,0
DA:186,0
DA:187,0
DA:188,0
DA:189,0
DA:196,1
DA:197,1
DA:198,1
DA:199,1
DA:200,1
DA:203,1
DA:204,1
DA:205,1
DA:206,1
DA:208,1
DA:209,1
DA:210,1
DA:212,1
DA:213,1
DA:214,1
DA:215,1
DA:216,1
DA:217,1
DA:218,1
DA:219,1
BRF:0
BRH:0
LF:158
LH:79
end_of_record
SF:/Users/samcolak/Source Code/rust/neuron_server/pt5/neuron/src/trainer_presentation.rs
FN:7,_RNCNvNtCsl67wFTZafe0_6neuron20trainer_presentation17format_prediction0B5_
FN:8,_RNCNvNtCsl67wFTZafe0_6neuron20trainer_presentation17format_predictions_0B5_
FN:17,_RNCNvNtCsl67wFTZafe0_6neuron20trainer_presentation22print_confusion_matrix0B5_
FN:5,_RNvNtCsl67wFTZafe0_6neuron20trainer_presentation17format_prediction
FN:36,_RNvNtCsl67wFTZafe0_6neuron20trainer_presentation18print_loop_summary
FN:25,_RNvNtCsl67wFTZafe0_6neuron20trainer_presentation19print_label_metrics
FN:11,_RNvNtCsl67wFTZafe0_6neuron20trainer_presentation22print_confusion_matrix
FNDA:0,_RNCNvNtCsl67wFTZafe0_6neuron20trainer_presentation17format_prediction0B5_
FNDA:0,_RNCNvNtCsl67wFTZafe0_6neuron20trainer_presentation17format_predictions_0B5_
FNDA:0,_RNCNvNtCsl67wFTZafe0_6neuron20trainer_presentation22print_confusion_matrix0B5_
FNDA:0,_RNvNtCsl67wFTZafe0_6neuron20trainer_presentation17format_prediction
FNDA:0,_RNvNtCsl67wFTZafe0_6neuron20trainer_presentation18print_loop_summary
FNDA:0,_RNvNtCsl67wFTZafe0_6neuron20trainer_presentation19print_label_metrics
FNDA:0,_RNvNtCsl67wFTZafe0_6neuron20trainer_presentation22print_confusion_matrix
FNF:7
FNH:0
DA:5,0
DA:6,0
DA:7,0
DA:8,0
DA:9,0
DA:11,0
DA:12,0
DA:14,0
DA:15,0
DA:16,0
DA:17,0
DA:18,0
DA:19,0
DA:21,0
DA:23,0
DA:25,0
DA:26,0
DA:28,0
DA:29,0
DA:30,0
DA:31,0
DA:32,0
DA:33,0
DA:34,0
DA:36,0
DA:37,0
DA:43,0
DA:45,0
DA:46,0
DA:47,0
DA:48,0
DA:49,0
DA:50,0
DA:51,0
DA:54,0
DA:55,0
DA:56,0
DA:57,0
DA:58,0
DA:59,0
DA:60,0
DA:61,0
DA:62,0
DA:63,0
DA:64,0
DA:65,0
BRF:0
BRH:0
LF:49
LH:0
end_of_record
SF:/Users/samcolak/Source Code/rust/neuron_server/pt5/neuron/src/trainer_walkthrough.rs
FN:252,_RNCNvNtNtCsl67wFTZafe0_6neuron19trainer_walkthrough5testss_52cnn_image_walkthrough_flow_improves_probe_prediction0B7_
FN:220,_RNvNtNtCsl67wFTZafe0_6neuron19trainer_walkthrough5testss_52cnn_image_walkthrough_flow_improves_probe_prediction
FN:29,_RNvNtCsl67wFTZafe0_6neuron19trainer_walkthrough23run_trainer_walkthrough
FNDA:1,_RNCNvNtNtCsl67wFTZafe0_6neuron19trainer_walkthrough5testss_52cnn_image_walkthrough_flow_improves_probe_prediction0B7_
FNDA:1,_RNvNtNtCsl67wFTZafe0_6neuron19trainer_walkthrough5testss_52cnn_image_walkthrough_flow_improves_probe_prediction
FNDA:0,_RNvNtCsl67wFTZafe0_6neuron19trainer_walkthrough23run_trainer_walkthrough
FNF:3
FNH:2
DA:29,0
DA:31,0
DA:32,0
DA:34,0
DA:35,0
DA:37,0
DA:38,0
DA:39,0
DA:40,0
DA:41,0
DA:42,0
DA:45,0
DA:46,0
DA:48,0
DA:51,0
DA:52,0
DA:54,0
DA:55,0
DA:56,0
DA:57,0
DA:58,0
DA:61,0
DA:68,0
DA:69,0
DA:71,0
DA:72,0
DA:78,0
DA:84,0
DA:91,0
DA:92,0
DA:94,0
DA:95,0
DA:96,0
DA:97,0
DA:98,0
DA:100,0
DA:101,0
DA:102,0
DA:103,0
DA:104,0
DA:105,0
DA:107,0
DA:109,0
DA:111,0
DA:117,0
DA:118,0
DA:119,0
DA:120,0
DA:121,0
DA:123,0
DA:126,0
DA:127,0
DA:128,0
DA:129,0
DA:130,0
DA:131,0
DA:132,0
DA:133,0
DA:134,0
DA:135,0
DA:136,0
DA:137,0
DA:138,0
DA:139,0
DA:140,0
DA:142,0
DA:144,0
DA:146,0
DA:147,0
DA:148,0
DA:149,0
DA:150,0
DA:151,0
DA:152,0
DA:154,0
DA:156,0
DA:158,0
DA:159,0
DA:160,0
DA:161,0
DA:166,0
DA:172,0
DA:173,0
DA:174,0
DA:175,0
DA:177,0
DA:178,0
DA:179,0
DA:180,0
DA:182,0
DA:183,0
DA:185,0
DA:188,0
DA:189,0
DA:190,0
DA:191,0
DA:193,0
DA:194,0
DA:195,0
DA:196,0
DA:197,0
DA:198,0
DA:201,0
DA:206,0
DA:208,0
DA:210,0
DA:213,0
DA:220,1
DA:221,1
DA:222,1
DA:223,1
DA:225,1
DA:226,1
DA:227,1
DA:228,1
DA:230,1
DA:231,1
DA:233,1
DA:234,1
DA:235,1
DA:236,1
DA:238,1
DA:239,1
DA:240,1
DA:241,1
DA:242,1
DA:243,1
DA:246,1
DA:247,1
DA:248,1
DA:249,1
DA:250,1
DA:251,1
DA:252,1
DA:255,1
BRF:0
BRH:0
LF:136
LH:29
end_of_record